
C:/Users/di461643/MicroControllTechnik/YAHAL/examples/msp432-launchpad/P4_A2/build/servo.elf:     file format elf32-littlearm

Sections:
Idx Name          Size      VMA       LMA       File off  Algn
  0 .text         00002c20  00000000  00000000  00010000  2**4
                  CONTENTS, ALLOC, LOAD, READONLY, CODE
  1 .ARM.extab    00000000  00002c20  00002c20  00012c20  2**0
                  CONTENTS, ALLOC, LOAD, READONLY, DATA
  2 .ARM.exidx    00000008  00002c20  00002c20  00012c20  2**2
                  CONTENTS, ALLOC, LOAD, READONLY, DATA
  3 .rodata       00000250  00002c28  00002c28  00012c28  2**2
                  CONTENTS, ALLOC, LOAD, READONLY, DATA
  4 .copy.table   0000000c  00002e78  00002e78  00012e78  2**0
                  CONTENTS, ALLOC, LOAD, DATA
  5 .zero.table   0000000c  00002e84  00002e84  00012e84  2**0
                  CONTENTS, ALLOC, LOAD, DATA
  6 .data         00000090  20000000  00002e90  00020000  2**2
                  CONTENTS, ALLOC, LOAD, DATA
  7 .bss          0000069c  20000090  00002f20  00020090  2**2
                  ALLOC
  8 .ARM.attributes 00000030  00000000  00000000  00020090  2**0
                  CONTENTS, READONLY
  9 .comment      00000045  00000000  00000000  000200c0  2**0
                  CONTENTS, READONLY
 10 .debug_line_str 000001c4  00000000  00000000  00020105  2**0
                  CONTENTS, READONLY, DEBUGGING, OCTETS
 11 .debug_info   0000b45f  00000000  00000000  000202c9  2**0
                  CONTENTS, READONLY, DEBUGGING, OCTETS
 12 .debug_abbrev 0000254d  00000000  00000000  0002b728  2**0
                  CONTENTS, READONLY, DEBUGGING, OCTETS
 13 .debug_loc    00001b61  00000000  00000000  0002dc75  2**0
                  CONTENTS, READONLY, DEBUGGING, OCTETS
 14 .debug_aranges 00000490  00000000  00000000  0002f7d6  2**0
                  CONTENTS, READONLY, DEBUGGING, OCTETS
 15 .debug_ranges 00000460  00000000  00000000  0002fc66  2**0
                  CONTENTS, READONLY, DEBUGGING, OCTETS
 16 .debug_line   00003e3f  00000000  00000000  000300c6  2**0
                  CONTENTS, READONLY, DEBUGGING, OCTETS
 17 .debug_str    00003dec  00000000  00000000  00033f05  2**0
                  CONTENTS, READONLY, DEBUGGING, OCTETS
 18 .debug_frame  000014f8  00000000  00000000  00037cf4  2**2
                  CONTENTS, READONLY, DEBUGGING, OCTETS

C:/Users/di461643/MicroControllTechnik/YAHAL/examples/msp432-launchpad/P4_A2/build/servo.elf:     file format elf32-littlearm


Disassembly of section .text:

00000000 <isr_vector>:
       0:	00 00 01 20 41 0e 00 00 3f 0e 00 00 3f 0e 00 00     ... A...?...?...
      10:	3f 0e 00 00 3f 0e 00 00 3f 0e 00 00 00 00 00 00     ?...?...?.......
	...
      2c:	3f 0e 00 00 3f 0e 00 00 00 00 00 00 3f 0e 00 00     ?...?.......?...
      3c:	3f 0e 00 00 3f 0e 00 00 3f 0e 00 00 3f 0e 00 00     ?...?...?...?...
      4c:	3f 0e 00 00 3f 0e 00 00 3f 0e 00 00 3f 0e 00 00     ?...?...?...?...
      5c:	3f 0e 00 00 3f 0e 00 00 3f 0e 00 00 3f 0e 00 00     ?...?...?...?...
      6c:	3f 0e 00 00 3f 0e 00 00 3f 0e 00 00 3f 0e 00 00     ?...?...?...?...
      7c:	3f 0e 00 00 59 19 00 00 75 19 00 00 91 19 00 00     ?...Y...u.......
      8c:	ad 19 00 00 c9 19 00 00 e9 19 00 00 09 1a 00 00     ................
      9c:	29 1a 00 00 99 05 00 00 3f 0e 00 00 3f 0e 00 00     ).......?...?...
      ac:	3f 0e 00 00 3f 0e 00 00 3f 0e 00 00 3f 0e 00 00     ?...?...?...?...
      bc:	3f 0e 00 00 3f 0e 00 00 3f 0e 00 00 3f 0e 00 00     ?...?...?...?...
      cc:	f9 0b 00 00 1d 0c 00 00 41 0c 00 00 65 0c 00 00     ........A...e...
      dc:	89 0c 00 00 b1 0c 00 00                             ........

000000e4 <deregister_tm_clones>:
      e4:	4803      	ldr	r0, [pc, #12]	; (f4 <deregister_tm_clones+0x10>)
      e6:	4b04      	ldr	r3, [pc, #16]	; (f8 <deregister_tm_clones+0x14>)
      e8:	4283      	cmp	r3, r0
      ea:	d002      	beq.n	f2 <deregister_tm_clones+0xe>
      ec:	4b03      	ldr	r3, [pc, #12]	; (fc <deregister_tm_clones+0x18>)
      ee:	b103      	cbz	r3, f2 <deregister_tm_clones+0xe>
      f0:	4718      	bx	r3
      f2:	4770      	bx	lr
      f4:	20000090 	.word	0x20000090
      f8:	20000090 	.word	0x20000090
      fc:	00000000 	.word	0x00000000

00000100 <register_tm_clones>:
     100:	4805      	ldr	r0, [pc, #20]	; (118 <register_tm_clones+0x18>)
     102:	4b06      	ldr	r3, [pc, #24]	; (11c <register_tm_clones+0x1c>)
     104:	1a1b      	subs	r3, r3, r0
     106:	0fd9      	lsrs	r1, r3, #31
     108:	eb01 01a3 	add.w	r1, r1, r3, asr #2
     10c:	1049      	asrs	r1, r1, #1
     10e:	d002      	beq.n	116 <register_tm_clones+0x16>
     110:	4b03      	ldr	r3, [pc, #12]	; (120 <register_tm_clones+0x20>)
     112:	b103      	cbz	r3, 116 <register_tm_clones+0x16>
     114:	4718      	bx	r3
     116:	4770      	bx	lr
     118:	20000090 	.word	0x20000090
     11c:	20000090 	.word	0x20000090
     120:	00000000 	.word	0x00000000

00000124 <__do_global_dtors_aux>:
     124:	b510      	push	{r4, lr}
     126:	4c06      	ldr	r4, [pc, #24]	; (140 <__do_global_dtors_aux+0x1c>)
     128:	7823      	ldrb	r3, [r4, #0]
     12a:	b943      	cbnz	r3, 13e <__do_global_dtors_aux+0x1a>
     12c:	f7ff ffda 	bl	e4 <deregister_tm_clones>
     130:	4b04      	ldr	r3, [pc, #16]	; (144 <__do_global_dtors_aux+0x20>)
     132:	b113      	cbz	r3, 13a <__do_global_dtors_aux+0x16>
     134:	4804      	ldr	r0, [pc, #16]	; (148 <__do_global_dtors_aux+0x24>)
     136:	f3af 8000 	nop.w
     13a:	2301      	movs	r3, #1
     13c:	7023      	strb	r3, [r4, #0]
     13e:	bd10      	pop	{r4, pc}
     140:	2000072a 	.word	0x2000072a
     144:	00000000 	.word	0x00000000
     148:	00002e78 	.word	0x00002e78

0000014c <frame_dummy>:
     14c:	b508      	push	{r3, lr}
     14e:	4b05      	ldr	r3, [pc, #20]	; (164 <frame_dummy+0x18>)
     150:	b11b      	cbz	r3, 15a <frame_dummy+0xe>
     152:	4905      	ldr	r1, [pc, #20]	; (168 <frame_dummy+0x1c>)
     154:	4805      	ldr	r0, [pc, #20]	; (16c <frame_dummy+0x20>)
     156:	f3af 8000 	nop.w
     15a:	e8bd 4008 	ldmia.w	sp!, {r3, lr}
     15e:	f7ff bfcf 	b.w	100 <register_tm_clones>
     162:	bf00      	nop
     164:	00000000 	.word	0x00000000
     168:	20000710 	.word	0x20000710
     16c:	00002e78 	.word	0x00002e78

00000170 <main>:
     170:	b500      	push	{lr}
     172:	b08b      	sub	sp, #44	; 0x2c
     174:	4814      	ldr	r0, [pc, #80]	; (1c8 <main+0x58>)
     176:	9008      	str	r0, [sp, #32]
     178:	f240 2105 	movw	r1, #517	; 0x205
     17c:	f8ad 1024 	strh.w	r1, [sp, #36]	; 0x24
     180:	6803      	ldr	r3, [r0, #0]
     182:	681b      	ldr	r3, [r3, #0]
     184:	2202      	movs	r2, #2
     186:	4798      	blx	r3
     188:	2326      	movs	r3, #38	; 0x26
     18a:	f44f 32e1 	mov.w	r2, #115200	; 0x1c200
     18e:	490f      	ldr	r1, [pc, #60]	; (1cc <main+0x5c>)
     190:	a802      	add	r0, sp, #8
     192:	f000 ff8f 	bl	10b4 <uart_msp432::uart_msp432(EUSCI_A_Type*, unsigned long, unsigned short)>
     196:	2201      	movs	r2, #1
     198:	a902      	add	r1, sp, #8
     19a:	480d      	ldr	r0, [pc, #52]	; (1d0 <main+0x60>)
     19c:	f001 fbc4 	bl	1928 <posix_io::register_stdout(uart_interface&, bool)>
     1a0:	480c      	ldr	r0, [pc, #48]	; (1d4 <main+0x64>)
     1a2:	9000      	str	r0, [sp, #0]
     1a4:	210f      	movs	r1, #15
     1a6:	f88d 1004 	strb.w	r1, [sp, #4]
     1aa:	6803      	ldr	r3, [r0, #0]
     1ac:	681b      	ldr	r3, [r3, #0]
     1ae:	2202      	movs	r2, #2
     1b0:	4798      	blx	r3
     1b2:	4808      	ldr	r0, [pc, #32]	; (1d4 <main+0x64>)
     1b4:	6803      	ldr	r3, [r0, #0]
     1b6:	689b      	ldr	r3, [r3, #8]
     1b8:	210f      	movs	r1, #15
     1ba:	4798      	blx	r3
     1bc:	4601      	mov	r1, r0
     1be:	4806      	ldr	r0, [pc, #24]	; (1d8 <main+0x68>)
     1c0:	f001 fea4 	bl	1f0c <iprintf>
     1c4:	e7f5      	b.n	1b2 <main+0x42>
     1c6:	bf00      	nop
     1c8:	200000b4 	.word	0x200000b4
     1cc:	40001000 	.word	0x40001000
     1d0:	200005b0 	.word	0x200005b0
     1d4:	20000510 	.word	0x20000510
     1d8:	00002c28 	.word	0x00002c28

000001dc <yahal_assert_func()>:
     1dc:	e7fe      	b.n	1dc <yahal_assert_func()>
	...

000001e0 <adc14_msp432::getMode(unsigned char)>:
     1e0:	2917      	cmp	r1, #23
     1e2:	d804      	bhi.n	1ee <adc14_msp432::getMode(unsigned char)+0xe>
     1e4:	3134      	adds	r1, #52	; 0x34
     1e6:	eb00 0041 	add.w	r0, r0, r1, lsl #1
     1ea:	8880      	ldrh	r0, [r0, #4]
     1ec:	4770      	bx	lr
     1ee:	b508      	push	{r3, lr}
     1f0:	4b03      	ldr	r3, [pc, #12]	; (200 <adc14_msp432::getMode(unsigned char)+0x20>)
     1f2:	4a04      	ldr	r2, [pc, #16]	; (204 <adc14_msp432::getMode(unsigned char)+0x24>)
     1f4:	601a      	str	r2, [r3, #0]
     1f6:	4b04      	ldr	r3, [pc, #16]	; (208 <adc14_msp432::getMode(unsigned char)+0x28>)
     1f8:	2240      	movs	r2, #64	; 0x40
     1fa:	601a      	str	r2, [r3, #0]
     1fc:	f7ff ffee 	bl	1dc <yahal_assert_func()>
     200:	2000009c 	.word	0x2000009c
     204:	00002c2c 	.word	0x00002c2c
     208:	200000a8 	.word	0x200000a8

0000020c <adc14_msp432::adcReadVoltage(unsigned char)>:
     20c:	b570      	push	{r4, r5, r6, lr}
     20e:	4604      	mov	r4, r0
     210:	460d      	mov	r5, r1
     212:	6803      	ldr	r3, [r0, #0]
     214:	691e      	ldr	r6, [r3, #16]
     216:	689b      	ldr	r3, [r3, #8]
     218:	4798      	blx	r3
     21a:	4602      	mov	r2, r0
     21c:	4629      	mov	r1, r5
     21e:	4620      	mov	r0, r4
     220:	47b0      	blx	r6
     222:	bd70      	pop	{r4, r5, r6, pc}

00000224 <adc14_msp432::rawToVoltage(unsigned char, unsigned short)>:
     224:	b508      	push	{r3, lr}
     226:	ee07 2a90 	vmov	s15, r2
     22a:	eef8 7a67 	vcvt.f32.u32	s15, s15
     22e:	ed9f 7a16 	vldr	s14, [pc, #88]	; 288 <adc14_msp432::rawToVoltage(unsigned char, unsigned short)+0x64>
     232:	ee67 7a87 	vmul.f32	s15, s15, s14
     236:	3134      	adds	r1, #52	; 0x34
     238:	eb00 0041 	add.w	r0, r0, r1, lsl #1
     23c:	8883      	ldrh	r3, [r0, #4]
     23e:	3b01      	subs	r3, #1
     240:	2b07      	cmp	r3, #7
     242:	d819      	bhi.n	278 <adc14_msp432::rawToVoltage(unsigned char, unsigned short)+0x54>
     244:	e8df f003 	tbb	[pc, r3]
     248:	0e180904 	.word	0x0e180904
     24c:	13181818 	.word	0x13181818
     250:	ed9f 7a0e 	vldr	s14, [pc, #56]	; 28c <adc14_msp432::rawToVoltage(unsigned char, unsigned short)+0x68>
     254:	ee87 0a87 	vdiv.f32	s0, s15, s14
     258:	bd08      	pop	{r3, pc}
     25a:	ed9f 7a0d 	vldr	s14, [pc, #52]	; 290 <adc14_msp432::rawToVoltage(unsigned char, unsigned short)+0x6c>
     25e:	ee87 0a87 	vdiv.f32	s0, s15, s14
     262:	e7f9      	b.n	258 <adc14_msp432::rawToVoltage(unsigned char, unsigned short)+0x34>
     264:	ed9f 7a0b 	vldr	s14, [pc, #44]	; 294 <adc14_msp432::rawToVoltage(unsigned char, unsigned short)+0x70>
     268:	ee87 0a87 	vdiv.f32	s0, s15, s14
     26c:	e7f4      	b.n	258 <adc14_msp432::rawToVoltage(unsigned char, unsigned short)+0x34>
     26e:	ed9f 7a0a 	vldr	s14, [pc, #40]	; 298 <adc14_msp432::rawToVoltage(unsigned char, unsigned short)+0x74>
     272:	ee87 0a87 	vdiv.f32	s0, s15, s14
     276:	e7ef      	b.n	258 <adc14_msp432::rawToVoltage(unsigned char, unsigned short)+0x34>
     278:	4b08      	ldr	r3, [pc, #32]	; (29c <adc14_msp432::rawToVoltage(unsigned char, unsigned short)+0x78>)
     27a:	4a09      	ldr	r2, [pc, #36]	; (2a0 <adc14_msp432::rawToVoltage(unsigned char, unsigned short)+0x7c>)
     27c:	601a      	str	r2, [r3, #0]
     27e:	4b09      	ldr	r3, [pc, #36]	; (2a4 <adc14_msp432::rawToVoltage(unsigned char, unsigned short)+0x80>)
     280:	2264      	movs	r2, #100	; 0x64
     282:	601a      	str	r2, [r3, #0]
     284:	f7ff ffaa 	bl	1dc <yahal_assert_func()>
     288:	40533333 	.word	0x40533333
     28c:	437f0000 	.word	0x437f0000
     290:	447fc000 	.word	0x447fc000
     294:	457ff000 	.word	0x457ff000
     298:	467ffc00 	.word	0x467ffc00
     29c:	2000009c 	.word	0x2000009c
     2a0:	00002c2c 	.word	0x00002c2c
     2a4:	200000a8 	.word	0x200000a8

000002a8 <adc14_msp432::~adc14_msp432()>:
     2a8:	4a02      	ldr	r2, [pc, #8]	; (2b4 <adc14_msp432::~adc14_msp432()+0xc>)
     2aa:	6002      	str	r2, [r0, #0]
     2ac:	4a02      	ldr	r2, [pc, #8]	; (2b8 <adc14_msp432::~adc14_msp432()+0x10>)
     2ae:	6002      	str	r2, [r0, #0]
     2b0:	4770      	bx	lr
     2b2:	bf00      	nop
     2b4:	00002cac 	.word	0x00002cac
     2b8:	00002c88 	.word	0x00002c88

000002bc <adc14_msp432::adcMode(unsigned char, unsigned short)>:
     2bc:	b508      	push	{r3, lr}
     2be:	2917      	cmp	r1, #23
     2c0:	d80a      	bhi.n	2d8 <adc14_msp432::adcMode(unsigned char, unsigned short)+0x1c>
     2c2:	f101 0334 	add.w	r3, r1, #52	; 0x34
     2c6:	eb00 0043 	add.w	r0, r0, r3, lsl #1
     2ca:	8082      	strh	r2, [r0, #4]
     2cc:	290d      	cmp	r1, #13
     2ce:	d90b      	bls.n	2e8 <adc14_msp432::adcMode(unsigned char, unsigned short)+0x2c>
     2d0:	290f      	cmp	r1, #15
     2d2:	d816      	bhi.n	302 <adc14_msp432::adcMode(unsigned char, unsigned short)+0x46>
     2d4:	233f      	movs	r3, #63	; 0x3f
     2d6:	e008      	b.n	2ea <adc14_msp432::adcMode(unsigned char, unsigned short)+0x2e>
     2d8:	4b0b      	ldr	r3, [pc, #44]	; (308 <adc14_msp432::adcMode(unsigned char, unsigned short)+0x4c>)
     2da:	4a0c      	ldr	r2, [pc, #48]	; (30c <adc14_msp432::adcMode(unsigned char, unsigned short)+0x50>)
     2dc:	601a      	str	r2, [r3, #0]
     2de:	4b0c      	ldr	r3, [pc, #48]	; (310 <adc14_msp432::adcMode(unsigned char, unsigned short)+0x54>)
     2e0:	222e      	movs	r2, #46	; 0x2e
     2e2:	601a      	str	r2, [r3, #0]
     2e4:	f7ff ff7a 	bl	1dc <yahal_assert_func()>
     2e8:	232d      	movs	r3, #45	; 0x2d
     2ea:	1a5b      	subs	r3, r3, r1
     2ec:	f3c3 01c7 	ubfx	r1, r3, #3, #8
     2f0:	f003 0307 	and.w	r3, r3, #7
     2f4:	2203      	movs	r2, #3
     2f6:	ea43 2101 	orr.w	r1, r3, r1, lsl #8
     2fa:	4806      	ldr	r0, [pc, #24]	; (314 <adc14_msp432::adcMode(unsigned char, unsigned short)+0x58>)
     2fc:	f000 fb1e 	bl	93c <gpio_msp432::setSEL(unsigned short, unsigned char)>
     300:	bd08      	pop	{r3, pc}
     302:	2359      	movs	r3, #89	; 0x59
     304:	e7f1      	b.n	2ea <adc14_msp432::adcMode(unsigned char, unsigned short)+0x2e>
     306:	bf00      	nop
     308:	2000009c 	.word	0x2000009c
     30c:	00002c2c 	.word	0x00002c2c
     310:	200000a8 	.word	0x200000a8
     314:	200000b4 	.word	0x200000b4

00000318 <adc14_msp432::~adc14_msp432()>:
     318:	b510      	push	{r4, lr}
     31a:	4604      	mov	r4, r0
     31c:	4b04      	ldr	r3, [pc, #16]	; (330 <adc14_msp432::~adc14_msp432()+0x18>)
     31e:	6003      	str	r3, [r0, #0]
     320:	4b04      	ldr	r3, [pc, #16]	; (334 <adc14_msp432::~adc14_msp432()+0x1c>)
     322:	6003      	str	r3, [r0, #0]
     324:	21a0      	movs	r1, #160	; 0xa0
     326:	f001 fb94 	bl	1a52 <operator delete(void*, unsigned int)>
     32a:	4620      	mov	r0, r4
     32c:	bd10      	pop	{r4, pc}
     32e:	bf00      	nop
     330:	00002cac 	.word	0x00002cac
     334:	00002c88 	.word	0x00002c88

00000338 <adc14_msp432::adcStopScan()>:
     338:	4b05      	ldr	r3, [pc, #20]	; (350 <adc14_msp432::adcStopScan()+0x18>)
     33a:	791b      	ldrb	r3, [r3, #4]
     33c:	b13b      	cbz	r3, 34e <adc14_msp432::adcStopScan()+0x16>
     33e:	2300      	movs	r3, #0
     340:	4a03      	ldr	r2, [pc, #12]	; (350 <adc14_msp432::adcStopScan()+0x18>)
     342:	7113      	strb	r3, [r2, #4]
     344:	e000      	b.n	348 <adc14_msp432::adcStopScan()+0x10>
     346:	3301      	adds	r3, #1
     348:	f5b3 7f7a 	cmp.w	r3, #1000	; 0x3e8
     34c:	dbfb      	blt.n	346 <adc14_msp432::adcStopScan()+0xe>
     34e:	4770      	bx	lr
     350:	42240000 	.word	0x42240000

00000354 <adc14_msp432::adc14_msp432()>:
     354:	b510      	push	{r4, lr}
     356:	4604      	mov	r4, r0
     358:	4b12      	ldr	r3, [pc, #72]	; (3a4 <adc14_msp432::adc14_msp432()+0x50>)
     35a:	6003      	str	r3, [r0, #0]
     35c:	4b12      	ldr	r3, [pc, #72]	; (3a8 <adc14_msp432::adc14_msp432()+0x54>)
     35e:	6003      	str	r3, [r0, #0]
     360:	f7ff ffea 	bl	338 <adc14_msp432::adcStopScan()>
     364:	2300      	movs	r3, #0
     366:	e009      	b.n	37c <adc14_msp432::adc14_msp432()+0x28>
     368:	4a10      	ldr	r2, [pc, #64]	; (3ac <adc14_msp432::adc14_msp432()+0x58>)
     36a:	1d99      	adds	r1, r3, #6
     36c:	f842 3021 	str.w	r3, [r2, r1, lsl #2]
     370:	f852 0021 	ldr.w	r0, [r2, r1, lsl #2]
     374:	f842 0021 	str.w	r0, [r2, r1, lsl #2]
     378:	3301      	adds	r3, #1
     37a:	b2db      	uxtb	r3, r3
     37c:	2b17      	cmp	r3, #23
     37e:	d9f3      	bls.n	368 <adc14_msp432::adc14_msp432()+0x14>
     380:	2200      	movs	r2, #0
     382:	f8a4 209c 	strh.w	r2, [r4, #156]	; 0x9c
     386:	4b09      	ldr	r3, [pc, #36]	; (3ac <adc14_msp432::adc14_msp432()+0x58>)
     388:	4909      	ldr	r1, [pc, #36]	; (3b0 <adc14_msp432::adc14_msp432()+0x5c>)
     38a:	6019      	str	r1, [r3, #0]
     38c:	6859      	ldr	r1, [r3, #4]
     38e:	6059      	str	r1, [r3, #4]
     390:	f8c3 213c 	str.w	r2, [r3, #316]	; 0x13c
     394:	f8c3 2140 	str.w	r2, [r3, #320]	; 0x140
     398:	4b06      	ldr	r3, [pc, #24]	; (3b4 <adc14_msp432::adc14_msp432()+0x60>)
     39a:	f04f 7280 	mov.w	r2, #16777216	; 0x1000000
     39e:	601a      	str	r2, [r3, #0]
     3a0:	4620      	mov	r0, r4
     3a2:	bd10      	pop	{r4, pc}
     3a4:	00002c88 	.word	0x00002c88
     3a8:	00002cac 	.word	0x00002cac
     3ac:	40012000 	.word	0x40012000
     3b0:	44204410 	.word	0x44204410
     3b4:	e000e100 	.word	0xe000e100

000003b8 <__static_initialization_and_destruction_0(int, int)>:
     3b8:	2801      	cmp	r0, #1
     3ba:	d000      	beq.n	3be <__static_initialization_and_destruction_0(int, int)+0x6>
     3bc:	4770      	bx	lr
     3be:	f64f 73ff 	movw	r3, #65535	; 0xffff
     3c2:	4299      	cmp	r1, r3
     3c4:	d1fa      	bne.n	3bc <__static_initialization_and_destruction_0(int, int)+0x4>
     3c6:	b510      	push	{r4, lr}
     3c8:	4c04      	ldr	r4, [pc, #16]	; (3dc <__static_initialization_and_destruction_0(int, int)+0x24>)
     3ca:	4620      	mov	r0, r4
     3cc:	f7ff ffc2 	bl	354 <adc14_msp432::adc14_msp432()>
     3d0:	4a03      	ldr	r2, [pc, #12]	; (3e0 <__static_initialization_and_destruction_0(int, int)+0x28>)
     3d2:	4904      	ldr	r1, [pc, #16]	; (3e4 <__static_initialization_and_destruction_0(int, int)+0x2c>)
     3d4:	4620      	mov	r0, r4
     3d6:	f001 fb37 	bl	1a48 <__aeabi_atexit>
     3da:	bd10      	pop	{r4, pc}
     3dc:	20000510 	.word	0x20000510
     3e0:	20000000 	.word	0x20000000
     3e4:	000002a9 	.word	0x000002a9

000003e8 <adc14_msp432::set_resolution(unsigned short)>:
     3e8:	b538      	push	{r3, r4, r5, lr}
     3ea:	4605      	mov	r5, r0
     3ec:	460c      	mov	r4, r1
     3ee:	f7ff ffa3 	bl	338 <adc14_msp432::adcStopScan()>
     3f2:	4a1c      	ldr	r2, [pc, #112]	; (464 <adc14_msp432::set_resolution(unsigned short)+0x7c>)
     3f4:	6853      	ldr	r3, [r2, #4]
     3f6:	f023 0330 	bic.w	r3, r3, #48	; 0x30
     3fa:	6053      	str	r3, [r2, #4]
     3fc:	1e61      	subs	r1, r4, #1
     3fe:	2907      	cmp	r1, #7
     400:	d827      	bhi.n	452 <adc14_msp432::set_resolution(unsigned short)+0x6a>
     402:	e8df f001 	tbb	[pc, r1]
     406:	0b04      	.short	0x0b04
     408:	26261426 	.word	0x26261426
     40c:	1d26      	.short	0x1d26
     40e:	4b15      	ldr	r3, [pc, #84]	; (464 <adc14_msp432::set_resolution(unsigned short)+0x7c>)
     410:	685a      	ldr	r2, [r3, #4]
     412:	605a      	str	r2, [r3, #4]
     414:	2301      	movs	r3, #1
     416:	f8a5 309c 	strh.w	r3, [r5, #156]	; 0x9c
     41a:	bd38      	pop	{r3, r4, r5, pc}
     41c:	4a11      	ldr	r2, [pc, #68]	; (464 <adc14_msp432::set_resolution(unsigned short)+0x7c>)
     41e:	6853      	ldr	r3, [r2, #4]
     420:	f043 0310 	orr.w	r3, r3, #16
     424:	6053      	str	r3, [r2, #4]
     426:	2302      	movs	r3, #2
     428:	f8a5 309c 	strh.w	r3, [r5, #156]	; 0x9c
     42c:	e7f5      	b.n	41a <adc14_msp432::set_resolution(unsigned short)+0x32>
     42e:	4a0d      	ldr	r2, [pc, #52]	; (464 <adc14_msp432::set_resolution(unsigned short)+0x7c>)
     430:	6853      	ldr	r3, [r2, #4]
     432:	f043 0320 	orr.w	r3, r3, #32
     436:	6053      	str	r3, [r2, #4]
     438:	2304      	movs	r3, #4
     43a:	f8a5 309c 	strh.w	r3, [r5, #156]	; 0x9c
     43e:	e7ec      	b.n	41a <adc14_msp432::set_resolution(unsigned short)+0x32>
     440:	4a08      	ldr	r2, [pc, #32]	; (464 <adc14_msp432::set_resolution(unsigned short)+0x7c>)
     442:	6853      	ldr	r3, [r2, #4]
     444:	f043 0330 	orr.w	r3, r3, #48	; 0x30
     448:	6053      	str	r3, [r2, #4]
     44a:	2308      	movs	r3, #8
     44c:	f8a5 309c 	strh.w	r3, [r5, #156]	; 0x9c
     450:	e7e3      	b.n	41a <adc14_msp432::set_resolution(unsigned short)+0x32>
     452:	4b05      	ldr	r3, [pc, #20]	; (468 <adc14_msp432::set_resolution(unsigned short)+0x80>)
     454:	4a05      	ldr	r2, [pc, #20]	; (46c <adc14_msp432::set_resolution(unsigned short)+0x84>)
     456:	601a      	str	r2, [r3, #0]
     458:	4b05      	ldr	r3, [pc, #20]	; (470 <adc14_msp432::set_resolution(unsigned short)+0x88>)
     45a:	22c5      	movs	r2, #197	; 0xc5
     45c:	601a      	str	r2, [r3, #0]
     45e:	f7ff febd 	bl	1dc <yahal_assert_func()>
     462:	bf00      	nop
     464:	40012000 	.word	0x40012000
     468:	2000009c 	.word	0x2000009c
     46c:	00002c2c 	.word	0x00002c2c
     470:	200000a8 	.word	0x200000a8

00000474 <adc14_msp432::adcReadRaw(unsigned char)>:
     474:	b510      	push	{r4, lr}
     476:	2917      	cmp	r1, #23
     478:	d82c      	bhi.n	4d4 <adc14_msp432::adcReadRaw(unsigned char)+0x60>
     47a:	460c      	mov	r4, r1
     47c:	f8b0 209c 	ldrh.w	r2, [r0, #156]	; 0x9c
     480:	f101 0334 	add.w	r3, r1, #52	; 0x34
     484:	eb00 0343 	add.w	r3, r0, r3, lsl #1
     488:	8899      	ldrh	r1, [r3, #4]
     48a:	428a      	cmp	r2, r1
     48c:	d02a      	beq.n	4e4 <adc14_msp432::adcReadRaw(unsigned char)+0x70>
     48e:	f7ff ffab 	bl	3e8 <adc14_msp432::set_resolution(unsigned short)>
     492:	4b16      	ldr	r3, [pc, #88]	; (4ec <adc14_msp432::adcReadRaw(unsigned char)+0x78>)
     494:	685a      	ldr	r2, [r3, #4]
     496:	f422 12f8 	bic.w	r2, r2, #2031616	; 0x1f0000
     49a:	605a      	str	r2, [r3, #4]
     49c:	685a      	ldr	r2, [r3, #4]
     49e:	ea42 4204 	orr.w	r2, r2, r4, lsl #16
     4a2:	605a      	str	r2, [r3, #4]
     4a4:	681a      	ldr	r2, [r3, #0]
     4a6:	f422 22c0 	bic.w	r2, r2, #393216	; 0x60000
     4aa:	601a      	str	r2, [r3, #0]
     4ac:	681a      	ldr	r2, [r3, #0]
     4ae:	601a      	str	r2, [r3, #0]
     4b0:	681a      	ldr	r2, [r3, #0]
     4b2:	f042 0203 	orr.w	r2, r2, #3
     4b6:	601a      	str	r2, [r3, #0]
     4b8:	4b0d      	ldr	r3, [pc, #52]	; (4f0 <adc14_msp432::adcReadRaw(unsigned char)+0x7c>)
     4ba:	f893 3040 	ldrb.w	r3, [r3, #64]	; 0x40
     4be:	2b00      	cmp	r3, #0
     4c0:	d1fa      	bne.n	4b8 <adc14_msp432::adcReadRaw(unsigned char)+0x44>
     4c2:	3426      	adds	r4, #38	; 0x26
     4c4:	f103 4380 	add.w	r3, r3, #1073741824	; 0x40000000
     4c8:	f503 3390 	add.w	r3, r3, #73728	; 0x12000
     4cc:	f853 0024 	ldr.w	r0, [r3, r4, lsl #2]
     4d0:	b280      	uxth	r0, r0
     4d2:	bd10      	pop	{r4, pc}
     4d4:	4b07      	ldr	r3, [pc, #28]	; (4f4 <adc14_msp432::adcReadRaw(unsigned char)+0x80>)
     4d6:	4a08      	ldr	r2, [pc, #32]	; (4f8 <adc14_msp432::adcReadRaw(unsigned char)+0x84>)
     4d8:	601a      	str	r2, [r3, #0]
     4da:	4b08      	ldr	r3, [pc, #32]	; (4fc <adc14_msp432::adcReadRaw(unsigned char)+0x88>)
     4dc:	2245      	movs	r2, #69	; 0x45
     4de:	601a      	str	r2, [r3, #0]
     4e0:	f7ff fe7c 	bl	1dc <yahal_assert_func()>
     4e4:	f7ff ff28 	bl	338 <adc14_msp432::adcStopScan()>
     4e8:	e7d3      	b.n	492 <adc14_msp432::adcReadRaw(unsigned char)+0x1e>
     4ea:	bf00      	nop
     4ec:	40012000 	.word	0x40012000
     4f0:	42240000 	.word	0x42240000
     4f4:	2000009c 	.word	0x2000009c
     4f8:	00002c2c 	.word	0x00002c2c
     4fc:	200000a8 	.word	0x200000a8

00000500 <adc14_msp432::handleIrq(unsigned long)>:
     500:	b538      	push	{r3, r4, r5, lr}
     502:	4605      	mov	r5, r0
     504:	460c      	mov	r4, r1
     506:	290b      	cmp	r1, #11
     508:	d90e      	bls.n	528 <adc14_msp432::handleIrq(unsigned long)+0x28>
     50a:	084c      	lsrs	r4, r1, #1
     50c:	3c06      	subs	r4, #6
     50e:	eb00 0084 	add.w	r0, r0, r4, lsl #2
     512:	6843      	ldr	r3, [r0, #4]
     514:	b13b      	cbz	r3, 526 <adc14_msp432::handleIrq(unsigned long)+0x26>
     516:	f104 0126 	add.w	r1, r4, #38	; 0x26
     51a:	4a1e      	ldr	r2, [pc, #120]	; (594 <adc14_msp432::handleIrq(unsigned long)+0x94>)
     51c:	f852 1021 	ldr.w	r1, [r2, r1, lsl #2]
     520:	b289      	uxth	r1, r1
     522:	b2a0      	uxth	r0, r4
     524:	4798      	blx	r3
     526:	bd38      	pop	{r3, r4, r5, pc}
     528:	f7ff ff06 	bl	338 <adc14_msp432::adcStopScan()>
     52c:	f895 206a 	ldrb.w	r2, [r5, #106]	; 0x6a
     530:	4b18      	ldr	r3, [pc, #96]	; (594 <adc14_msp432::handleIrq(unsigned long)+0x94>)
     532:	3206      	adds	r2, #6
     534:	f853 1022 	ldr.w	r1, [r3, r2, lsl #2]
     538:	f421 4180 	bic.w	r1, r1, #16384	; 0x4000
     53c:	f843 1022 	str.w	r1, [r3, r2, lsl #2]
     540:	f8d3 2140 	ldr.w	r2, [r3, #320]	; 0x140
     544:	f022 020e 	bic.w	r2, r2, #14
     548:	f8c3 2140 	str.w	r2, [r3, #320]	; 0x140
     54c:	f8d3 2150 	ldr.w	r2, [r3, #336]	; 0x150
     550:	f042 020e 	orr.w	r2, r2, #14
     554:	f8c3 2150 	str.w	r2, [r3, #336]	; 0x150
     558:	2c08      	cmp	r4, #8
     55a:	d016      	beq.n	58a <adc14_msp432::handleIrq(unsigned long)+0x8a>
     55c:	2c0a      	cmp	r4, #10
     55e:	d016      	beq.n	58e <adc14_msp432::handleIrq(unsigned long)+0x8e>
     560:	2c06      	cmp	r4, #6
     562:	d010      	beq.n	586 <adc14_msp432::handleIrq(unsigned long)+0x86>
     564:	2100      	movs	r1, #0
     566:	6e6a      	ldr	r2, [r5, #100]	; 0x64
     568:	b13a      	cbz	r2, 57a <adc14_msp432::handleIrq(unsigned long)+0x7a>
     56a:	f895 306a 	ldrb.w	r3, [r5, #106]	; 0x6a
     56e:	3326      	adds	r3, #38	; 0x26
     570:	4808      	ldr	r0, [pc, #32]	; (594 <adc14_msp432::handleIrq(unsigned long)+0x94>)
     572:	f850 0023 	ldr.w	r0, [r0, r3, lsl #2]
     576:	b280      	uxth	r0, r0
     578:	4790      	blx	r2
     57a:	4a06      	ldr	r2, [pc, #24]	; (594 <adc14_msp432::handleIrq(unsigned long)+0x94>)
     57c:	6813      	ldr	r3, [r2, #0]
     57e:	f043 0303 	orr.w	r3, r3, #3
     582:	6013      	str	r3, [r2, #0]
     584:	e7cf      	b.n	526 <adc14_msp432::handleIrq(unsigned long)+0x26>
     586:	2102      	movs	r1, #2
     588:	e7ed      	b.n	566 <adc14_msp432::handleIrq(unsigned long)+0x66>
     58a:	2101      	movs	r1, #1
     58c:	e7eb      	b.n	566 <adc14_msp432::handleIrq(unsigned long)+0x66>
     58e:	2104      	movs	r1, #4
     590:	e7e9      	b.n	566 <adc14_msp432::handleIrq(unsigned long)+0x66>
     592:	bf00      	nop
     594:	40012000 	.word	0x40012000

00000598 <ADC14_IRQHandler>:
     598:	b508      	push	{r3, lr}
     59a:	4b03      	ldr	r3, [pc, #12]	; (5a8 <ADC14_IRQHandler+0x10>)
     59c:	f8d3 1154 	ldr.w	r1, [r3, #340]	; 0x154
     5a0:	4802      	ldr	r0, [pc, #8]	; (5ac <ADC14_IRQHandler+0x14>)
     5a2:	f7ff ffad 	bl	500 <adc14_msp432::handleIrq(unsigned long)>
     5a6:	bd08      	pop	{r3, pc}
     5a8:	40012000 	.word	0x40012000
     5ac:	20000510 	.word	0x20000510

000005b0 <_GLOBAL__sub_I__ZN12adc14_msp4324instE>:
     5b0:	b508      	push	{r3, lr}
     5b2:	f64f 71ff 	movw	r1, #65535	; 0xffff
     5b6:	2001      	movs	r0, #1
     5b8:	f7ff fefe 	bl	3b8 <__static_initialization_and_destruction_0(int, int)>
     5bc:	bd08      	pop	{r3, pc}
	...

000005c0 <__NVIC_EnableIRQ>:
     5c0:	2800      	cmp	r0, #0
     5c2:	db07      	blt.n	5d4 <__NVIC_EnableIRQ+0x14>
     5c4:	f000 021f 	and.w	r2, r0, #31
     5c8:	0940      	lsrs	r0, r0, #5
     5ca:	2301      	movs	r3, #1
     5cc:	4093      	lsls	r3, r2
     5ce:	4a02      	ldr	r2, [pc, #8]	; (5d8 <__NVIC_EnableIRQ+0x18>)
     5d0:	f842 3020 	str.w	r3, [r2, r0, lsl #2]
     5d4:	4770      	bx	lr
     5d6:	bf00      	nop
     5d8:	e000e100 	.word	0xe000e100

000005dc <yahal_assert_func()>:
     5dc:	e7fe      	b.n	5dc <yahal_assert_func()>
	...

000005e0 <gpio_msp432::gpioRead(unsigned short)>:
     5e0:	b508      	push	{r3, lr}
     5e2:	0a0b      	lsrs	r3, r1, #8
     5e4:	1e5a      	subs	r2, r3, #1
     5e6:	b2d2      	uxtb	r2, r2
     5e8:	2a09      	cmp	r2, #9
     5ea:	d80c      	bhi.n	606 <gpio_msp432::gpioRead(unsigned short)+0x26>
     5ec:	b2c9      	uxtb	r1, r1
     5ee:	2907      	cmp	r1, #7
     5f0:	d809      	bhi.n	606 <gpio_msp432::gpioRead(unsigned short)+0x26>
     5f2:	3b01      	subs	r3, #1
     5f4:	4a08      	ldr	r2, [pc, #32]	; (618 <gpio_msp432::gpioRead(unsigned short)+0x38>)
     5f6:	f852 3023 	ldr.w	r3, [r2, r3, lsl #2]
     5fa:	f813 0021 	ldrb.w	r0, [r3, r1, lsl #2]
     5fe:	3800      	subs	r0, #0
     600:	bf18      	it	ne
     602:	2001      	movne	r0, #1
     604:	bd08      	pop	{r3, pc}
     606:	4b05      	ldr	r3, [pc, #20]	; (61c <gpio_msp432::gpioRead(unsigned short)+0x3c>)
     608:	4a05      	ldr	r2, [pc, #20]	; (620 <gpio_msp432::gpioRead(unsigned short)+0x40>)
     60a:	601a      	str	r2, [r3, #0]
     60c:	4b05      	ldr	r3, [pc, #20]	; (624 <gpio_msp432::gpioRead(unsigned short)+0x44>)
     60e:	2233      	movs	r2, #51	; 0x33
     610:	601a      	str	r2, [r3, #0]
     612:	f7ff ffe3 	bl	5dc <yahal_assert_func()>
     616:	bf00      	nop
     618:	20000004 	.word	0x20000004
     61c:	200000a0 	.word	0x200000a0
     620:	00002cc8 	.word	0x00002cc8
     624:	200000ac 	.word	0x200000ac

00000628 <gpio_msp432::gpioWrite(unsigned short, bool)>:
     628:	b510      	push	{r4, lr}
     62a:	0a0b      	lsrs	r3, r1, #8
     62c:	f103 3cff 	add.w	ip, r3, #4294967295
     630:	fa5f fc8c 	uxtb.w	ip, ip
     634:	f1bc 0f09 	cmp.w	ip, #9
     638:	d82a      	bhi.n	690 <gpio_msp432::gpioWrite(unsigned short, bool)+0x68>
     63a:	fa5f fe81 	uxtb.w	lr, r1
     63e:	f1be 0f07 	cmp.w	lr, #7
     642:	d825      	bhi.n	690 <gpio_msp432::gpioWrite(unsigned short, bool)+0x68>
     644:	3b01      	subs	r3, #1
     646:	eb00 0c03 	add.w	ip, r0, r3
     64a:	f89c c3fe 	ldrb.w	ip, [ip, #1022]	; 0x3fe
     64e:	fa4c fc01 	asr.w	ip, ip, r1
     652:	f01c 0f01 	tst.w	ip, #1
     656:	d040      	beq.n	6da <gpio_msp432::gpioWrite(unsigned short, bool)+0xb2>
     658:	4418      	add	r0, r3
     65a:	f890 0408 	ldrb.w	r0, [r0, #1032]	; 0x408
     65e:	fa40 f101 	asr.w	r1, r0, r1
     662:	f011 0f01 	tst.w	r1, #1
     666:	d02e      	beq.n	6c6 <gpio_msp432::gpioWrite(unsigned short, bool)+0x9e>
     668:	b1d2      	cbz	r2, 6a0 <gpio_msp432::gpioWrite(unsigned short, bool)+0x78>
     66a:	4a3d      	ldr	r2, [pc, #244]	; (760 <gpio_msp432::gpioWrite(unsigned short, bool)+0x138>)
     66c:	f852 0023 	ldr.w	r0, [r2, r3, lsl #2]
     670:	ea4f 0e8e 	mov.w	lr, lr, lsl #2
     674:	f10e 0180 	add.w	r1, lr, #128	; 0x80
     678:	f04f 0c00 	mov.w	ip, #0
     67c:	f800 c001 	strb.w	ip, [r0, r1]
     680:	f852 3023 	ldr.w	r3, [r2, r3, lsl #2]
     684:	f10e 0e40 	add.w	lr, lr, #64	; 0x40
     688:	2201      	movs	r2, #1
     68a:	f803 200e 	strb.w	r2, [r3, lr]
     68e:	e023      	b.n	6d8 <gpio_msp432::gpioWrite(unsigned short, bool)+0xb0>
     690:	4b34      	ldr	r3, [pc, #208]	; (764 <gpio_msp432::gpioWrite(unsigned short, bool)+0x13c>)
     692:	4a35      	ldr	r2, [pc, #212]	; (768 <gpio_msp432::gpioWrite(unsigned short, bool)+0x140>)
     694:	601a      	str	r2, [r3, #0]
     696:	4b35      	ldr	r3, [pc, #212]	; (76c <gpio_msp432::gpioWrite(unsigned short, bool)+0x144>)
     698:	223a      	movs	r2, #58	; 0x3a
     69a:	601a      	str	r2, [r3, #0]
     69c:	f7ff ff9e 	bl	5dc <yahal_assert_func()>
     6a0:	4a2f      	ldr	r2, [pc, #188]	; (760 <gpio_msp432::gpioWrite(unsigned short, bool)+0x138>)
     6a2:	f852 0023 	ldr.w	r0, [r2, r3, lsl #2]
     6a6:	ea4f 0e8e 	mov.w	lr, lr, lsl #2
     6aa:	f10e 0140 	add.w	r1, lr, #64	; 0x40
     6ae:	f04f 0c00 	mov.w	ip, #0
     6b2:	f800 c001 	strb.w	ip, [r0, r1]
     6b6:	f852 3023 	ldr.w	r3, [r2, r3, lsl #2]
     6ba:	f10e 0e80 	add.w	lr, lr, #128	; 0x80
     6be:	2201      	movs	r2, #1
     6c0:	f803 200e 	strb.w	r2, [r3, lr]
     6c4:	e008      	b.n	6d8 <gpio_msp432::gpioWrite(unsigned short, bool)+0xb0>
     6c6:	4926      	ldr	r1, [pc, #152]	; (760 <gpio_msp432::gpioWrite(unsigned short, bool)+0x138>)
     6c8:	f851 1023 	ldr.w	r1, [r1, r3, lsl #2]
     6cc:	ea4f 038e 	mov.w	r3, lr, lsl #2
     6d0:	3380      	adds	r3, #128	; 0x80
     6d2:	f082 0201 	eor.w	r2, r2, #1
     6d6:	54ca      	strb	r2, [r1, r3]
     6d8:	bd10      	pop	{r4, pc}
     6da:	eb00 0c03 	add.w	ip, r0, r3
     6de:	f89c c3f4 	ldrb.w	ip, [ip, #1012]	; 0x3f4
     6e2:	fa4c fc01 	asr.w	ip, ip, r1
     6e6:	f01c 0f01 	tst.w	ip, #1
     6ea:	d030      	beq.n	74e <gpio_msp432::gpioWrite(unsigned short, bool)+0x126>
     6ec:	4418      	add	r0, r3
     6ee:	f890 0412 	ldrb.w	r0, [r0, #1042]	; 0x412
     6f2:	fa40 f101 	asr.w	r1, r0, r1
     6f6:	f011 0f01 	tst.w	r1, #1
     6fa:	d020      	beq.n	73e <gpio_msp432::gpioWrite(unsigned short, bool)+0x116>
     6fc:	b17a      	cbz	r2, 71e <gpio_msp432::gpioWrite(unsigned short, bool)+0xf6>
     6fe:	4918      	ldr	r1, [pc, #96]	; (760 <gpio_msp432::gpioWrite(unsigned short, bool)+0x138>)
     700:	ea4f 0e8e 	mov.w	lr, lr, lsl #2
     704:	f10e 0040 	add.w	r0, lr, #64	; 0x40
     708:	2201      	movs	r2, #1
     70a:	f851 4023 	ldr.w	r4, [r1, r3, lsl #2]
     70e:	5422      	strb	r2, [r4, r0]
     710:	f851 3023 	ldr.w	r3, [r1, r3, lsl #2]
     714:	f10e 0e80 	add.w	lr, lr, #128	; 0x80
     718:	f803 200e 	strb.w	r2, [r3, lr]
     71c:	e7dc      	b.n	6d8 <gpio_msp432::gpioWrite(unsigned short, bool)+0xb0>
     71e:	4910      	ldr	r1, [pc, #64]	; (760 <gpio_msp432::gpioWrite(unsigned short, bool)+0x138>)
     720:	ea4f 0e8e 	mov.w	lr, lr, lsl #2
     724:	f10e 0080 	add.w	r0, lr, #128	; 0x80
     728:	2200      	movs	r2, #0
     72a:	f851 4023 	ldr.w	r4, [r1, r3, lsl #2]
     72e:	5422      	strb	r2, [r4, r0]
     730:	f851 3023 	ldr.w	r3, [r1, r3, lsl #2]
     734:	f10e 0e40 	add.w	lr, lr, #64	; 0x40
     738:	f803 200e 	strb.w	r2, [r3, lr]
     73c:	e7cc      	b.n	6d8 <gpio_msp432::gpioWrite(unsigned short, bool)+0xb0>
     73e:	4908      	ldr	r1, [pc, #32]	; (760 <gpio_msp432::gpioWrite(unsigned short, bool)+0x138>)
     740:	f851 1023 	ldr.w	r1, [r1, r3, lsl #2]
     744:	ea4f 038e 	mov.w	r3, lr, lsl #2
     748:	3380      	adds	r3, #128	; 0x80
     74a:	54ca      	strb	r2, [r1, r3]
     74c:	e7c4      	b.n	6d8 <gpio_msp432::gpioWrite(unsigned short, bool)+0xb0>
     74e:	4904      	ldr	r1, [pc, #16]	; (760 <gpio_msp432::gpioWrite(unsigned short, bool)+0x138>)
     750:	f851 1023 	ldr.w	r1, [r1, r3, lsl #2]
     754:	ea4f 038e 	mov.w	r3, lr, lsl #2
     758:	3340      	adds	r3, #64	; 0x40
     75a:	54ca      	strb	r2, [r1, r3]
     75c:	e7bc      	b.n	6d8 <gpio_msp432::gpioWrite(unsigned short, bool)+0xb0>
     75e:	bf00      	nop
     760:	20000004 	.word	0x20000004
     764:	200000a0 	.word	0x200000a0
     768:	00002cc8 	.word	0x00002cc8
     76c:	200000ac 	.word	0x200000ac

00000770 <gpio_msp432::gpioToggle(unsigned short)>:
     770:	b508      	push	{r3, lr}
     772:	0a0b      	lsrs	r3, r1, #8
     774:	1e5a      	subs	r2, r3, #1
     776:	b2d2      	uxtb	r2, r2
     778:	2a09      	cmp	r2, #9
     77a:	d811      	bhi.n	7a0 <gpio_msp432::gpioToggle(unsigned short)+0x30>
     77c:	fa5f fc81 	uxtb.w	ip, r1
     780:	f1bc 0f07 	cmp.w	ip, #7
     784:	d80c      	bhi.n	7a0 <gpio_msp432::gpioToggle(unsigned short)+0x30>
     786:	3b01      	subs	r3, #1
     788:	4a09      	ldr	r2, [pc, #36]	; (7b0 <gpio_msp432::gpioToggle(unsigned short)+0x40>)
     78a:	f852 3023 	ldr.w	r3, [r2, r3, lsl #2]
     78e:	f813 202c 	ldrb.w	r2, [r3, ip, lsl #2]
     792:	6803      	ldr	r3, [r0, #0]
     794:	689b      	ldr	r3, [r3, #8]
     796:	fab2 f282 	clz	r2, r2
     79a:	0952      	lsrs	r2, r2, #5
     79c:	4798      	blx	r3
     79e:	bd08      	pop	{r3, pc}
     7a0:	4b04      	ldr	r3, [pc, #16]	; (7b4 <gpio_msp432::gpioToggle(unsigned short)+0x44>)
     7a2:	4a05      	ldr	r2, [pc, #20]	; (7b8 <gpio_msp432::gpioToggle(unsigned short)+0x48>)
     7a4:	601a      	str	r2, [r3, #0]
     7a6:	4b05      	ldr	r3, [pc, #20]	; (7bc <gpio_msp432::gpioToggle(unsigned short)+0x4c>)
     7a8:	225e      	movs	r2, #94	; 0x5e
     7aa:	601a      	str	r2, [r3, #0]
     7ac:	f7ff ff16 	bl	5dc <yahal_assert_func()>
     7b0:	20000004 	.word	0x20000004
     7b4:	200000a0 	.word	0x200000a0
     7b8:	00002cc8 	.word	0x00002cc8
     7bc:	200000ac 	.word	0x200000ac

000007c0 <gpio_msp432::gpioEnableIrq(unsigned short)>:
     7c0:	b510      	push	{r4, lr}
     7c2:	0a08      	lsrs	r0, r1, #8
     7c4:	1e43      	subs	r3, r0, #1
     7c6:	b2db      	uxtb	r3, r3
     7c8:	2b05      	cmp	r3, #5
     7ca:	d818      	bhi.n	7fe <gpio_msp432::gpioEnableIrq(unsigned short)+0x3e>
     7cc:	b2c9      	uxtb	r1, r1
     7ce:	2907      	cmp	r1, #7
     7d0:	d815      	bhi.n	7fe <gpio_msp432::gpioEnableIrq(unsigned short)+0x3e>
     7d2:	1e42      	subs	r2, r0, #1
     7d4:	4b0e      	ldr	r3, [pc, #56]	; (810 <gpio_msp432::gpioEnableIrq(unsigned short)+0x50>)
     7d6:	0089      	lsls	r1, r1, #2
     7d8:	f501 7c60 	add.w	ip, r1, #896	; 0x380
     7dc:	f04f 0e00 	mov.w	lr, #0
     7e0:	f853 4022 	ldr.w	r4, [r3, r2, lsl #2]
     7e4:	f804 e00c 	strb.w	lr, [r4, ip]
     7e8:	f853 3022 	ldr.w	r3, [r3, r2, lsl #2]
     7ec:	f501 7150 	add.w	r1, r1, #832	; 0x340
     7f0:	2201      	movs	r2, #1
     7f2:	545a      	strb	r2, [r3, r1]
     7f4:	3022      	adds	r0, #34	; 0x22
     7f6:	b240      	sxtb	r0, r0
     7f8:	f7ff fee2 	bl	5c0 <__NVIC_EnableIRQ>
     7fc:	bd10      	pop	{r4, pc}
     7fe:	4b05      	ldr	r3, [pc, #20]	; (814 <gpio_msp432::gpioEnableIrq(unsigned short)+0x54>)
     800:	4a05      	ldr	r2, [pc, #20]	; (818 <gpio_msp432::gpioEnableIrq(unsigned short)+0x58>)
     802:	601a      	str	r2, [r3, #0]
     804:	4b05      	ldr	r3, [pc, #20]	; (81c <gpio_msp432::gpioEnableIrq(unsigned short)+0x5c>)
     806:	2290      	movs	r2, #144	; 0x90
     808:	601a      	str	r2, [r3, #0]
     80a:	f7ff fee7 	bl	5dc <yahal_assert_func()>
     80e:	bf00      	nop
     810:	20000004 	.word	0x20000004
     814:	200000a0 	.word	0x200000a0
     818:	00002cc8 	.word	0x00002cc8
     81c:	200000ac 	.word	0x200000ac

00000820 <gpio_msp432::gpioDisableIrq(unsigned short)>:
     820:	b508      	push	{r3, lr}
     822:	0a0b      	lsrs	r3, r1, #8
     824:	1e5a      	subs	r2, r3, #1
     826:	b2d2      	uxtb	r2, r2
     828:	2a05      	cmp	r2, #5
     82a:	d80c      	bhi.n	846 <gpio_msp432::gpioDisableIrq(unsigned short)+0x26>
     82c:	b2c9      	uxtb	r1, r1
     82e:	2907      	cmp	r1, #7
     830:	d809      	bhi.n	846 <gpio_msp432::gpioDisableIrq(unsigned short)+0x26>
     832:	3b01      	subs	r3, #1
     834:	4a08      	ldr	r2, [pc, #32]	; (858 <gpio_msp432::gpioDisableIrq(unsigned short)+0x38>)
     836:	f852 3023 	ldr.w	r3, [r2, r3, lsl #2]
     83a:	0089      	lsls	r1, r1, #2
     83c:	f501 7150 	add.w	r1, r1, #832	; 0x340
     840:	2200      	movs	r2, #0
     842:	545a      	strb	r2, [r3, r1]
     844:	bd08      	pop	{r3, pc}
     846:	4b05      	ldr	r3, [pc, #20]	; (85c <gpio_msp432::gpioDisableIrq(unsigned short)+0x3c>)
     848:	4a05      	ldr	r2, [pc, #20]	; (860 <gpio_msp432::gpioDisableIrq(unsigned short)+0x40>)
     84a:	601a      	str	r2, [r3, #0]
     84c:	4b05      	ldr	r3, [pc, #20]	; (864 <gpio_msp432::gpioDisableIrq(unsigned short)+0x44>)
     84e:	229a      	movs	r2, #154	; 0x9a
     850:	601a      	str	r2, [r3, #0]
     852:	f7ff fec3 	bl	5dc <yahal_assert_func()>
     856:	bf00      	nop
     858:	20000004 	.word	0x20000004
     85c:	200000a0 	.word	0x200000a0
     860:	00002cc8 	.word	0x00002cc8
     864:	200000ac 	.word	0x200000ac

00000868 <std::_Function_base::~_Function_base()>:
     868:	b510      	push	{r4, lr}
     86a:	4604      	mov	r4, r0
     86c:	6883      	ldr	r3, [r0, #8]
     86e:	b113      	cbz	r3, 876 <std::_Function_base::~_Function_base()+0xe>
     870:	2203      	movs	r2, #3
     872:	4601      	mov	r1, r0
     874:	4798      	blx	r3
     876:	4620      	mov	r0, r4
     878:	bd10      	pop	{r4, pc}
	...

0000087c <gpio_msp432::~gpio_msp432()>:
     87c:	b570      	push	{r4, r5, r6, lr}
     87e:	4606      	mov	r6, r0
     880:	4605      	mov	r5, r0
     882:	4b08      	ldr	r3, [pc, #32]	; (8a4 <gpio_msp432::~gpio_msp432()+0x28>)
     884:	f845 3b04 	str.w	r3, [r5], #4
     888:	f500 7441 	add.w	r4, r0, #772	; 0x304
     88c:	e003      	b.n	896 <gpio_msp432::~gpio_msp432()+0x1a>
     88e:	3c10      	subs	r4, #16
     890:	4620      	mov	r0, r4
     892:	f7ff ffe9 	bl	868 <std::_Function_base::~_Function_base()>
     896:	42a5      	cmp	r5, r4
     898:	d1f9      	bne.n	88e <gpio_msp432::~gpio_msp432()+0x12>
     89a:	4b03      	ldr	r3, [pc, #12]	; (8a8 <gpio_msp432::~gpio_msp432()+0x2c>)
     89c:	6033      	str	r3, [r6, #0]
     89e:	4630      	mov	r0, r6
     8a0:	bd70      	pop	{r4, r5, r6, pc}
     8a2:	bf00      	nop
     8a4:	00002d54 	.word	0x00002d54
     8a8:	00002d24 	.word	0x00002d24

000008ac <gpio_msp432::~gpio_msp432()>:
     8ac:	b510      	push	{r4, lr}
     8ae:	4604      	mov	r4, r0
     8b0:	f7ff ffe4 	bl	87c <gpio_msp432::~gpio_msp432()>
     8b4:	f240 411c 	movw	r1, #1052	; 0x41c
     8b8:	4620      	mov	r0, r4
     8ba:	f001 f8ca 	bl	1a52 <operator delete(void*, unsigned int)>
     8be:	4620      	mov	r0, r4
     8c0:	bd10      	pop	{r4, pc}
	...

000008c4 <gpio_msp432::gpio_msp432()>:
     8c4:	b500      	push	{lr}
     8c6:	4b0f      	ldr	r3, [pc, #60]	; (904 <gpio_msp432::gpio_msp432()+0x40>)
     8c8:	6003      	str	r3, [r0, #0]
     8ca:	4684      	mov	ip, r0
     8cc:	4b0e      	ldr	r3, [pc, #56]	; (908 <gpio_msp432::gpio_msp432()+0x44>)
     8ce:	f84c 3b04 	str.w	r3, [ip], #4
     8d2:	f04f 0e05 	mov.w	lr, #5
     8d6:	e00c      	b.n	8f2 <gpio_msp432::gpio_msp432()+0x2e>
     8d8:	2200      	movs	r2, #0
     8da:	601a      	str	r2, [r3, #0]
     8dc:	605a      	str	r2, [r3, #4]
     8de:	609a      	str	r2, [r3, #8]
     8e0:	60da      	str	r2, [r3, #12]
     8e2:	3901      	subs	r1, #1
     8e4:	3310      	adds	r3, #16
     8e6:	2900      	cmp	r1, #0
     8e8:	daf6      	bge.n	8d8 <gpio_msp432::gpio_msp432()+0x14>
     8ea:	f10e 3eff 	add.w	lr, lr, #4294967295
     8ee:	f10c 0c80 	add.w	ip, ip, #128	; 0x80
     8f2:	f1be 0f00 	cmp.w	lr, #0
     8f6:	db02      	blt.n	8fe <gpio_msp432::gpio_msp432()+0x3a>
     8f8:	4663      	mov	r3, ip
     8fa:	2107      	movs	r1, #7
     8fc:	e7f3      	b.n	8e6 <gpio_msp432::gpio_msp432()+0x22>
     8fe:	f85d fb04 	ldr.w	pc, [sp], #4
     902:	bf00      	nop
     904:	00002d24 	.word	0x00002d24
     908:	00002d54 	.word	0x00002d54

0000090c <__static_initialization_and_destruction_0(int, int)>:
     90c:	2801      	cmp	r0, #1
     90e:	d000      	beq.n	912 <__static_initialization_and_destruction_0(int, int)+0x6>
     910:	4770      	bx	lr
     912:	f64f 73ff 	movw	r3, #65535	; 0xffff
     916:	4299      	cmp	r1, r3
     918:	d1fa      	bne.n	910 <__static_initialization_and_destruction_0(int, int)+0x4>
     91a:	b510      	push	{r4, lr}
     91c:	4c04      	ldr	r4, [pc, #16]	; (930 <__static_initialization_and_destruction_0(int, int)+0x24>)
     91e:	4620      	mov	r0, r4
     920:	f7ff ffd0 	bl	8c4 <gpio_msp432::gpio_msp432()>
     924:	4a03      	ldr	r2, [pc, #12]	; (934 <__static_initialization_and_destruction_0(int, int)+0x28>)
     926:	4904      	ldr	r1, [pc, #16]	; (938 <__static_initialization_and_destruction_0(int, int)+0x2c>)
     928:	4620      	mov	r0, r4
     92a:	f001 f88d 	bl	1a48 <__aeabi_atexit>
     92e:	bd10      	pop	{r4, pc}
     930:	200000b4 	.word	0x200000b4
     934:	20000000 	.word	0x20000000
     938:	0000087d 	.word	0x0000087d

0000093c <gpio_msp432::setSEL(unsigned short, unsigned char)>:
     93c:	b510      	push	{r4, lr}
     93e:	0a0b      	lsrs	r3, r1, #8
     940:	1e58      	subs	r0, r3, #1
     942:	b2c0      	uxtb	r0, r0
     944:	2809      	cmp	r0, #9
     946:	d815      	bhi.n	974 <gpio_msp432::setSEL(unsigned short, unsigned char)+0x38>
     948:	b2c9      	uxtb	r1, r1
     94a:	2907      	cmp	r1, #7
     94c:	d812      	bhi.n	974 <gpio_msp432::setSEL(unsigned short, unsigned char)+0x38>
     94e:	3b01      	subs	r3, #1
     950:	480c      	ldr	r0, [pc, #48]	; (984 <gpio_msp432::setSEL(unsigned short, unsigned char)+0x48>)
     952:	0089      	lsls	r1, r1, #2
     954:	f501 7ca0 	add.w	ip, r1, #320	; 0x140
     958:	f002 0e01 	and.w	lr, r2, #1
     95c:	f850 4023 	ldr.w	r4, [r0, r3, lsl #2]
     960:	f804 e00c 	strb.w	lr, [r4, ip]
     964:	f850 3023 	ldr.w	r3, [r0, r3, lsl #2]
     968:	f501 71c0 	add.w	r1, r1, #384	; 0x180
     96c:	f3c2 0240 	ubfx	r2, r2, #1, #1
     970:	545a      	strb	r2, [r3, r1]
     972:	bd10      	pop	{r4, pc}
     974:	4b04      	ldr	r3, [pc, #16]	; (988 <gpio_msp432::setSEL(unsigned short, unsigned char)+0x4c>)
     976:	4a05      	ldr	r2, [pc, #20]	; (98c <gpio_msp432::setSEL(unsigned short, unsigned char)+0x50>)
     978:	601a      	str	r2, [r3, #0]
     97a:	4b05      	ldr	r3, [pc, #20]	; (990 <gpio_msp432::setSEL(unsigned short, unsigned char)+0x54>)
     97c:	22aa      	movs	r2, #170	; 0xaa
     97e:	601a      	str	r2, [r3, #0]
     980:	f7ff fe2c 	bl	5dc <yahal_assert_func()>
     984:	20000004 	.word	0x20000004
     988:	200000a0 	.word	0x200000a0
     98c:	00002cc8 	.word	0x00002cc8
     990:	200000ac 	.word	0x200000ac

00000994 <gpio_msp432::setMode(unsigned short, unsigned short)>:
     994:	e92d 43f8 	stmdb	sp!, {r3, r4, r5, r6, r7, r8, r9, lr}
     998:	460e      	mov	r6, r1
     99a:	4614      	mov	r4, r2
     99c:	0a0b      	lsrs	r3, r1, #8
     99e:	b2ca      	uxtb	r2, r1
     9a0:	1e59      	subs	r1, r3, #1
     9a2:	b2c9      	uxtb	r1, r1
     9a4:	2909      	cmp	r1, #9
     9a6:	f200 8090 	bhi.w	aca <gpio_msp432::setMode(unsigned short, unsigned short)+0x136>
     9aa:	4605      	mov	r5, r0
     9ac:	2a07      	cmp	r2, #7
     9ae:	f200 808c 	bhi.w	aca <gpio_msp432::setMode(unsigned short, unsigned short)+0x136>
     9b2:	3b01      	subs	r3, #1
     9b4:	eb00 0c03 	add.w	ip, r0, r3
     9b8:	f89c 03fe 	ldrb.w	r0, [ip, #1022]	; 0x3fe
     9bc:	2101      	movs	r1, #1
     9be:	40b1      	lsls	r1, r6
     9c0:	ea20 0001 	bic.w	r0, r0, r1
     9c4:	f88c 03fe 	strb.w	r0, [ip, #1022]	; 0x3fe
     9c8:	f89c 03f4 	ldrb.w	r0, [ip, #1012]	; 0x3f4
     9cc:	ea20 0001 	bic.w	r0, r0, r1
     9d0:	f88c 03f4 	strb.w	r0, [ip, #1012]	; 0x3f4
     9d4:	f89c 0408 	ldrb.w	r0, [ip, #1032]	; 0x408
     9d8:	ea20 0001 	bic.w	r0, r0, r1
     9dc:	f88c 0408 	strb.w	r0, [ip, #1032]	; 0x408
     9e0:	f89c 0412 	ldrb.w	r0, [ip, #1042]	; 0x412
     9e4:	ea20 0001 	bic.w	r0, r0, r1
     9e8:	f88c 0412 	strb.w	r0, [ip, #1042]	; 0x412
     9ec:	4f3f      	ldr	r7, [pc, #252]	; (aec <gpio_msp432::setMode(unsigned short, unsigned short)+0x158>)
     9ee:	f857 0023 	ldr.w	r0, [r7, r3, lsl #2]
     9f2:	0092      	lsls	r2, r2, #2
     9f4:	f102 0880 	add.w	r8, r2, #128	; 0x80
     9f8:	f04f 0c00 	mov.w	ip, #0
     9fc:	f800 c008 	strb.w	ip, [r0, r8]
     a00:	f857 0023 	ldr.w	r0, [r7, r3, lsl #2]
     a04:	f102 0ec0 	add.w	lr, r2, #192	; 0xc0
     a08:	f800 c00e 	strb.w	ip, [r0, lr]
     a0c:	f857 0023 	ldr.w	r0, [r7, r3, lsl #2]
     a10:	f102 0940 	add.w	r9, r2, #64	; 0x40
     a14:	f800 c009 	strb.w	ip, [r0, r9]
     a18:	f014 0f02 	tst.w	r4, #2
     a1c:	d004      	beq.n	a28 <gpio_msp432::setMode(unsigned short, unsigned short)+0x94>
     a1e:	f857 0023 	ldr.w	r0, [r7, r3, lsl #2]
     a22:	2701      	movs	r7, #1
     a24:	f800 7008 	strb.w	r7, [r0, r8]
     a28:	f014 0f04 	tst.w	r4, #4
     a2c:	d005      	beq.n	a3a <gpio_msp432::setMode(unsigned short, unsigned short)+0xa6>
     a2e:	18ef      	adds	r7, r5, r3
     a30:	f897 03fe 	ldrb.w	r0, [r7, #1022]	; 0x3fe
     a34:	4308      	orrs	r0, r1
     a36:	f887 03fe 	strb.w	r0, [r7, #1022]	; 0x3fe
     a3a:	f014 0f08 	tst.w	r4, #8
     a3e:	d00b      	beq.n	a58 <gpio_msp432::setMode(unsigned short, unsigned short)+0xc4>
     a40:	18ef      	adds	r7, r5, r3
     a42:	f897 03f4 	ldrb.w	r0, [r7, #1012]	; 0x3f4
     a46:	4308      	orrs	r0, r1
     a48:	f887 03f4 	strb.w	r0, [r7, #1012]	; 0x3f4
     a4c:	4827      	ldr	r0, [pc, #156]	; (aec <gpio_msp432::setMode(unsigned short, unsigned short)+0x158>)
     a4e:	f850 0023 	ldr.w	r0, [r0, r3, lsl #2]
     a52:	2701      	movs	r7, #1
     a54:	f800 7009 	strb.w	r7, [r0, r9]
     a58:	f014 0f10 	tst.w	r4, #16
     a5c:	d00f      	beq.n	a7e <gpio_msp432::setMode(unsigned short, unsigned short)+0xea>
     a5e:	18ef      	adds	r7, r5, r3
     a60:	f897 0408 	ldrb.w	r0, [r7, #1032]	; 0x408
     a64:	4308      	orrs	r0, r1
     a66:	f887 0408 	strb.w	r0, [r7, #1032]	; 0x408
     a6a:	4820      	ldr	r0, [pc, #128]	; (aec <gpio_msp432::setMode(unsigned short, unsigned short)+0x158>)
     a6c:	2701      	movs	r7, #1
     a6e:	f850 2023 	ldr.w	r2, [r0, r3, lsl #2]
     a72:	f802 700e 	strb.w	r7, [r2, lr]
     a76:	f850 0023 	ldr.w	r0, [r0, r3, lsl #2]
     a7a:	f800 7009 	strb.w	r7, [r0, r9]
     a7e:	f014 0f20 	tst.w	r4, #32
     a82:	d00b      	beq.n	a9c <gpio_msp432::setMode(unsigned short, unsigned short)+0x108>
     a84:	18e8      	adds	r0, r5, r3
     a86:	f890 2412 	ldrb.w	r2, [r0, #1042]	; 0x412
     a8a:	430a      	orrs	r2, r1
     a8c:	f880 2412 	strb.w	r2, [r0, #1042]	; 0x412
     a90:	4a16      	ldr	r2, [pc, #88]	; (aec <gpio_msp432::setMode(unsigned short, unsigned short)+0x158>)
     a92:	f852 3023 	ldr.w	r3, [r2, r3, lsl #2]
     a96:	2201      	movs	r2, #1
     a98:	f803 200e 	strb.w	r2, [r3, lr]
     a9c:	f014 0fc0 	tst.w	r4, #192	; 0xc0
     aa0:	d11b      	bne.n	ada <gpio_msp432::setMode(unsigned short, unsigned short)+0x146>
     aa2:	f414 7f80 	tst.w	r4, #256	; 0x100
     aa6:	d005      	beq.n	ab4 <gpio_msp432::setMode(unsigned short, unsigned short)+0x120>
     aa8:	682b      	ldr	r3, [r5, #0]
     aaa:	689b      	ldr	r3, [r3, #8]
     aac:	2201      	movs	r2, #1
     aae:	4631      	mov	r1, r6
     ab0:	4628      	mov	r0, r5
     ab2:	4798      	blx	r3
     ab4:	f414 7f00 	tst.w	r4, #512	; 0x200
     ab8:	d005      	beq.n	ac6 <gpio_msp432::setMode(unsigned short, unsigned short)+0x132>
     aba:	682b      	ldr	r3, [r5, #0]
     abc:	689b      	ldr	r3, [r3, #8]
     abe:	2200      	movs	r2, #0
     ac0:	4631      	mov	r1, r6
     ac2:	4628      	mov	r0, r5
     ac4:	4798      	blx	r3
     ac6:	e8bd 83f8 	ldmia.w	sp!, {r3, r4, r5, r6, r7, r8, r9, pc}
     aca:	4b09      	ldr	r3, [pc, #36]	; (af0 <gpio_msp432::setMode(unsigned short, unsigned short)+0x15c>)
     acc:	4a09      	ldr	r2, [pc, #36]	; (af4 <gpio_msp432::setMode(unsigned short, unsigned short)+0x160>)
     ace:	601a      	str	r2, [r3, #0]
     ad0:	4b09      	ldr	r3, [pc, #36]	; (af8 <gpio_msp432::setMode(unsigned short, unsigned short)+0x164>)
     ad2:	22b2      	movs	r2, #178	; 0xb2
     ad4:	601a      	str	r2, [r3, #0]
     ad6:	f7ff fd81 	bl	5dc <yahal_assert_func()>
     ada:	4b05      	ldr	r3, [pc, #20]	; (af0 <gpio_msp432::setMode(unsigned short, unsigned short)+0x15c>)
     adc:	4a05      	ldr	r2, [pc, #20]	; (af4 <gpio_msp432::setMode(unsigned short, unsigned short)+0x160>)
     ade:	601a      	str	r2, [r3, #0]
     ae0:	4b05      	ldr	r3, [pc, #20]	; (af8 <gpio_msp432::setMode(unsigned short, unsigned short)+0x164>)
     ae2:	22d4      	movs	r2, #212	; 0xd4
     ae4:	601a      	str	r2, [r3, #0]
     ae6:	f7ff fd79 	bl	5dc <yahal_assert_func()>
     aea:	bf00      	nop
     aec:	20000004 	.word	0x20000004
     af0:	200000a0 	.word	0x200000a0
     af4:	00002cc8 	.word	0x00002cc8
     af8:	200000ac 	.word	0x200000ac

00000afc <gpio_msp432::gpioMode(unsigned short, unsigned short)>:
     afc:	b570      	push	{r4, r5, r6, lr}
     afe:	4604      	mov	r4, r0
     b00:	460d      	mov	r5, r1
     b02:	4616      	mov	r6, r2
     b04:	2200      	movs	r2, #0
     b06:	f7ff ff19 	bl	93c <gpio_msp432::setSEL(unsigned short, unsigned char)>
     b0a:	4632      	mov	r2, r6
     b0c:	4629      	mov	r1, r5
     b0e:	4620      	mov	r0, r4
     b10:	f7ff ff40 	bl	994 <gpio_msp432::setMode(unsigned short, unsigned short)>
     b14:	bd70      	pop	{r4, r5, r6, pc}

00000b16 <std::function<void ()>::function(std::function<void ()> const&)>:
     b16:	b538      	push	{r3, r4, r5, lr}
     b18:	4604      	mov	r4, r0
     b1a:	2300      	movs	r3, #0
     b1c:	6003      	str	r3, [r0, #0]
     b1e:	6043      	str	r3, [r0, #4]
     b20:	6083      	str	r3, [r0, #8]
     b22:	60c3      	str	r3, [r0, #12]
     b24:	688b      	ldr	r3, [r1, #8]
     b26:	b133      	cbz	r3, b36 <std::function<void ()>::function(std::function<void ()> const&)+0x20>
     b28:	460d      	mov	r5, r1
     b2a:	2202      	movs	r2, #2
     b2c:	4798      	blx	r3
     b2e:	68eb      	ldr	r3, [r5, #12]
     b30:	60e3      	str	r3, [r4, #12]
     b32:	68ab      	ldr	r3, [r5, #8]
     b34:	60a3      	str	r3, [r4, #8]
     b36:	4620      	mov	r0, r4
     b38:	bd38      	pop	{r3, r4, r5, pc}

00000b3a <std::function<void ()>::operator=(decltype(nullptr))>:
     b3a:	b510      	push	{r4, lr}
     b3c:	4604      	mov	r4, r0
     b3e:	6883      	ldr	r3, [r0, #8]
     b40:	b12b      	cbz	r3, b4e <std::function<void ()>::operator=(decltype(nullptr))+0x14>
     b42:	2203      	movs	r2, #3
     b44:	4601      	mov	r1, r0
     b46:	4798      	blx	r3
     b48:	2300      	movs	r3, #0
     b4a:	60a3      	str	r3, [r4, #8]
     b4c:	60e3      	str	r3, [r4, #12]
     b4e:	4620      	mov	r0, r4
     b50:	bd10      	pop	{r4, pc}
	...

00000b54 <gpio_msp432::gpioDetachIrq(unsigned short)>:
     b54:	b570      	push	{r4, r5, r6, lr}
     b56:	0a0d      	lsrs	r5, r1, #8
     b58:	1e6b      	subs	r3, r5, #1
     b5a:	b2db      	uxtb	r3, r3
     b5c:	2b05      	cmp	r3, #5
     b5e:	d810      	bhi.n	b82 <gpio_msp432::gpioDetachIrq(unsigned short)+0x2e>
     b60:	4604      	mov	r4, r0
     b62:	b2ce      	uxtb	r6, r1
     b64:	2e07      	cmp	r6, #7
     b66:	d80c      	bhi.n	b82 <gpio_msp432::gpioDetachIrq(unsigned short)+0x2e>
     b68:	6803      	ldr	r3, [r0, #0]
     b6a:	69db      	ldr	r3, [r3, #28]
     b6c:	4798      	blx	r3
     b6e:	3d01      	subs	r5, #1
     b70:	eb06 06c5 	add.w	r6, r6, r5, lsl #3
     b74:	eb04 1006 	add.w	r0, r4, r6, lsl #4
     b78:	2100      	movs	r1, #0
     b7a:	3004      	adds	r0, #4
     b7c:	f7ff ffdd 	bl	b3a <std::function<void ()>::operator=(decltype(nullptr))>
     b80:	bd70      	pop	{r4, r5, r6, pc}
     b82:	4b04      	ldr	r3, [pc, #16]	; (b94 <gpio_msp432::gpioDetachIrq(unsigned short)+0x40>)
     b84:	4a04      	ldr	r2, [pc, #16]	; (b98 <gpio_msp432::gpioDetachIrq(unsigned short)+0x44>)
     b86:	601a      	str	r2, [r3, #0]
     b88:	4b04      	ldr	r3, [pc, #16]	; (b9c <gpio_msp432::gpioDetachIrq(unsigned short)+0x48>)
     b8a:	2288      	movs	r2, #136	; 0x88
     b8c:	601a      	str	r2, [r3, #0]
     b8e:	f7ff fd25 	bl	5dc <yahal_assert_func()>
     b92:	bf00      	nop
     b94:	200000a0 	.word	0x200000a0
     b98:	00002cc8 	.word	0x00002cc8
     b9c:	200000ac 	.word	0x200000ac

00000ba0 <std::function<void ()>::operator()() const>:
     ba0:	b508      	push	{r3, lr}
     ba2:	6883      	ldr	r3, [r0, #8]
     ba4:	b113      	cbz	r3, bac <std::function<void ()>::operator()() const+0xc>
     ba6:	68c3      	ldr	r3, [r0, #12]
     ba8:	4798      	blx	r3
     baa:	bd08      	pop	{r3, pc}
     bac:	f000 fda0 	bl	16f0 <__yahal_bad_function_call>

00000bb0 <gpio_msp432::handleIrq(unsigned char, unsigned char)>:
     bb0:	b5f8      	push	{r3, r4, r5, r6, r7, lr}
     bb2:	4604      	mov	r4, r0
     bb4:	4616      	mov	r6, r2
     bb6:	1e4d      	subs	r5, r1, #1
     bb8:	00ef      	lsls	r7, r5, #3
     bba:	eb02 00c5 	add.w	r0, r2, r5, lsl #3
     bbe:	eb04 1000 	add.w	r0, r4, r0, lsl #4
     bc2:	3004      	adds	r0, #4
     bc4:	f7ff ffec 	bl	ba0 <std::function<void ()>::operator()() const>
     bc8:	443c      	add	r4, r7
     bca:	4434      	add	r4, r6
     bcc:	f894 33c4 	ldrb.w	r3, [r4, #964]	; 0x3c4
     bd0:	b17b      	cbz	r3, bf2 <gpio_msp432::handleIrq(unsigned char, unsigned char)+0x42>
     bd2:	4908      	ldr	r1, [pc, #32]	; (bf4 <gpio_msp432::handleIrq(unsigned char, unsigned char)+0x44>)
     bd4:	f851 0025 	ldr.w	r0, [r1, r5, lsl #2]
     bd8:	00b3      	lsls	r3, r6, #2
     bda:	f503 7440 	add.w	r4, r3, #768	; 0x300
     bde:	f810 2026 	ldrb.w	r2, [r0, r6, lsl #2]
     be2:	b2d2      	uxtb	r2, r2
     be4:	5502      	strb	r2, [r0, r4]
     be6:	f851 2025 	ldr.w	r2, [r1, r5, lsl #2]
     bea:	f503 7360 	add.w	r3, r3, #896	; 0x380
     bee:	2100      	movs	r1, #0
     bf0:	54d1      	strb	r1, [r2, r3]
     bf2:	bdf8      	pop	{r3, r4, r5, r6, r7, pc}
     bf4:	20000004 	.word	0x20000004

00000bf8 <PORT1_IRQHandler>:
     bf8:	b508      	push	{r3, lr}
     bfa:	4b06      	ldr	r3, [pc, #24]	; (c14 <PORT1_IRQHandler+0x1c>)
     bfc:	89db      	ldrh	r3, [r3, #14]
     bfe:	f3c3 034e 	ubfx	r3, r3, #1, #15
     c02:	b903      	cbnz	r3, c06 <PORT1_IRQHandler+0xe>
     c04:	bd08      	pop	{r3, pc}
     c06:	1e5a      	subs	r2, r3, #1
     c08:	b2d2      	uxtb	r2, r2
     c0a:	2101      	movs	r1, #1
     c0c:	4802      	ldr	r0, [pc, #8]	; (c18 <PORT1_IRQHandler+0x20>)
     c0e:	f7ff ffcf 	bl	bb0 <gpio_msp432::handleIrq(unsigned char, unsigned char)>
     c12:	e7f7      	b.n	c04 <PORT1_IRQHandler+0xc>
     c14:	40004c00 	.word	0x40004c00
     c18:	200000b4 	.word	0x200000b4

00000c1c <PORT2_IRQHandler>:
     c1c:	b508      	push	{r3, lr}
     c1e:	4b06      	ldr	r3, [pc, #24]	; (c38 <PORT2_IRQHandler+0x1c>)
     c20:	8bdb      	ldrh	r3, [r3, #30]
     c22:	f3c3 034e 	ubfx	r3, r3, #1, #15
     c26:	b903      	cbnz	r3, c2a <PORT2_IRQHandler+0xe>
     c28:	bd08      	pop	{r3, pc}
     c2a:	1e5a      	subs	r2, r3, #1
     c2c:	b2d2      	uxtb	r2, r2
     c2e:	2102      	movs	r1, #2
     c30:	4802      	ldr	r0, [pc, #8]	; (c3c <PORT2_IRQHandler+0x20>)
     c32:	f7ff ffbd 	bl	bb0 <gpio_msp432::handleIrq(unsigned char, unsigned char)>
     c36:	e7f7      	b.n	c28 <PORT2_IRQHandler+0xc>
     c38:	40004c00 	.word	0x40004c00
     c3c:	200000b4 	.word	0x200000b4

00000c40 <PORT3_IRQHandler>:
     c40:	b508      	push	{r3, lr}
     c42:	4b06      	ldr	r3, [pc, #24]	; (c5c <PORT3_IRQHandler+0x1c>)
     c44:	8ddb      	ldrh	r3, [r3, #46]	; 0x2e
     c46:	f3c3 034e 	ubfx	r3, r3, #1, #15
     c4a:	b903      	cbnz	r3, c4e <PORT3_IRQHandler+0xe>
     c4c:	bd08      	pop	{r3, pc}
     c4e:	1e5a      	subs	r2, r3, #1
     c50:	b2d2      	uxtb	r2, r2
     c52:	2103      	movs	r1, #3
     c54:	4802      	ldr	r0, [pc, #8]	; (c60 <PORT3_IRQHandler+0x20>)
     c56:	f7ff ffab 	bl	bb0 <gpio_msp432::handleIrq(unsigned char, unsigned char)>
     c5a:	e7f7      	b.n	c4c <PORT3_IRQHandler+0xc>
     c5c:	40004c00 	.word	0x40004c00
     c60:	200000b4 	.word	0x200000b4

00000c64 <PORT4_IRQHandler>:
     c64:	b508      	push	{r3, lr}
     c66:	4b06      	ldr	r3, [pc, #24]	; (c80 <PORT4_IRQHandler+0x1c>)
     c68:	8fdb      	ldrh	r3, [r3, #62]	; 0x3e
     c6a:	f3c3 034e 	ubfx	r3, r3, #1, #15
     c6e:	b903      	cbnz	r3, c72 <PORT4_IRQHandler+0xe>
     c70:	bd08      	pop	{r3, pc}
     c72:	1e5a      	subs	r2, r3, #1
     c74:	b2d2      	uxtb	r2, r2
     c76:	2104      	movs	r1, #4
     c78:	4802      	ldr	r0, [pc, #8]	; (c84 <PORT4_IRQHandler+0x20>)
     c7a:	f7ff ff99 	bl	bb0 <gpio_msp432::handleIrq(unsigned char, unsigned char)>
     c7e:	e7f7      	b.n	c70 <PORT4_IRQHandler+0xc>
     c80:	40004c00 	.word	0x40004c00
     c84:	200000b4 	.word	0x200000b4

00000c88 <PORT5_IRQHandler>:
     c88:	b508      	push	{r3, lr}
     c8a:	4b07      	ldr	r3, [pc, #28]	; (ca8 <PORT5_IRQHandler+0x20>)
     c8c:	f8b3 304e 	ldrh.w	r3, [r3, #78]	; 0x4e
     c90:	f3c3 034e 	ubfx	r3, r3, #1, #15
     c94:	b903      	cbnz	r3, c98 <PORT5_IRQHandler+0x10>
     c96:	bd08      	pop	{r3, pc}
     c98:	1e5a      	subs	r2, r3, #1
     c9a:	b2d2      	uxtb	r2, r2
     c9c:	2105      	movs	r1, #5
     c9e:	4803      	ldr	r0, [pc, #12]	; (cac <PORT5_IRQHandler+0x24>)
     ca0:	f7ff ff86 	bl	bb0 <gpio_msp432::handleIrq(unsigned char, unsigned char)>
     ca4:	e7f7      	b.n	c96 <PORT5_IRQHandler+0xe>
     ca6:	bf00      	nop
     ca8:	40004c00 	.word	0x40004c00
     cac:	200000b4 	.word	0x200000b4

00000cb0 <PORT6_IRQHandler>:
     cb0:	b508      	push	{r3, lr}
     cb2:	4b07      	ldr	r3, [pc, #28]	; (cd0 <PORT6_IRQHandler+0x20>)
     cb4:	f8b3 305e 	ldrh.w	r3, [r3, #94]	; 0x5e
     cb8:	f3c3 034e 	ubfx	r3, r3, #1, #15
     cbc:	b903      	cbnz	r3, cc0 <PORT6_IRQHandler+0x10>
     cbe:	bd08      	pop	{r3, pc}
     cc0:	1e5a      	subs	r2, r3, #1
     cc2:	b2d2      	uxtb	r2, r2
     cc4:	2106      	movs	r1, #6
     cc6:	4803      	ldr	r0, [pc, #12]	; (cd4 <PORT6_IRQHandler+0x24>)
     cc8:	f7ff ff72 	bl	bb0 <gpio_msp432::handleIrq(unsigned char, unsigned char)>
     ccc:	e7f7      	b.n	cbe <PORT6_IRQHandler+0xe>
     cce:	bf00      	nop
     cd0:	40004c00 	.word	0x40004c00
     cd4:	200000b4 	.word	0x200000b4

00000cd8 <std::enable_if<std::__and_<std::__not_<std::__is_tuple_like<std::_Any_data> >, std::is_move_constructible<std::_Any_data>, std::is_move_assignable<std::_Any_data> >::value, void>::type std::swap<std::_Any_data>(std::_Any_data&, std::_Any_data&)>:
     cd8:	b082      	sub	sp, #8
     cda:	4602      	mov	r2, r0
     cdc:	460b      	mov	r3, r1
     cde:	46ec      	mov	ip, sp
     ce0:	e9d0 0100 	ldrd	r0, r1, [r0]
     ce4:	e88c 0003 	stmia.w	ip, {r0, r1}
     ce8:	e893 0003 	ldmia.w	r3, {r0, r1}
     cec:	e882 0003 	stmia.w	r2, {r0, r1}
     cf0:	e89c 0003 	ldmia.w	ip, {r0, r1}
     cf4:	e883 0003 	stmia.w	r3, {r0, r1}
     cf8:	b002      	add	sp, #8
     cfa:	4770      	bx	lr

00000cfc <std::function<void ()>::swap(std::function<void ()>&)>:
     cfc:	b538      	push	{r3, r4, r5, lr}
     cfe:	4605      	mov	r5, r0
     d00:	460c      	mov	r4, r1
     d02:	f7ff ffe9 	bl	cd8 <std::enable_if<std::__and_<std::__not_<std::__is_tuple_like<std::_Any_data> >, std::is_move_constructible<std::_Any_data>, std::is_move_assignable<std::_Any_data> >::value, void>::type std::swap<std::_Any_data>(std::_Any_data&, std::_Any_data&)>
     d06:	68ab      	ldr	r3, [r5, #8]
     d08:	68a2      	ldr	r2, [r4, #8]
     d0a:	60aa      	str	r2, [r5, #8]
     d0c:	60a3      	str	r3, [r4, #8]
     d0e:	68eb      	ldr	r3, [r5, #12]
     d10:	68e2      	ldr	r2, [r4, #12]
     d12:	60ea      	str	r2, [r5, #12]
     d14:	60e3      	str	r3, [r4, #12]
     d16:	bd38      	pop	{r3, r4, r5, pc}

00000d18 <std::function<void ()>::operator=(std::function<void ()> const&)>:
     d18:	b510      	push	{r4, lr}
     d1a:	b084      	sub	sp, #16
     d1c:	4604      	mov	r4, r0
     d1e:	4668      	mov	r0, sp
     d20:	f7ff fef9 	bl	b16 <std::function<void ()>::function(std::function<void ()> const&)>
     d24:	4621      	mov	r1, r4
     d26:	4668      	mov	r0, sp
     d28:	f7ff ffe8 	bl	cfc <std::function<void ()>::swap(std::function<void ()>&)>
     d2c:	4668      	mov	r0, sp
     d2e:	f7ff fd9b 	bl	868 <std::_Function_base::~_Function_base()>
     d32:	4620      	mov	r0, r4
     d34:	b004      	add	sp, #16
     d36:	bd10      	pop	{r4, pc}

00000d38 <gpio_msp432::gpioAttachIrq(unsigned short, unsigned short, std::function<void ()>)>:
     d38:	b5f8      	push	{r3, r4, r5, r6, r7, lr}
     d3a:	460f      	mov	r7, r1
     d3c:	4619      	mov	r1, r3
     d3e:	0a3d      	lsrs	r5, r7, #8
     d40:	1e6b      	subs	r3, r5, #1
     d42:	b2db      	uxtb	r3, r3
     d44:	2b05      	cmp	r3, #5
     d46:	d811      	bhi.n	d6c <gpio_msp432::gpioAttachIrq(unsigned short, unsigned short, std::function<void ()>)+0x34>
     d48:	4606      	mov	r6, r0
     d4a:	b2f8      	uxtb	r0, r7
     d4c:	2807      	cmp	r0, #7
     d4e:	d80d      	bhi.n	d6c <gpio_msp432::gpioAttachIrq(unsigned short, unsigned short, std::function<void ()>)+0x34>
     d50:	2a02      	cmp	r2, #2
     d52:	d02c      	beq.n	dae <gpio_msp432::gpioAttachIrq(unsigned short, unsigned short, std::function<void ()>)+0x76>
     d54:	2a03      	cmp	r2, #3
     d56:	d03c      	beq.n	dd2 <gpio_msp432::gpioAttachIrq(unsigned short, unsigned short, std::function<void ()>)+0x9a>
     d58:	2a01      	cmp	r2, #1
     d5a:	d00f      	beq.n	d7c <gpio_msp432::gpioAttachIrq(unsigned short, unsigned short, std::function<void ()>)+0x44>
     d5c:	4b30      	ldr	r3, [pc, #192]	; (e20 <gpio_msp432::gpioAttachIrq(unsigned short, unsigned short, std::function<void ()>)+0xe8>)
     d5e:	4a31      	ldr	r2, [pc, #196]	; (e24 <gpio_msp432::gpioAttachIrq(unsigned short, unsigned short, std::function<void ()>)+0xec>)
     d60:	601a      	str	r2, [r3, #0]
     d62:	4b31      	ldr	r3, [pc, #196]	; (e28 <gpio_msp432::gpioAttachIrq(unsigned short, unsigned short, std::function<void ()>)+0xf0>)
     d64:	2279      	movs	r2, #121	; 0x79
     d66:	601a      	str	r2, [r3, #0]
     d68:	f7ff fc38 	bl	5dc <yahal_assert_func()>
     d6c:	4b2c      	ldr	r3, [pc, #176]	; (e20 <gpio_msp432::gpioAttachIrq(unsigned short, unsigned short, std::function<void ()>)+0xe8>)
     d6e:	4a2d      	ldr	r2, [pc, #180]	; (e24 <gpio_msp432::gpioAttachIrq(unsigned short, unsigned short, std::function<void ()>)+0xec>)
     d70:	601a      	str	r2, [r3, #0]
     d72:	4b2d      	ldr	r3, [pc, #180]	; (e28 <gpio_msp432::gpioAttachIrq(unsigned short, unsigned short, std::function<void ()>)+0xf0>)
     d74:	2267      	movs	r2, #103	; 0x67
     d76:	601a      	str	r2, [r3, #0]
     d78:	f7ff fc30 	bl	5dc <yahal_assert_func()>
     d7c:	1e6b      	subs	r3, r5, #1
     d7e:	4a2b      	ldr	r2, [pc, #172]	; (e2c <gpio_msp432::gpioAttachIrq(unsigned short, unsigned short, std::function<void ()>)+0xf4>)
     d80:	f852 c023 	ldr.w	ip, [r2, r3, lsl #2]
     d84:	0082      	lsls	r2, r0, #2
     d86:	f502 7240 	add.w	r2, r2, #768	; 0x300
     d8a:	2400      	movs	r4, #0
     d8c:	f80c 4002 	strb.w	r4, [ip, r2]
     d90:	eb06 03c3 	add.w	r3, r6, r3, lsl #3
     d94:	4403      	add	r3, r0
     d96:	f883 43c4 	strb.w	r4, [r3, #964]	; 0x3c4
     d9a:	3d01      	subs	r5, #1
     d9c:	eb00 00c5 	add.w	r0, r0, r5, lsl #3
     da0:	eb06 1000 	add.w	r0, r6, r0, lsl #4
     da4:	3004      	adds	r0, #4
     da6:	f7ff ffb7 	bl	d18 <std::function<void ()>::operator=(std::function<void ()> const&)>
     daa:	2300      	movs	r3, #0
     dac:	e02f      	b.n	e0e <gpio_msp432::gpioAttachIrq(unsigned short, unsigned short, std::function<void ()>)+0xd6>
     dae:	1e6b      	subs	r3, r5, #1
     db0:	4a1e      	ldr	r2, [pc, #120]	; (e2c <gpio_msp432::gpioAttachIrq(unsigned short, unsigned short, std::function<void ()>)+0xf4>)
     db2:	f852 4023 	ldr.w	r4, [r2, r3, lsl #2]
     db6:	0082      	lsls	r2, r0, #2
     db8:	f502 7240 	add.w	r2, r2, #768	; 0x300
     dbc:	f04f 0c01 	mov.w	ip, #1
     dc0:	f804 c002 	strb.w	ip, [r4, r2]
     dc4:	eb06 03c3 	add.w	r3, r6, r3, lsl #3
     dc8:	4403      	add	r3, r0
     dca:	2200      	movs	r2, #0
     dcc:	f883 23c4 	strb.w	r2, [r3, #964]	; 0x3c4
     dd0:	e7e3      	b.n	d9a <gpio_msp432::gpioAttachIrq(unsigned short, unsigned short, std::function<void ()>)+0x62>
     dd2:	1e6b      	subs	r3, r5, #1
     dd4:	4a15      	ldr	r2, [pc, #84]	; (e2c <gpio_msp432::gpioAttachIrq(unsigned short, unsigned short, std::function<void ()>)+0xf4>)
     dd6:	f852 c023 	ldr.w	ip, [r2, r3, lsl #2]
     dda:	0082      	lsls	r2, r0, #2
     ddc:	f502 7240 	add.w	r2, r2, #768	; 0x300
     de0:	f81c 4020 	ldrb.w	r4, [ip, r0, lsl #2]
     de4:	b2e4      	uxtb	r4, r4
     de6:	f80c 4002 	strb.w	r4, [ip, r2]
     dea:	eb06 03c3 	add.w	r3, r6, r3, lsl #3
     dee:	4403      	add	r3, r0
     df0:	2201      	movs	r2, #1
     df2:	f883 23c4 	strb.w	r2, [r3, #964]	; 0x3c4
     df6:	e7d0      	b.n	d9a <gpio_msp432::gpioAttachIrq(unsigned short, unsigned short, std::function<void ()>)+0x62>
     df8:	4a0c      	ldr	r2, [pc, #48]	; (e2c <gpio_msp432::gpioAttachIrq(unsigned short, unsigned short, std::function<void ()>)+0xf4>)
     dfa:	f852 4025 	ldr.w	r4, [r2, r5, lsl #2]
     dfe:	009a      	lsls	r2, r3, #2
     e00:	f502 7260 	add.w	r2, r2, #896	; 0x380
     e04:	f04f 0c00 	mov.w	ip, #0
     e08:	f804 c002 	strb.w	ip, [r4, r2]
     e0c:	3301      	adds	r3, #1
     e0e:	2b07      	cmp	r3, #7
     e10:	d9f2      	bls.n	df8 <gpio_msp432::gpioAttachIrq(unsigned short, unsigned short, std::function<void ()>)+0xc0>
     e12:	6833      	ldr	r3, [r6, #0]
     e14:	699b      	ldr	r3, [r3, #24]
     e16:	4639      	mov	r1, r7
     e18:	4630      	mov	r0, r6
     e1a:	4798      	blx	r3
     e1c:	bdf8      	pop	{r3, r4, r5, r6, r7, pc}
     e1e:	bf00      	nop
     e20:	200000a0 	.word	0x200000a0
     e24:	00002cc8 	.word	0x00002cc8
     e28:	200000ac 	.word	0x200000ac
     e2c:	20000004 	.word	0x20000004

00000e30 <_GLOBAL__sub_I_port_base>:
     e30:	b508      	push	{r3, lr}
     e32:	f64f 71ff 	movw	r1, #65535	; 0xffff
     e36:	2001      	movs	r0, #1
     e38:	f7ff fd68 	bl	90c <__static_initialization_and_destruction_0(int, int)>
     e3c:	bd08      	pop	{r3, pc}

00000e3e <AES256_IRQHandler>:
     e3e:	e7fe      	b.n	e3e <AES256_IRQHandler>

00000e40 <Reset_Handler>:
     e40:	b508      	push	{r3, lr}
     e42:	f000 fbc1 	bl	15c8 <SystemInit>
     e46:	4a12      	ldr	r2, [pc, #72]	; (e90 <Reset_Handler+0x50>)
     e48:	e00a      	b.n	e60 <Reset_Handler+0x20>
     e4a:	6810      	ldr	r0, [r2, #0]
     e4c:	6851      	ldr	r1, [r2, #4]
     e4e:	f850 0023 	ldr.w	r0, [r0, r3, lsl #2]
     e52:	f841 0023 	str.w	r0, [r1, r3, lsl #2]
     e56:	3301      	adds	r3, #1
     e58:	6891      	ldr	r1, [r2, #8]
     e5a:	428b      	cmp	r3, r1
     e5c:	d3f5      	bcc.n	e4a <Reset_Handler+0xa>
     e5e:	320c      	adds	r2, #12
     e60:	4b0c      	ldr	r3, [pc, #48]	; (e94 <Reset_Handler+0x54>)
     e62:	429a      	cmp	r2, r3
     e64:	d201      	bcs.n	e6a <Reset_Handler+0x2a>
     e66:	2300      	movs	r3, #0
     e68:	e7f6      	b.n	e58 <Reset_Handler+0x18>
     e6a:	4a0b      	ldr	r2, [pc, #44]	; (e98 <Reset_Handler+0x58>)
     e6c:	e008      	b.n	e80 <Reset_Handler+0x40>
     e6e:	6811      	ldr	r1, [r2, #0]
     e70:	2000      	movs	r0, #0
     e72:	f841 0023 	str.w	r0, [r1, r3, lsl #2]
     e76:	3301      	adds	r3, #1
     e78:	6851      	ldr	r1, [r2, #4]
     e7a:	428b      	cmp	r3, r1
     e7c:	d3f7      	bcc.n	e6e <Reset_Handler+0x2e>
     e7e:	3208      	adds	r2, #8
     e80:	4b06      	ldr	r3, [pc, #24]	; (e9c <Reset_Handler+0x5c>)
     e82:	429a      	cmp	r2, r3
     e84:	d201      	bcs.n	e8a <Reset_Handler+0x4a>
     e86:	2300      	movs	r3, #0
     e88:	e7f6      	b.n	e78 <Reset_Handler+0x38>
     e8a:	f001 fe3f 	bl	2b0c <_mainCRTStartup>
     e8e:	bf00      	nop
     e90:	00002e78 	.word	0x00002e78
     e94:	00002e84 	.word	0x00002e84
     e98:	00002e88 	.word	0x00002e88
     e9c:	00002e90 	.word	0x00002e90

00000ea0 <__NVIC_EnableIRQ>:
     ea0:	2800      	cmp	r0, #0
     ea2:	db07      	blt.n	eb4 <__NVIC_EnableIRQ+0x14>
     ea4:	f000 021f 	and.w	r2, r0, #31
     ea8:	0940      	lsrs	r0, r0, #5
     eaa:	2301      	movs	r3, #1
     eac:	4093      	lsls	r3, r2
     eae:	4a02      	ldr	r2, [pc, #8]	; (eb8 <__NVIC_EnableIRQ+0x18>)
     eb0:	f842 3020 	str.w	r3, [r2, r0, lsl #2]
     eb4:	4770      	bx	lr
     eb6:	bf00      	nop
     eb8:	e000e100 	.word	0xe000e100

00000ebc <__NVIC_DisableIRQ>:
     ebc:	2800      	cmp	r0, #0
     ebe:	db0c      	blt.n	eda <__NVIC_DisableIRQ+0x1e>
     ec0:	f000 021f 	and.w	r2, r0, #31
     ec4:	0940      	lsrs	r0, r0, #5
     ec6:	2301      	movs	r3, #1
     ec8:	4093      	lsls	r3, r2
     eca:	3020      	adds	r0, #32
     ecc:	4a03      	ldr	r2, [pc, #12]	; (edc <__NVIC_DisableIRQ+0x20>)
     ece:	f842 3020 	str.w	r3, [r2, r0, lsl #2]
     ed2:	f3bf 8f4f 	dsb	sy
     ed6:	f3bf 8f6f 	isb	sy
     eda:	4770      	bx	lr
     edc:	e000e100 	.word	0xe000e100

00000ee0 <yahal_assert_func()>:
     ee0:	e7fe      	b.n	ee0 <yahal_assert_func()>

00000ee2 <uart_msp432::uartMode(unsigned short)>:
     ee2:	8201      	strh	r1, [r0, #16]
     ee4:	6882      	ldr	r2, [r0, #8]
     ee6:	8813      	ldrh	r3, [r2, #0]
     ee8:	b29b      	uxth	r3, r3
     eea:	f043 0301 	orr.w	r3, r3, #1
     eee:	8013      	strh	r3, [r2, #0]
     ef0:	f011 0f01 	tst.w	r1, #1
     ef4:	d005      	beq.n	f02 <uart_msp432::uartMode(unsigned short)+0x20>
     ef6:	6882      	ldr	r2, [r0, #8]
     ef8:	8813      	ldrh	r3, [r2, #0]
     efa:	b29b      	uxth	r3, r3
     efc:	f443 5380 	orr.w	r3, r3, #4096	; 0x1000
     f00:	8013      	strh	r3, [r2, #0]
     f02:	f011 0f02 	tst.w	r1, #2
     f06:	d006      	beq.n	f16 <uart_msp432::uartMode(unsigned short)+0x34>
     f08:	6882      	ldr	r2, [r0, #8]
     f0a:	8813      	ldrh	r3, [r2, #0]
     f0c:	b29b      	uxth	r3, r3
     f0e:	f423 5380 	bic.w	r3, r3, #4096	; 0x1000
     f12:	b29b      	uxth	r3, r3
     f14:	8013      	strh	r3, [r2, #0]
     f16:	f011 0f04 	tst.w	r1, #4
     f1a:	d004      	beq.n	f26 <uart_msp432::uartMode(unsigned short)+0x44>
     f1c:	6882      	ldr	r2, [r0, #8]
     f1e:	8813      	ldrh	r3, [r2, #0]
     f20:	f3c3 030e 	ubfx	r3, r3, #0, #15
     f24:	8013      	strh	r3, [r2, #0]
     f26:	f011 0f08 	tst.w	r1, #8
     f2a:	d00d      	beq.n	f48 <uart_msp432::uartMode(unsigned short)+0x66>
     f2c:	6882      	ldr	r2, [r0, #8]
     f2e:	8813      	ldrh	r3, [r2, #0]
     f30:	ea6f 4343 	mvn.w	r3, r3, lsl #17
     f34:	ea6f 4353 	mvn.w	r3, r3, lsr #17
     f38:	b29b      	uxth	r3, r3
     f3a:	8013      	strh	r3, [r2, #0]
     f3c:	6882      	ldr	r2, [r0, #8]
     f3e:	8813      	ldrh	r3, [r2, #0]
     f40:	b29b      	uxth	r3, r3
     f42:	f443 4380 	orr.w	r3, r3, #16384	; 0x4000
     f46:	8013      	strh	r3, [r2, #0]
     f48:	f011 0f10 	tst.w	r1, #16
     f4c:	d00e      	beq.n	f6c <uart_msp432::uartMode(unsigned short)+0x8a>
     f4e:	6882      	ldr	r2, [r0, #8]
     f50:	8813      	ldrh	r3, [r2, #0]
     f52:	ea6f 4343 	mvn.w	r3, r3, lsl #17
     f56:	ea6f 4353 	mvn.w	r3, r3, lsr #17
     f5a:	b29b      	uxth	r3, r3
     f5c:	8013      	strh	r3, [r2, #0]
     f5e:	6882      	ldr	r2, [r0, #8]
     f60:	8813      	ldrh	r3, [r2, #0]
     f62:	b29b      	uxth	r3, r3
     f64:	f423 4380 	bic.w	r3, r3, #16384	; 0x4000
     f68:	b29b      	uxth	r3, r3
     f6a:	8013      	strh	r3, [r2, #0]
     f6c:	f011 0f20 	tst.w	r1, #32
     f70:	d006      	beq.n	f80 <uart_msp432::uartMode(unsigned short)+0x9e>
     f72:	6882      	ldr	r2, [r0, #8]
     f74:	8813      	ldrh	r3, [r2, #0]
     f76:	b29b      	uxth	r3, r3
     f78:	f423 6300 	bic.w	r3, r3, #2048	; 0x800
     f7c:	b29b      	uxth	r3, r3
     f7e:	8013      	strh	r3, [r2, #0]
     f80:	f011 0f40 	tst.w	r1, #64	; 0x40
     f84:	d005      	beq.n	f92 <uart_msp432::uartMode(unsigned short)+0xb0>
     f86:	6882      	ldr	r2, [r0, #8]
     f88:	8813      	ldrh	r3, [r2, #0]
     f8a:	b29b      	uxth	r3, r3
     f8c:	f443 6300 	orr.w	r3, r3, #2048	; 0x800
     f90:	8013      	strh	r3, [r2, #0]
     f92:	6882      	ldr	r2, [r0, #8]
     f94:	8813      	ldrh	r3, [r2, #0]
     f96:	b29b      	uxth	r3, r3
     f98:	f023 0301 	bic.w	r3, r3, #1
     f9c:	b29b      	uxth	r3, r3
     f9e:	8013      	strh	r3, [r2, #0]
     fa0:	4770      	bx	lr
	...

00000fa4 <uart_msp432::setBaudrate(unsigned long)>:
     fa4:	60c1      	str	r1, [r0, #12]
     fa6:	4b04      	ldr	r3, [pc, #16]	; (fb8 <uart_msp432::setBaudrate(unsigned long)+0x14>)
     fa8:	681b      	ldr	r3, [r3, #0]
     faa:	fbb3 f1f1 	udiv	r1, r3, r1
     fae:	6883      	ldr	r3, [r0, #8]
     fb0:	b289      	uxth	r1, r1
     fb2:	80d9      	strh	r1, [r3, #6]
     fb4:	4770      	bx	lr
     fb6:	bf00      	nop
     fb8:	2000002c 	.word	0x2000002c

00000fbc <uart_msp432::uartEnableIrq()>:
     fbc:	6883      	ldr	r3, [r0, #8]
     fbe:	2201      	movs	r2, #1
     fc0:	835a      	strh	r2, [r3, #26]
     fc2:	4770      	bx	lr

00000fc4 <uart_msp432::uartDisableIrq()>:
     fc4:	6883      	ldr	r3, [r0, #8]
     fc6:	2200      	movs	r2, #0
     fc8:	835a      	strh	r2, [r3, #26]
     fca:	4770      	bx	lr

00000fcc <uart_msp432::~uart_msp432()>:
     fcc:	b538      	push	{r3, r4, r5, lr}
     fce:	4604      	mov	r4, r0
     fd0:	4b11      	ldr	r3, [pc, #68]	; (1018 <uart_msp432::~uart_msp432()+0x4c>)
     fd2:	6003      	str	r3, [r0, #0]
     fd4:	7903      	ldrb	r3, [r0, #4]
     fd6:	b1db      	cbz	r3, 1010 <uart_msp432::~uart_msp432()+0x44>
     fd8:	68a3      	ldr	r3, [r4, #8]
     fda:	895a      	ldrh	r2, [r3, #10]
     fdc:	f012 0f01 	tst.w	r2, #1
     fe0:	d1fa      	bne.n	fd8 <uart_msp432::~uart_msp432()+0xc>
     fe2:	2201      	movs	r2, #1
     fe4:	801a      	strh	r2, [r3, #0]
     fe6:	7ca1      	ldrb	r1, [r4, #18]
     fe8:	7ce3      	ldrb	r3, [r4, #19]
     fea:	4d0c      	ldr	r5, [pc, #48]	; (101c <uart_msp432::~uart_msp432()+0x50>)
     fec:	2200      	movs	r2, #0
     fee:	ea43 2101 	orr.w	r1, r3, r1, lsl #8
     ff2:	4628      	mov	r0, r5
     ff4:	f7ff fca2 	bl	93c <gpio_msp432::setSEL(unsigned short, unsigned char)>
     ff8:	7ca1      	ldrb	r1, [r4, #18]
     ffa:	7d23      	ldrb	r3, [r4, #20]
     ffc:	2200      	movs	r2, #0
     ffe:	ea43 2101 	orr.w	r1, r3, r1, lsl #8
    1002:	4628      	mov	r0, r5
    1004:	f7ff fc9a 	bl	93c <gpio_msp432::setSEL(unsigned short, unsigned char)>
    1008:	4b05      	ldr	r3, [pc, #20]	; (1020 <uart_msp432::~uart_msp432()+0x54>)
    100a:	6023      	str	r3, [r4, #0]
    100c:	4620      	mov	r0, r4
    100e:	bd38      	pop	{r3, r4, r5, pc}
    1010:	4b03      	ldr	r3, [pc, #12]	; (1020 <uart_msp432::~uart_msp432()+0x54>)
    1012:	6003      	str	r3, [r0, #0]
    1014:	e7fa      	b.n	100c <uart_msp432::~uart_msp432()+0x40>
    1016:	bf00      	nop
    1018:	00002e0c 	.word	0x00002e0c
    101c:	200000b4 	.word	0x200000b4
    1020:	00002dd8 	.word	0x00002dd8

00001024 <uart_msp432::~uart_msp432()>:
    1024:	b510      	push	{r4, lr}
    1026:	4604      	mov	r4, r0
    1028:	f7ff ffd0 	bl	fcc <uart_msp432::~uart_msp432()>
    102c:	2118      	movs	r1, #24
    102e:	4620      	mov	r0, r4
    1030:	f000 fd0f 	bl	1a52 <operator delete(void*, unsigned int)>
    1034:	4620      	mov	r0, r4
    1036:	bd10      	pop	{r4, pc}

00001038 <__static_initialization_and_destruction_0(int, int)>:
    1038:	2801      	cmp	r0, #1
    103a:	d000      	beq.n	103e <__static_initialization_and_destruction_0(int, int)+0x6>
    103c:	4770      	bx	lr
    103e:	b508      	push	{r3, lr}
    1040:	f64f 73ff 	movw	r3, #65535	; 0xffff
    1044:	4299      	cmp	r1, r3
    1046:	d000      	beq.n	104a <__static_initialization_and_destruction_0(int, int)+0x12>
    1048:	bd08      	pop	{r3, pc}
    104a:	4b0d      	ldr	r3, [pc, #52]	; (1080 <__static_initialization_and_destruction_0(int, int)+0x48>)
    104c:	681a      	ldr	r2, [r3, #0]
    104e:	4b0d      	ldr	r3, [pc, #52]	; (1084 <__static_initialization_and_destruction_0(int, int)+0x4c>)
    1050:	601a      	str	r2, [r3, #0]
    1052:	4b0d      	ldr	r3, [pc, #52]	; (1088 <__static_initialization_and_destruction_0(int, int)+0x50>)
    1054:	2000      	movs	r0, #0
    1056:	6018      	str	r0, [r3, #0]
    1058:	6058      	str	r0, [r3, #4]
    105a:	6098      	str	r0, [r3, #8]
    105c:	60d8      	str	r0, [r3, #12]
    105e:	6118      	str	r0, [r3, #16]
    1060:	6158      	str	r0, [r3, #20]
    1062:	6198      	str	r0, [r3, #24]
    1064:	61d8      	str	r0, [r3, #28]
    1066:	6218      	str	r0, [r3, #32]
    1068:	6258      	str	r0, [r3, #36]	; 0x24
    106a:	6298      	str	r0, [r3, #40]	; 0x28
    106c:	62d8      	str	r0, [r3, #44]	; 0x2c
    106e:	6318      	str	r0, [r3, #48]	; 0x30
    1070:	6358      	str	r0, [r3, #52]	; 0x34
    1072:	6398      	str	r0, [r3, #56]	; 0x38
    1074:	63d8      	str	r0, [r3, #60]	; 0x3c
    1076:	4a05      	ldr	r2, [pc, #20]	; (108c <__static_initialization_and_destruction_0(int, int)+0x54>)
    1078:	4905      	ldr	r1, [pc, #20]	; (1090 <__static_initialization_and_destruction_0(int, int)+0x58>)
    107a:	f000 fce5 	bl	1a48 <__aeabi_atexit>
    107e:	e7e3      	b.n	1048 <__static_initialization_and_destruction_0(int, int)+0x10>
    1080:	20000030 	.word	0x20000030
    1084:	20000098 	.word	0x20000098
    1088:	200004d0 	.word	0x200004d0
    108c:	20000000 	.word	0x20000000
    1090:	00001095 	.word	0x00001095

00001094 <__tcf_0>:
    1094:	b510      	push	{r4, lr}
    1096:	4c05      	ldr	r4, [pc, #20]	; (10ac <__tcf_0+0x18>)
    1098:	e003      	b.n	10a2 <__tcf_0+0xe>
    109a:	3c10      	subs	r4, #16
    109c:	4620      	mov	r0, r4
    109e:	f7ff fbe3 	bl	868 <std::_Function_base::~_Function_base()>
    10a2:	4b03      	ldr	r3, [pc, #12]	; (10b0 <__tcf_0+0x1c>)
    10a4:	429c      	cmp	r4, r3
    10a6:	d1f8      	bne.n	109a <__tcf_0+0x6>
    10a8:	bd10      	pop	{r4, pc}
    10aa:	bf00      	nop
    10ac:	20000510 	.word	0x20000510
    10b0:	200004d0 	.word	0x200004d0

000010b4 <uart_msp432::uart_msp432(EUSCI_A_Type*, unsigned long, unsigned short)>:
    10b4:	b510      	push	{r4, lr}
    10b6:	4604      	mov	r4, r0
    10b8:	4807      	ldr	r0, [pc, #28]	; (10d8 <uart_msp432::uart_msp432(EUSCI_A_Type*, unsigned long, unsigned short)+0x24>)
    10ba:	6020      	str	r0, [r4, #0]
    10bc:	4807      	ldr	r0, [pc, #28]	; (10dc <uart_msp432::uart_msp432(EUSCI_A_Type*, unsigned long, unsigned short)+0x28>)
    10be:	6020      	str	r0, [r4, #0]
    10c0:	2000      	movs	r0, #0
    10c2:	7120      	strb	r0, [r4, #4]
    10c4:	60a1      	str	r1, [r4, #8]
    10c6:	60e2      	str	r2, [r4, #12]
    10c8:	8223      	strh	r3, [r4, #16]
    10ca:	74a0      	strb	r0, [r4, #18]
    10cc:	74e0      	strb	r0, [r4, #19]
    10ce:	7520      	strb	r0, [r4, #20]
    10d0:	f000 fc3f 	bl	1952 <irq_dispatcher::link_in()>
    10d4:	4620      	mov	r0, r4
    10d6:	bd10      	pop	{r4, pc}
    10d8:	00002dd8 	.word	0x00002dd8
    10dc:	00002e0c 	.word	0x00002e0c

000010e0 <uart_msp432::init()>:
    10e0:	b538      	push	{r3, r4, r5, lr}
    10e2:	4604      	mov	r4, r0
    10e4:	6883      	ldr	r3, [r0, #8]
    10e6:	4a2f      	ldr	r2, [pc, #188]	; (11a4 <uart_msp432::init()+0xc4>)
    10e8:	4293      	cmp	r3, r2
    10ea:	d040      	beq.n	116e <uart_msp432::init()+0x8e>
    10ec:	4a2e      	ldr	r2, [pc, #184]	; (11a8 <uart_msp432::init()+0xc8>)
    10ee:	4293      	cmp	r3, r2
    10f0:	d044      	beq.n	117c <uart_msp432::init()+0x9c>
    10f2:	4a2e      	ldr	r2, [pc, #184]	; (11ac <uart_msp432::init()+0xcc>)
    10f4:	4293      	cmp	r3, r2
    10f6:	d047      	beq.n	1188 <uart_msp432::init()+0xa8>
    10f8:	4a2d      	ldr	r2, [pc, #180]	; (11b0 <uart_msp432::init()+0xd0>)
    10fa:	4293      	cmp	r3, r2
    10fc:	d14a      	bne.n	1194 <uart_msp432::init()+0xb4>
    10fe:	2309      	movs	r3, #9
    1100:	7483      	strb	r3, [r0, #18]
    1102:	2306      	movs	r3, #6
    1104:	74c3      	strb	r3, [r0, #19]
    1106:	2307      	movs	r3, #7
    1108:	7503      	strb	r3, [r0, #20]
    110a:	7ca1      	ldrb	r1, [r4, #18]
    110c:	7ce3      	ldrb	r3, [r4, #19]
    110e:	4d29      	ldr	r5, [pc, #164]	; (11b4 <uart_msp432::init()+0xd4>)
    1110:	2201      	movs	r2, #1
    1112:	ea43 2101 	orr.w	r1, r3, r1, lsl #8
    1116:	4628      	mov	r0, r5
    1118:	f7ff fc10 	bl	93c <gpio_msp432::setSEL(unsigned short, unsigned char)>
    111c:	7ca1      	ldrb	r1, [r4, #18]
    111e:	7d23      	ldrb	r3, [r4, #20]
    1120:	2201      	movs	r2, #1
    1122:	ea43 2101 	orr.w	r1, r3, r1, lsl #8
    1126:	4628      	mov	r0, r5
    1128:	f7ff fc08 	bl	93c <gpio_msp432::setSEL(unsigned short, unsigned char)>
    112c:	68a3      	ldr	r3, [r4, #8]
    112e:	2501      	movs	r5, #1
    1130:	801d      	strh	r5, [r3, #0]
    1132:	68a2      	ldr	r2, [r4, #8]
    1134:	8813      	ldrh	r3, [r2, #0]
    1136:	b29b      	uxth	r3, r3
    1138:	f043 0380 	orr.w	r3, r3, #128	; 0x80
    113c:	8013      	strh	r3, [r2, #0]
    113e:	68a2      	ldr	r2, [r4, #8]
    1140:	8913      	ldrh	r3, [r2, #8]
    1142:	f003 030e 	and.w	r3, r3, #14
    1146:	8113      	strh	r3, [r2, #8]
    1148:	68a2      	ldr	r2, [r4, #8]
    114a:	8b53      	ldrh	r3, [r2, #26]
    114c:	b29b      	uxth	r3, r3
    114e:	f023 030f 	bic.w	r3, r3, #15
    1152:	b29b      	uxth	r3, r3
    1154:	8353      	strh	r3, [r2, #26]
    1156:	6823      	ldr	r3, [r4, #0]
    1158:	68db      	ldr	r3, [r3, #12]
    115a:	8a21      	ldrh	r1, [r4, #16]
    115c:	4620      	mov	r0, r4
    115e:	4798      	blx	r3
    1160:	6823      	ldr	r3, [r4, #0]
    1162:	691b      	ldr	r3, [r3, #16]
    1164:	68e1      	ldr	r1, [r4, #12]
    1166:	4620      	mov	r0, r4
    1168:	4798      	blx	r3
    116a:	7125      	strb	r5, [r4, #4]
    116c:	bd38      	pop	{r3, r4, r5, pc}
    116e:	2301      	movs	r3, #1
    1170:	7483      	strb	r3, [r0, #18]
    1172:	2302      	movs	r3, #2
    1174:	74c3      	strb	r3, [r0, #19]
    1176:	2303      	movs	r3, #3
    1178:	7503      	strb	r3, [r0, #20]
    117a:	e7c6      	b.n	110a <uart_msp432::init()+0x2a>
    117c:	2302      	movs	r3, #2
    117e:	7483      	strb	r3, [r0, #18]
    1180:	74c3      	strb	r3, [r0, #19]
    1182:	2303      	movs	r3, #3
    1184:	7503      	strb	r3, [r0, #20]
    1186:	e7c0      	b.n	110a <uart_msp432::init()+0x2a>
    1188:	2303      	movs	r3, #3
    118a:	7483      	strb	r3, [r0, #18]
    118c:	2202      	movs	r2, #2
    118e:	74c2      	strb	r2, [r0, #19]
    1190:	7503      	strb	r3, [r0, #20]
    1192:	e7ba      	b.n	110a <uart_msp432::init()+0x2a>
    1194:	4b08      	ldr	r3, [pc, #32]	; (11b8 <uart_msp432::init()+0xd8>)
    1196:	4a09      	ldr	r2, [pc, #36]	; (11bc <uart_msp432::init()+0xdc>)
    1198:	601a      	str	r2, [r3, #0]
    119a:	4b09      	ldr	r3, [pc, #36]	; (11c0 <uart_msp432::init()+0xe0>)
    119c:	2220      	movs	r2, #32
    119e:	601a      	str	r2, [r3, #0]
    11a0:	f7ff fe9e 	bl	ee0 <yahal_assert_func()>
    11a4:	40001000 	.word	0x40001000
    11a8:	40001400 	.word	0x40001400
    11ac:	40001800 	.word	0x40001800
    11b0:	40001c00 	.word	0x40001c00
    11b4:	200000b4 	.word	0x200000b4
    11b8:	200000a4 	.word	0x200000a4
    11bc:	00002d7c 	.word	0x00002d7c
    11c0:	200000b0 	.word	0x200000b0

000011c4 <uart_msp432::available()>:
    11c4:	b510      	push	{r4, lr}
    11c6:	4604      	mov	r4, r0
    11c8:	7903      	ldrb	r3, [r0, #4]
    11ca:	b123      	cbz	r3, 11d6 <uart_msp432::available()+0x12>
    11cc:	68a3      	ldr	r3, [r4, #8]
    11ce:	8b98      	ldrh	r0, [r3, #28]
    11d0:	f000 0001 	and.w	r0, r0, #1
    11d4:	bd10      	pop	{r4, pc}
    11d6:	f7ff ff83 	bl	10e0 <uart_msp432::init()>
    11da:	e7f7      	b.n	11cc <uart_msp432::available()+0x8>

000011dc <uart_msp432::getc()>:
    11dc:	b510      	push	{r4, lr}
    11de:	4604      	mov	r4, r0
    11e0:	7903      	ldrb	r3, [r0, #4]
    11e2:	b13b      	cbz	r3, 11f4 <uart_msp432::getc()+0x18>
    11e4:	68a3      	ldr	r3, [r4, #8]
    11e6:	8b9a      	ldrh	r2, [r3, #28]
    11e8:	f012 0f01 	tst.w	r2, #1
    11ec:	d0fa      	beq.n	11e4 <uart_msp432::getc()+0x8>
    11ee:	8998      	ldrh	r0, [r3, #12]
    11f0:	b2c0      	uxtb	r0, r0
    11f2:	bd10      	pop	{r4, pc}
    11f4:	f7ff ff74 	bl	10e0 <uart_msp432::init()>
    11f8:	e7f4      	b.n	11e4 <uart_msp432::getc()+0x8>

000011fa <uart_msp432::putc(char)>:
    11fa:	b538      	push	{r3, r4, r5, lr}
    11fc:	4604      	mov	r4, r0
    11fe:	460d      	mov	r5, r1
    1200:	7903      	ldrb	r3, [r0, #4]
    1202:	b133      	cbz	r3, 1212 <uart_msp432::putc(char)+0x18>
    1204:	68a3      	ldr	r3, [r4, #8]
    1206:	8b9a      	ldrh	r2, [r3, #28]
    1208:	f012 0f02 	tst.w	r2, #2
    120c:	d0fa      	beq.n	1204 <uart_msp432::putc(char)+0xa>
    120e:	81dd      	strh	r5, [r3, #14]
    1210:	bd38      	pop	{r3, r4, r5, pc}
    1212:	f7ff ff65 	bl	10e0 <uart_msp432::init()>
    1216:	e7f5      	b.n	1204 <uart_msp432::putc(char)+0xa>

00001218 <std::function<void (char)>::operator=(decltype(nullptr))>:
    1218:	b510      	push	{r4, lr}
    121a:	4604      	mov	r4, r0
    121c:	6883      	ldr	r3, [r0, #8]
    121e:	b12b      	cbz	r3, 122c <std::function<void (char)>::operator=(decltype(nullptr))+0x14>
    1220:	2203      	movs	r2, #3
    1222:	4601      	mov	r1, r0
    1224:	4798      	blx	r3
    1226:	2300      	movs	r3, #0
    1228:	60a3      	str	r3, [r4, #8]
    122a:	60e3      	str	r3, [r4, #12]
    122c:	4620      	mov	r0, r4
    122e:	bd10      	pop	{r4, pc}

00001230 <uart_msp432::uartDetachIrq()>:
    1230:	b538      	push	{r3, r4, r5, lr}
    1232:	4604      	mov	r4, r0
    1234:	7903      	ldrb	r3, [r0, #4]
    1236:	b17b      	cbz	r3, 1258 <uart_msp432::uartDetachIrq()+0x28>
    1238:	68a3      	ldr	r3, [r4, #8]
    123a:	f3c3 2481 	ubfx	r4, r3, #10, #2
    123e:	2500      	movs	r5, #0
    1240:	835d      	strh	r5, [r3, #26]
    1242:	f104 0010 	add.w	r0, r4, #16
    1246:	f7ff fe39 	bl	ebc <__NVIC_DisableIRQ>
    124a:	4629      	mov	r1, r5
    124c:	4804      	ldr	r0, [pc, #16]	; (1260 <uart_msp432::uartDetachIrq()+0x30>)
    124e:	eb00 1004 	add.w	r0, r0, r4, lsl #4
    1252:	f7ff ffe1 	bl	1218 <std::function<void (char)>::operator=(decltype(nullptr))>
    1256:	bd38      	pop	{r3, r4, r5, pc}
    1258:	f7ff ff42 	bl	10e0 <uart_msp432::init()>
    125c:	e7ec      	b.n	1238 <uart_msp432::uartDetachIrq()+0x8>
    125e:	bf00      	nop
    1260:	200004d0 	.word	0x200004d0

00001264 <std::function<void (char)>::operator()(char) const>:
    1264:	b500      	push	{lr}
    1266:	b083      	sub	sp, #12
    1268:	f88d 1007 	strb.w	r1, [sp, #7]
    126c:	6883      	ldr	r3, [r0, #8]
    126e:	b133      	cbz	r3, 127e <std::function<void (char)>::operator()(char) const+0x1a>
    1270:	68c3      	ldr	r3, [r0, #12]
    1272:	f10d 0107 	add.w	r1, sp, #7
    1276:	4798      	blx	r3
    1278:	b003      	add	sp, #12
    127a:	f85d fb04 	ldr.w	pc, [sp], #4
    127e:	f000 fa37 	bl	16f0 <__yahal_bad_function_call>
	...

00001284 <uart_msp432::handleIrq(EUSCI_A_Type*)>:
    1284:	b508      	push	{r3, lr}
    1286:	8981      	ldrh	r1, [r0, #12]
    1288:	f3c0 2081 	ubfx	r0, r0, #10, #2
    128c:	4b04      	ldr	r3, [pc, #16]	; (12a0 <uart_msp432::handleIrq(EUSCI_A_Type*)+0x1c>)
    128e:	eb03 1000 	add.w	r0, r3, r0, lsl #4
    1292:	6883      	ldr	r3, [r0, #8]
    1294:	b113      	cbz	r3, 129c <uart_msp432::handleIrq(EUSCI_A_Type*)+0x18>
    1296:	b2c9      	uxtb	r1, r1
    1298:	f7ff ffe4 	bl	1264 <std::function<void (char)>::operator()(char) const>
    129c:	bd08      	pop	{r3, pc}
    129e:	bf00      	nop
    12a0:	200004d0 	.word	0x200004d0

000012a4 <EUSCIA0_UART_IRQHandler>:
    12a4:	b508      	push	{r3, lr}
    12a6:	4802      	ldr	r0, [pc, #8]	; (12b0 <EUSCIA0_UART_IRQHandler+0xc>)
    12a8:	f7ff ffec 	bl	1284 <uart_msp432::handleIrq(EUSCI_A_Type*)>
    12ac:	bd08      	pop	{r3, pc}
    12ae:	bf00      	nop
    12b0:	40001000 	.word	0x40001000

000012b4 <EUSCIA1_UART_IRQHandler>:
    12b4:	b508      	push	{r3, lr}
    12b6:	4802      	ldr	r0, [pc, #8]	; (12c0 <EUSCIA1_UART_IRQHandler+0xc>)
    12b8:	f7ff ffe4 	bl	1284 <uart_msp432::handleIrq(EUSCI_A_Type*)>
    12bc:	bd08      	pop	{r3, pc}
    12be:	bf00      	nop
    12c0:	40001400 	.word	0x40001400

000012c4 <EUSCIA2_UART_IRQHandler>:
    12c4:	b508      	push	{r3, lr}
    12c6:	4802      	ldr	r0, [pc, #8]	; (12d0 <EUSCIA2_UART_IRQHandler+0xc>)
    12c8:	f7ff ffdc 	bl	1284 <uart_msp432::handleIrq(EUSCI_A_Type*)>
    12cc:	bd08      	pop	{r3, pc}
    12ce:	bf00      	nop
    12d0:	40001800 	.word	0x40001800

000012d4 <EUSCIA3_UART_IRQHandler>:
    12d4:	b508      	push	{r3, lr}
    12d6:	4802      	ldr	r0, [pc, #8]	; (12e0 <EUSCIA3_UART_IRQHandler+0xc>)
    12d8:	f7ff ffd4 	bl	1284 <uart_msp432::handleIrq(EUSCI_A_Type*)>
    12dc:	bd08      	pop	{r3, pc}
    12de:	bf00      	nop
    12e0:	40001c00 	.word	0x40001c00

000012e4 <std::function<void (char)>::function(std::function<void (char)> const&)>:
    12e4:	b538      	push	{r3, r4, r5, lr}
    12e6:	4604      	mov	r4, r0
    12e8:	2300      	movs	r3, #0
    12ea:	6003      	str	r3, [r0, #0]
    12ec:	6043      	str	r3, [r0, #4]
    12ee:	6083      	str	r3, [r0, #8]
    12f0:	60c3      	str	r3, [r0, #12]
    12f2:	688b      	ldr	r3, [r1, #8]
    12f4:	b133      	cbz	r3, 1304 <std::function<void (char)>::function(std::function<void (char)> const&)+0x20>
    12f6:	460d      	mov	r5, r1
    12f8:	2202      	movs	r2, #2
    12fa:	4798      	blx	r3
    12fc:	68eb      	ldr	r3, [r5, #12]
    12fe:	60e3      	str	r3, [r4, #12]
    1300:	68ab      	ldr	r3, [r5, #8]
    1302:	60a3      	str	r3, [r4, #8]
    1304:	4620      	mov	r0, r4
    1306:	bd38      	pop	{r3, r4, r5, pc}

00001308 <std::function<void (char)>::swap(std::function<void (char)>&)>:
    1308:	b538      	push	{r3, r4, r5, lr}
    130a:	4605      	mov	r5, r0
    130c:	460c      	mov	r4, r1
    130e:	f7ff fce3 	bl	cd8 <std::enable_if<std::__and_<std::__not_<std::__is_tuple_like<std::_Any_data> >, std::is_move_constructible<std::_Any_data>, std::is_move_assignable<std::_Any_data> >::value, void>::type std::swap<std::_Any_data>(std::_Any_data&, std::_Any_data&)>
    1312:	68ab      	ldr	r3, [r5, #8]
    1314:	68a2      	ldr	r2, [r4, #8]
    1316:	60aa      	str	r2, [r5, #8]
    1318:	60a3      	str	r3, [r4, #8]
    131a:	68eb      	ldr	r3, [r5, #12]
    131c:	68e2      	ldr	r2, [r4, #12]
    131e:	60ea      	str	r2, [r5, #12]
    1320:	60e3      	str	r3, [r4, #12]
    1322:	bd38      	pop	{r3, r4, r5, pc}

00001324 <std::function<void (char)>::operator=(std::function<void (char)> const&)>:
    1324:	b510      	push	{r4, lr}
    1326:	b084      	sub	sp, #16
    1328:	4604      	mov	r4, r0
    132a:	4668      	mov	r0, sp
    132c:	f7ff ffda 	bl	12e4 <std::function<void (char)>::function(std::function<void (char)> const&)>
    1330:	4621      	mov	r1, r4
    1332:	4668      	mov	r0, sp
    1334:	f7ff ffe8 	bl	1308 <std::function<void (char)>::swap(std::function<void (char)>&)>
    1338:	4668      	mov	r0, sp
    133a:	f7ff fa95 	bl	868 <std::_Function_base::~_Function_base()>
    133e:	4620      	mov	r0, r4
    1340:	b004      	add	sp, #16
    1342:	bd10      	pop	{r4, pc}

00001344 <uart_msp432::uartAttachIrq(std::function<void (char)>)>:
    1344:	b570      	push	{r4, r5, r6, lr}
    1346:	4604      	mov	r4, r0
    1348:	460e      	mov	r6, r1
    134a:	7903      	ldrb	r3, [r0, #4]
    134c:	b183      	cbz	r3, 1370 <uart_msp432::uartAttachIrq(std::function<void (char)>)+0x2c>
    134e:	68a5      	ldr	r5, [r4, #8]
    1350:	f3c5 2581 	ubfx	r5, r5, #10, #2
    1354:	4631      	mov	r1, r6
    1356:	4808      	ldr	r0, [pc, #32]	; (1378 <uart_msp432::uartAttachIrq(std::function<void (char)>)+0x34>)
    1358:	eb00 1005 	add.w	r0, r0, r5, lsl #4
    135c:	f7ff ffe2 	bl	1324 <std::function<void (char)>::operator=(std::function<void (char)> const&)>
    1360:	68a3      	ldr	r3, [r4, #8]
    1362:	2201      	movs	r2, #1
    1364:	835a      	strh	r2, [r3, #26]
    1366:	f105 0010 	add.w	r0, r5, #16
    136a:	f7ff fd99 	bl	ea0 <__NVIC_EnableIRQ>
    136e:	bd70      	pop	{r4, r5, r6, pc}
    1370:	f7ff feb6 	bl	10e0 <uart_msp432::init()>
    1374:	e7eb      	b.n	134e <uart_msp432::uartAttachIrq(std::function<void (char)>)+0xa>
    1376:	bf00      	nop
    1378:	200004d0 	.word	0x200004d0

0000137c <_GLOBAL__sub_I_UART_CLK>:
    137c:	b508      	push	{r3, lr}
    137e:	f64f 71ff 	movw	r1, #65535	; 0xffff
    1382:	2001      	movs	r0, #1
    1384:	f7ff fe58 	bl	1038 <__static_initialization_and_destruction_0(int, int)>
    1388:	bd08      	pop	{r3, pc}
	...

0000138c <calculate_DCO_clock>:
    138c:	b082      	sub	sp, #8
    138e:	9001      	str	r0, [sp, #4]
    1390:	4b30      	ldr	r3, [pc, #192]	; (1454 <calculate_DCO_clock+0xc8>)
    1392:	685b      	ldr	r3, [r3, #4]
    1394:	b21a      	sxth	r2, r3
    1396:	f3c3 0309 	ubfx	r3, r3, #0, #10
    139a:	2b00      	cmp	r3, #0
    139c:	d058      	beq.n	1450 <calculate_DCO_clock+0xc4>
    139e:	f412 7f00 	tst.w	r2, #512	; 0x200
    13a2:	d003      	beq.n	13ac <calculate_DCO_clock+0x20>
    13a4:	ea6f 5383 	mvn.w	r3, r3, lsl #22
    13a8:	ea6f 5393 	mvn.w	r3, r3, lsr #22
    13ac:	4a29      	ldr	r2, [pc, #164]	; (1454 <calculate_DCO_clock+0xc8>)
    13ae:	6852      	ldr	r2, [r2, #4]
    13b0:	f412 0f80 	tst.w	r2, #4194304	; 0x400000
    13b4:	d035      	beq.n	1422 <calculate_DCO_clock+0x96>
    13b6:	4a27      	ldr	r2, [pc, #156]	; (1454 <calculate_DCO_clock+0xc8>)
    13b8:	6852      	ldr	r2, [r2, #4]
    13ba:	f402 22e0 	and.w	r2, r2, #458752	; 0x70000
    13be:	f5b2 2fa0 	cmp.w	r2, #327680	; 0x50000
    13c2:	d026      	beq.n	1412 <calculate_DCO_clock+0x86>
    13c4:	4a24      	ldr	r2, [pc, #144]	; (1458 <calculate_DCO_clock+0xcc>)
    13c6:	ed92 6a21 	vldr	s12, [r2, #132]	; 0x84
    13ca:	eeb8 6a46 	vcvt.f32.u32	s12, s12
    13ce:	edd2 7a1b 	vldr	s15, [r2, #108]	; 0x6c
    13d2:	eef7 6a00 	vmov.f32	s13, #112	; 0x3f800000  1.0
    13d6:	ee86 7a86 	vdiv.f32	s14, s13, s12
    13da:	ed9f 6a20 	vldr	s12, [pc, #128]	; 145c <calculate_DCO_clock+0xd0>
    13de:	ee37 7a06 	vadd.f32	s14, s14, s12
    13e2:	eef8 7a67 	vcvt.f32.u32	s15, s15
    13e6:	ee37 7a67 	vsub.f32	s14, s14, s15
    13ea:	eddd 7a01 	vldr	s15, [sp, #4]
    13ee:	eeb8 6a67 	vcvt.f32.u32	s12, s15
    13f2:	ee07 3a90 	vmov	s15, r3
    13f6:	eef8 7ae7 	vcvt.f32.s32	s15, s15
    13fa:	eec7 5a87 	vdiv.f32	s11, s15, s14
    13fe:	ee76 6ae5 	vsub.f32	s13, s13, s11
    1402:	eec6 7a26 	vdiv.f32	s15, s12, s13
    1406:	eefc 7ae7 	vcvt.u32.f32	s15, s15
    140a:	ee17 0a90 	vmov	r0, s15
    140e:	b002      	add	sp, #8
    1410:	4770      	bx	lr
    1412:	4a11      	ldr	r2, [pc, #68]	; (1458 <calculate_DCO_clock+0xcc>)
    1414:	ed92 6a22 	vldr	s12, [r2, #136]	; 0x88
    1418:	eeb8 6a46 	vcvt.f32.u32	s12, s12
    141c:	edd2 7a1c 	vldr	s15, [r2, #112]	; 0x70
    1420:	e7d7      	b.n	13d2 <calculate_DCO_clock+0x46>
    1422:	4a0c      	ldr	r2, [pc, #48]	; (1454 <calculate_DCO_clock+0xc8>)
    1424:	6852      	ldr	r2, [r2, #4]
    1426:	f402 22e0 	and.w	r2, r2, #458752	; 0x70000
    142a:	f5b2 2fa0 	cmp.w	r2, #327680	; 0x50000
    142e:	d007      	beq.n	1440 <calculate_DCO_clock+0xb4>
    1430:	4a09      	ldr	r2, [pc, #36]	; (1458 <calculate_DCO_clock+0xcc>)
    1432:	ed92 6a19 	vldr	s12, [r2, #100]	; 0x64
    1436:	eeb8 6a46 	vcvt.f32.u32	s12, s12
    143a:	edd2 7a13 	vldr	s15, [r2, #76]	; 0x4c
    143e:	e7c8      	b.n	13d2 <calculate_DCO_clock+0x46>
    1440:	4a05      	ldr	r2, [pc, #20]	; (1458 <calculate_DCO_clock+0xcc>)
    1442:	ed92 6a1a 	vldr	s12, [r2, #104]	; 0x68
    1446:	eeb8 6a46 	vcvt.f32.u32	s12, s12
    144a:	edd2 7a14 	vldr	s15, [r2, #80]	; 0x50
    144e:	e7c0      	b.n	13d2 <calculate_DCO_clock+0x46>
    1450:	9801      	ldr	r0, [sp, #4]
    1452:	e7dc      	b.n	140e <calculate_DCO_clock+0x82>
    1454:	40010400 	.word	0x40010400
    1458:	00201000 	.word	0x00201000
    145c:	44400000 	.word	0x44400000

00001460 <SystemCoreClockUpdate>:
    1460:	b510      	push	{r4, lr}
    1462:	4b51      	ldr	r3, [pc, #324]	; (15a8 <SystemCoreClockUpdate+0x148>)
    1464:	689b      	ldr	r3, [r3, #8]
    1466:	f003 0307 	and.w	r3, r3, #7
    146a:	2b05      	cmp	r3, #5
    146c:	d817      	bhi.n	149e <SystemCoreClockUpdate+0x3e>
    146e:	e8df f003 	tbb	[pc, r3]
    1472:	1203      	.short	0x1203
    1474:	4a463a2b 	.word	0x4a463a2b
    1478:	4b4b      	ldr	r3, [pc, #300]	; (15a8 <SystemCoreClockUpdate+0x148>)
    147a:	6c9b      	ldr	r3, [r3, #72]	; 0x48
    147c:	f013 0f01 	tst.w	r3, #1
    1480:	d004      	beq.n	148c <SystemCoreClockUpdate+0x2c>
    1482:	4b4a      	ldr	r3, [pc, #296]	; (15ac <SystemCoreClockUpdate+0x14c>)
    1484:	f44f 4200 	mov.w	r2, #32768	; 0x8000
    1488:	601a      	str	r2, [r3, #0]
    148a:	e008      	b.n	149e <SystemCoreClockUpdate+0x3e>
    148c:	4b48      	ldr	r3, [pc, #288]	; (15b0 <SystemCoreClockUpdate+0x150>)
    148e:	681a      	ldr	r2, [r3, #0]
    1490:	4b46      	ldr	r3, [pc, #280]	; (15ac <SystemCoreClockUpdate+0x14c>)
    1492:	601a      	str	r2, [r3, #0]
    1494:	e003      	b.n	149e <SystemCoreClockUpdate+0x3e>
    1496:	4b45      	ldr	r3, [pc, #276]	; (15ac <SystemCoreClockUpdate+0x14c>)
    1498:	f242 42b8 	movw	r2, #9400	; 0x24b8
    149c:	601a      	str	r2, [r3, #0]
    149e:	4b42      	ldr	r3, [pc, #264]	; (15a8 <SystemCoreClockUpdate+0x148>)
    14a0:	689b      	ldr	r3, [r3, #8]
    14a2:	f003 0370 	and.w	r3, r3, #112	; 0x70
    14a6:	2b30      	cmp	r3, #48	; 0x30
    14a8:	d069      	beq.n	157e <SystemCoreClockUpdate+0x11e>
    14aa:	d851      	bhi.n	1550 <SystemCoreClockUpdate+0xf0>
    14ac:	2b10      	cmp	r3, #16
    14ae:	d05c      	beq.n	156a <SystemCoreClockUpdate+0x10a>
    14b0:	2b20      	cmp	r3, #32
    14b2:	d136      	bne.n	1522 <SystemCoreClockUpdate+0xc2>
    14b4:	4b3c      	ldr	r3, [pc, #240]	; (15a8 <SystemCoreClockUpdate+0x148>)
    14b6:	6b1b      	ldr	r3, [r3, #48]	; 0x30
    14b8:	f413 4f00 	tst.w	r3, #32768	; 0x8000
    14bc:	d05a      	beq.n	1574 <SystemCoreClockUpdate+0x114>
    14be:	4b3d      	ldr	r3, [pc, #244]	; (15b4 <SystemCoreClockUpdate+0x154>)
    14c0:	f44f 32fa 	mov.w	r2, #128000	; 0x1f400
    14c4:	601a      	str	r2, [r3, #0]
    14c6:	e033      	b.n	1530 <SystemCoreClockUpdate+0xd0>
    14c8:	4b37      	ldr	r3, [pc, #220]	; (15a8 <SystemCoreClockUpdate+0x148>)
    14ca:	6b1b      	ldr	r3, [r3, #48]	; 0x30
    14cc:	f413 4f00 	tst.w	r3, #32768	; 0x8000
    14d0:	d004      	beq.n	14dc <SystemCoreClockUpdate+0x7c>
    14d2:	4b36      	ldr	r3, [pc, #216]	; (15ac <SystemCoreClockUpdate+0x14c>)
    14d4:	f44f 32fa 	mov.w	r2, #128000	; 0x1f400
    14d8:	601a      	str	r2, [r3, #0]
    14da:	e7e0      	b.n	149e <SystemCoreClockUpdate+0x3e>
    14dc:	4b33      	ldr	r3, [pc, #204]	; (15ac <SystemCoreClockUpdate+0x14c>)
    14de:	f44f 4200 	mov.w	r2, #32768	; 0x8000
    14e2:	601a      	str	r2, [r3, #0]
    14e4:	e7db      	b.n	149e <SystemCoreClockUpdate+0x3e>
    14e6:	4b30      	ldr	r3, [pc, #192]	; (15a8 <SystemCoreClockUpdate+0x148>)
    14e8:	685b      	ldr	r3, [r3, #4]
    14ea:	f3c3 4302 	ubfx	r3, r3, #16, #3
    14ee:	4832      	ldr	r0, [pc, #200]	; (15b8 <SystemCoreClockUpdate+0x158>)
    14f0:	4098      	lsls	r0, r3
    14f2:	4c2e      	ldr	r4, [pc, #184]	; (15ac <SystemCoreClockUpdate+0x14c>)
    14f4:	6020      	str	r0, [r4, #0]
    14f6:	f7ff ff49 	bl	138c <calculate_DCO_clock>
    14fa:	6020      	str	r0, [r4, #0]
    14fc:	e7cf      	b.n	149e <SystemCoreClockUpdate+0x3e>
    14fe:	4b2b      	ldr	r3, [pc, #172]	; (15ac <SystemCoreClockUpdate+0x14c>)
    1500:	4a2e      	ldr	r2, [pc, #184]	; (15bc <SystemCoreClockUpdate+0x15c>)
    1502:	601a      	str	r2, [r3, #0]
    1504:	e7cb      	b.n	149e <SystemCoreClockUpdate+0x3e>
    1506:	4b28      	ldr	r3, [pc, #160]	; (15a8 <SystemCoreClockUpdate+0x148>)
    1508:	6c9b      	ldr	r3, [r3, #72]	; 0x48
    150a:	f013 0f02 	tst.w	r3, #2
    150e:	d003      	beq.n	1518 <SystemCoreClockUpdate+0xb8>
    1510:	4b26      	ldr	r3, [pc, #152]	; (15ac <SystemCoreClockUpdate+0x14c>)
    1512:	4a2b      	ldr	r2, [pc, #172]	; (15c0 <SystemCoreClockUpdate+0x160>)
    1514:	601a      	str	r2, [r3, #0]
    1516:	e7c2      	b.n	149e <SystemCoreClockUpdate+0x3e>
    1518:	4b2a      	ldr	r3, [pc, #168]	; (15c4 <SystemCoreClockUpdate+0x164>)
    151a:	681a      	ldr	r2, [r3, #0]
    151c:	4b23      	ldr	r3, [pc, #140]	; (15ac <SystemCoreClockUpdate+0x14c>)
    151e:	601a      	str	r2, [r3, #0]
    1520:	e7bd      	b.n	149e <SystemCoreClockUpdate+0x3e>
    1522:	b92b      	cbnz	r3, 1530 <SystemCoreClockUpdate+0xd0>
    1524:	4b20      	ldr	r3, [pc, #128]	; (15a8 <SystemCoreClockUpdate+0x148>)
    1526:	6c9b      	ldr	r3, [r3, #72]	; 0x48
    1528:	4b21      	ldr	r3, [pc, #132]	; (15b0 <SystemCoreClockUpdate+0x150>)
    152a:	681a      	ldr	r2, [r3, #0]
    152c:	4b21      	ldr	r3, [pc, #132]	; (15b4 <SystemCoreClockUpdate+0x154>)
    152e:	601a      	str	r2, [r3, #0]
    1530:	4b1d      	ldr	r3, [pc, #116]	; (15a8 <SystemCoreClockUpdate+0x148>)
    1532:	6899      	ldr	r1, [r3, #8]
    1534:	f3c1 4102 	ubfx	r1, r1, #16, #3
    1538:	689a      	ldr	r2, [r3, #8]
    153a:	f3c2 7202 	ubfx	r2, r2, #28, #3
    153e:	481b      	ldr	r0, [pc, #108]	; (15ac <SystemCoreClockUpdate+0x14c>)
    1540:	6803      	ldr	r3, [r0, #0]
    1542:	40cb      	lsrs	r3, r1
    1544:	6003      	str	r3, [r0, #0]
    1546:	491b      	ldr	r1, [pc, #108]	; (15b4 <SystemCoreClockUpdate+0x154>)
    1548:	680b      	ldr	r3, [r1, #0]
    154a:	40d3      	lsrs	r3, r2
    154c:	600b      	str	r3, [r1, #0]
    154e:	bd10      	pop	{r4, pc}
    1550:	2b40      	cmp	r3, #64	; 0x40
    1552:	d020      	beq.n	1596 <SystemCoreClockUpdate+0x136>
    1554:	2b50      	cmp	r3, #80	; 0x50
    1556:	d1eb      	bne.n	1530 <SystemCoreClockUpdate+0xd0>
    1558:	4b13      	ldr	r3, [pc, #76]	; (15a8 <SystemCoreClockUpdate+0x148>)
    155a:	6c9b      	ldr	r3, [r3, #72]	; 0x48
    155c:	f013 0f02 	tst.w	r3, #2
    1560:	d01d      	beq.n	159e <SystemCoreClockUpdate+0x13e>
    1562:	4b14      	ldr	r3, [pc, #80]	; (15b4 <SystemCoreClockUpdate+0x154>)
    1564:	4a16      	ldr	r2, [pc, #88]	; (15c0 <SystemCoreClockUpdate+0x160>)
    1566:	601a      	str	r2, [r3, #0]
    1568:	e7e2      	b.n	1530 <SystemCoreClockUpdate+0xd0>
    156a:	4b12      	ldr	r3, [pc, #72]	; (15b4 <SystemCoreClockUpdate+0x154>)
    156c:	f242 42b8 	movw	r2, #9400	; 0x24b8
    1570:	601a      	str	r2, [r3, #0]
    1572:	e7dd      	b.n	1530 <SystemCoreClockUpdate+0xd0>
    1574:	4b0f      	ldr	r3, [pc, #60]	; (15b4 <SystemCoreClockUpdate+0x154>)
    1576:	f44f 4200 	mov.w	r2, #32768	; 0x8000
    157a:	601a      	str	r2, [r3, #0]
    157c:	e7d8      	b.n	1530 <SystemCoreClockUpdate+0xd0>
    157e:	4b0a      	ldr	r3, [pc, #40]	; (15a8 <SystemCoreClockUpdate+0x148>)
    1580:	685b      	ldr	r3, [r3, #4]
    1582:	f3c3 4302 	ubfx	r3, r3, #16, #3
    1586:	480c      	ldr	r0, [pc, #48]	; (15b8 <SystemCoreClockUpdate+0x158>)
    1588:	4098      	lsls	r0, r3
    158a:	4c0a      	ldr	r4, [pc, #40]	; (15b4 <SystemCoreClockUpdate+0x154>)
    158c:	6020      	str	r0, [r4, #0]
    158e:	f7ff fefd 	bl	138c <calculate_DCO_clock>
    1592:	6020      	str	r0, [r4, #0]
    1594:	e7cc      	b.n	1530 <SystemCoreClockUpdate+0xd0>
    1596:	4b07      	ldr	r3, [pc, #28]	; (15b4 <SystemCoreClockUpdate+0x154>)
    1598:	4a08      	ldr	r2, [pc, #32]	; (15bc <SystemCoreClockUpdate+0x15c>)
    159a:	601a      	str	r2, [r3, #0]
    159c:	e7c8      	b.n	1530 <SystemCoreClockUpdate+0xd0>
    159e:	4b09      	ldr	r3, [pc, #36]	; (15c4 <SystemCoreClockUpdate+0x164>)
    15a0:	681a      	ldr	r2, [r3, #0]
    15a2:	4b04      	ldr	r3, [pc, #16]	; (15b4 <SystemCoreClockUpdate+0x154>)
    15a4:	601a      	str	r2, [r3, #0]
    15a6:	e7c3      	b.n	1530 <SystemCoreClockUpdate+0xd0>
    15a8:	40010400 	.word	0x40010400
    15ac:	20000030 	.word	0x20000030
    15b0:	20000094 	.word	0x20000094
    15b4:	2000002c 	.word	0x2000002c
    15b8:	0016e360 	.word	0x0016e360
    15bc:	017d7840 	.word	0x017d7840
    15c0:	004c4b40 	.word	0x004c4b40
    15c4:	20000090 	.word	0x20000090

000015c8 <SystemInit>:
    15c8:	b508      	push	{r3, lr}
    15ca:	4b3d      	ldr	r3, [pc, #244]	; (16c0 <SystemInit+0xf8>)
    15cc:	f44f 42b5 	mov.w	r2, #23168	; 0x5a80
    15d0:	819a      	strh	r2, [r3, #12]
    15d2:	4a3c      	ldr	r2, [pc, #240]	; (16c4 <SystemInit+0xfc>)
    15d4:	f8d2 3088 	ldr.w	r3, [r2, #136]	; 0x88
    15d8:	f443 0370 	orr.w	r3, r3, #15728640	; 0xf00000
    15dc:	f8c2 3088 	str.w	r3, [r2, #136]	; 0x88
    15e0:	4b39      	ldr	r3, [pc, #228]	; (16c8 <SystemInit+0x100>)
    15e2:	2280      	movs	r2, #128	; 0x80
    15e4:	615a      	str	r2, [r3, #20]
    15e6:	4b39      	ldr	r3, [pc, #228]	; (16cc <SystemInit+0x104>)
    15e8:	685b      	ldr	r3, [r3, #4]
    15ea:	f413 7f80 	tst.w	r3, #256	; 0x100
    15ee:	d1fa      	bne.n	15e6 <SystemInit+0x1e>
    15f0:	4b36      	ldr	r3, [pc, #216]	; (16cc <SystemInit+0x104>)
    15f2:	4a37      	ldr	r2, [pc, #220]	; (16d0 <SystemInit+0x108>)
    15f4:	601a      	str	r2, [r3, #0]
    15f6:	4b35      	ldr	r3, [pc, #212]	; (16cc <SystemInit+0x104>)
    15f8:	685b      	ldr	r3, [r3, #4]
    15fa:	f413 7f80 	tst.w	r3, #256	; 0x100
    15fe:	d1fa      	bne.n	15f6 <SystemInit+0x2e>
    1600:	4b34      	ldr	r3, [pc, #208]	; (16d4 <SystemInit+0x10c>)
    1602:	f241 0230 	movw	r2, #4144	; 0x1030
    1606:	611a      	str	r2, [r3, #16]
    1608:	615a      	str	r2, [r3, #20]
    160a:	4933      	ldr	r1, [pc, #204]	; (16d8 <SystemInit+0x110>)
    160c:	f646 135a 	movw	r3, #26970	; 0x695a
    1610:	600b      	str	r3, [r1, #0]
    1612:	4b32      	ldr	r3, [pc, #200]	; (16dc <SystemInit+0x114>)
    1614:	4a32      	ldr	r2, [pc, #200]	; (16e0 <SystemInit+0x118>)
    1616:	601a      	str	r2, [r3, #0]
    1618:	4a32      	ldr	r2, [pc, #200]	; (16e4 <SystemInit+0x11c>)
    161a:	8d53      	ldrh	r3, [r2, #42]	; 0x2a
    161c:	b29b      	uxth	r3, r3
    161e:	f043 0308 	orr.w	r3, r3, #8
    1622:	8553      	strh	r3, [r2, #42]	; 0x2a
    1624:	8d93      	ldrh	r3, [r2, #44]	; 0x2c
    1626:	b29b      	uxth	r3, r3
    1628:	f023 0308 	bic.w	r3, r3, #8
    162c:	b29b      	uxth	r3, r3
    162e:	8593      	strh	r3, [r2, #44]	; 0x2c
    1630:	68cb      	ldr	r3, [r1, #12]
    1632:	f043 73b0 	orr.w	r3, r3, #23068672	; 0x1600000
    1636:	f443 3380 	orr.w	r3, r3, #65536	; 0x10000
    163a:	60cb      	str	r3, [r1, #12]
    163c:	2300      	movs	r3, #0
    163e:	e000      	b.n	1642 <SystemInit+0x7a>
    1640:	3301      	adds	r3, #1
    1642:	2bc7      	cmp	r3, #199	; 0xc7
    1644:	dc0a      	bgt.n	165c <SystemInit+0x94>
    1646:	4a24      	ldr	r2, [pc, #144]	; (16d8 <SystemInit+0x110>)
    1648:	6c92      	ldr	r2, [r2, #72]	; 0x48
    164a:	f012 0f02 	tst.w	r2, #2
    164e:	d0f7      	beq.n	1640 <SystemInit+0x78>
    1650:	4921      	ldr	r1, [pc, #132]	; (16d8 <SystemInit+0x110>)
    1652:	6d0a      	ldr	r2, [r1, #80]	; 0x50
    1654:	f042 0202 	orr.w	r2, r2, #2
    1658:	650a      	str	r2, [r1, #80]	; 0x50
    165a:	e7f1      	b.n	1640 <SystemInit+0x78>
    165c:	4b22      	ldr	r3, [pc, #136]	; (16e8 <SystemInit+0x120>)
    165e:	f44f 4200 	mov.w	r2, #32768	; 0x8000
    1662:	601a      	str	r2, [r3, #0]
    1664:	4a1f      	ldr	r2, [pc, #124]	; (16e4 <SystemInit+0x11c>)
    1666:	8d53      	ldrh	r3, [r2, #42]	; 0x2a
    1668:	b29b      	uxth	r3, r3
    166a:	f043 0301 	orr.w	r3, r3, #1
    166e:	8553      	strh	r3, [r2, #42]	; 0x2a
    1670:	8d93      	ldrh	r3, [r2, #44]	; 0x2c
    1672:	b29b      	uxth	r3, r3
    1674:	f023 0301 	bic.w	r3, r3, #1
    1678:	b29b      	uxth	r3, r3
    167a:	8593      	strh	r3, [r2, #44]	; 0x2c
    167c:	f502 4237 	add.w	r2, r2, #46848	; 0xb700
    1680:	68d3      	ldr	r3, [r2, #12]
    1682:	f443 7380 	orr.w	r3, r3, #256	; 0x100
    1686:	60d3      	str	r3, [r2, #12]
    1688:	2300      	movs	r3, #0
    168a:	e000      	b.n	168e <SystemInit+0xc6>
    168c:	3301      	adds	r3, #1
    168e:	2bc7      	cmp	r3, #199	; 0xc7
    1690:	dc0a      	bgt.n	16a8 <SystemInit+0xe0>
    1692:	4a11      	ldr	r2, [pc, #68]	; (16d8 <SystemInit+0x110>)
    1694:	6c92      	ldr	r2, [r2, #72]	; 0x48
    1696:	f012 0f01 	tst.w	r2, #1
    169a:	d0f7      	beq.n	168c <SystemInit+0xc4>
    169c:	490e      	ldr	r1, [pc, #56]	; (16d8 <SystemInit+0x110>)
    169e:	6d0a      	ldr	r2, [r1, #80]	; 0x50
    16a0:	f042 0201 	orr.w	r2, r2, #1
    16a4:	650a      	str	r2, [r1, #80]	; 0x50
    16a6:	e7f1      	b.n	168c <SystemInit+0xc4>
    16a8:	4b0b      	ldr	r3, [pc, #44]	; (16d8 <SystemInit+0x110>)
    16aa:	f44f 3280 	mov.w	r2, #65536	; 0x10000
    16ae:	605a      	str	r2, [r3, #4]
    16b0:	4a0e      	ldr	r2, [pc, #56]	; (16ec <SystemInit+0x124>)
    16b2:	609a      	str	r2, [r3, #8]
    16b4:	2200      	movs	r2, #0
    16b6:	601a      	str	r2, [r3, #0]
    16b8:	f7ff fed2 	bl	1460 <SystemCoreClockUpdate>
    16bc:	bd08      	pop	{r3, pc}
    16be:	bf00      	nop
    16c0:	40004800 	.word	0x40004800
    16c4:	e000ed00 	.word	0xe000ed00
    16c8:	e0043000 	.word	0xe0043000
    16cc:	40010000 	.word	0x40010000
    16d0:	695a0005 	.word	0x695a0005
    16d4:	40011000 	.word	0x40011000
    16d8:	40010400 	.word	0x40010400
    16dc:	20000090 	.word	0x20000090
    16e0:	02dc6c00 	.word	0x02dc6c00
    16e4:	40004d00 	.word	0x40004d00
    16e8:	20000094 	.word	0x20000094
    16ec:	10000055 	.word	0x10000055

000016f0 <__yahal_bad_function_call>:
    16f0:	e7fe      	b.n	16f0 <__yahal_bad_function_call>
	...

000016f4 <__static_initialization_and_destruction_0(int, int)>:
    16f4:	2801      	cmp	r0, #1
    16f6:	d000      	beq.n	16fa <__static_initialization_and_destruction_0(int, int)+0x6>
    16f8:	4770      	bx	lr
    16fa:	f64f 73ff 	movw	r3, #65535	; 0xffff
    16fe:	4299      	cmp	r1, r3
    1700:	d1fa      	bne.n	16f8 <__static_initialization_and_destruction_0(int, int)+0x4>
    1702:	4b05      	ldr	r3, [pc, #20]	; (1718 <__static_initialization_and_destruction_0(int, int)+0x24>)
    1704:	2200      	movs	r2, #0
    1706:	601a      	str	r2, [r3, #0]
    1708:	605a      	str	r2, [r3, #4]
    170a:	609a      	str	r2, [r3, #8]
    170c:	60da      	str	r2, [r3, #12]
    170e:	741a      	strb	r2, [r3, #16]
    1710:	745a      	strb	r2, [r3, #17]
    1712:	749a      	strb	r2, [r3, #18]
    1714:	e7f0      	b.n	16f8 <__static_initialization_and_destruction_0(int, int)+0x4>
    1716:	bf00      	nop
    1718:	200005b0 	.word	0x200005b0

0000171c <_read>:
    171c:	b5f8      	push	{r3, r4, r5, r6, r7, lr}
    171e:	460f      	mov	r7, r1
    1720:	4616      	mov	r6, r2
    1722:	4604      	mov	r4, r0
    1724:	b178      	cbz	r0, 1746 <_read+0x2a>
    1726:	4b19      	ldr	r3, [pc, #100]	; (178c <_read+0x70>)
    1728:	68d8      	ldr	r0, [r3, #12]
    172a:	2800      	cmp	r0, #0
    172c:	d02b      	beq.n	1786 <_read+0x6a>
    172e:	6803      	ldr	r3, [r0, #0]
    1730:	681d      	ldr	r5, [r3, #0]
    1732:	4613      	mov	r3, r2
    1734:	460a      	mov	r2, r1
    1736:	4621      	mov	r1, r4
    1738:	47a8      	blx	r5
    173a:	bdf8      	pop	{r3, r4, r5, r6, r7, pc}
    173c:	2500      	movs	r5, #0
    173e:	553d      	strb	r5, [r7, r4]
    1740:	2d0d      	cmp	r5, #13
    1742:	d01c      	beq.n	177e <_read+0x62>
    1744:	3401      	adds	r4, #1
    1746:	42b4      	cmp	r4, r6
    1748:	da1b      	bge.n	1782 <_read+0x66>
    174a:	4810      	ldr	r0, [pc, #64]	; (178c <_read+0x70>)
    174c:	6800      	ldr	r0, [r0, #0]
    174e:	2800      	cmp	r0, #0
    1750:	d0f4      	beq.n	173c <_read+0x20>
    1752:	6803      	ldr	r3, [r0, #0]
    1754:	685b      	ldr	r3, [r3, #4]
    1756:	4798      	blx	r3
    1758:	4605      	mov	r5, r0
    175a:	4b0c      	ldr	r3, [pc, #48]	; (178c <_read+0x70>)
    175c:	7c1b      	ldrb	r3, [r3, #16]
    175e:	2b00      	cmp	r3, #0
    1760:	d0ed      	beq.n	173e <_read+0x22>
    1762:	4b0a      	ldr	r3, [pc, #40]	; (178c <_read+0x70>)
    1764:	6858      	ldr	r0, [r3, #4]
    1766:	2800      	cmp	r0, #0
    1768:	d0e9      	beq.n	173e <_read+0x22>
    176a:	6803      	ldr	r3, [r0, #0]
    176c:	689b      	ldr	r3, [r3, #8]
    176e:	4629      	mov	r1, r5
    1770:	4798      	blx	r3
    1772:	4b07      	ldr	r3, [pc, #28]	; (1790 <_read+0x74>)
    1774:	681b      	ldr	r3, [r3, #0]
    1776:	6898      	ldr	r0, [r3, #8]
    1778:	f000 faf2 	bl	1d60 <fflush>
    177c:	e7df      	b.n	173e <_read+0x22>
    177e:	1c60      	adds	r0, r4, #1
    1780:	e7db      	b.n	173a <_read+0x1e>
    1782:	4620      	mov	r0, r4
    1784:	e7d9      	b.n	173a <_read+0x1e>
    1786:	2000      	movs	r0, #0
    1788:	e7d7      	b.n	173a <_read+0x1e>
    178a:	bf00      	nop
    178c:	200005b0 	.word	0x200005b0
    1790:	20000040 	.word	0x20000040

00001794 <_write>:
    1794:	b5f0      	push	{r4, r5, r6, r7, lr}
    1796:	b085      	sub	sp, #20
    1798:	460e      	mov	r6, r1
    179a:	4615      	mov	r5, r2
    179c:	2801      	cmp	r0, #1
    179e:	d026      	beq.n	17ee <_write+0x5a>
    17a0:	4604      	mov	r4, r0
    17a2:	2802      	cmp	r0, #2
    17a4:	d028      	beq.n	17f8 <_write+0x64>
    17a6:	4b38      	ldr	r3, [pc, #224]	; (1888 <_write+0xf4>)
    17a8:	68d8      	ldr	r0, [r3, #12]
    17aa:	2800      	cmp	r0, #0
    17ac:	d069      	beq.n	1882 <_write+0xee>
    17ae:	6803      	ldr	r3, [r0, #0]
    17b0:	685f      	ldr	r7, [r3, #4]
    17b2:	4613      	mov	r3, r2
    17b4:	460a      	mov	r2, r1
    17b6:	4621      	mov	r1, r4
    17b8:	47b8      	blx	r7
    17ba:	e01b      	b.n	17f4 <_write+0x60>
    17bc:	3401      	adds	r4, #1
    17be:	42ac      	cmp	r4, r5
    17c0:	da17      	bge.n	17f2 <_write+0x5e>
    17c2:	4b31      	ldr	r3, [pc, #196]	; (1888 <_write+0xf4>)
    17c4:	6858      	ldr	r0, [r3, #4]
    17c6:	2800      	cmp	r0, #0
    17c8:	d0f8      	beq.n	17bc <_write+0x28>
    17ca:	6803      	ldr	r3, [r0, #0]
    17cc:	689b      	ldr	r3, [r3, #8]
    17ce:	5d31      	ldrb	r1, [r6, r4]
    17d0:	4798      	blx	r3
    17d2:	4b2d      	ldr	r3, [pc, #180]	; (1888 <_write+0xf4>)
    17d4:	7c5b      	ldrb	r3, [r3, #17]
    17d6:	2b00      	cmp	r3, #0
    17d8:	d0f0      	beq.n	17bc <_write+0x28>
    17da:	5d33      	ldrb	r3, [r6, r4]
    17dc:	2b0a      	cmp	r3, #10
    17de:	d1ed      	bne.n	17bc <_write+0x28>
    17e0:	4b29      	ldr	r3, [pc, #164]	; (1888 <_write+0xf4>)
    17e2:	6858      	ldr	r0, [r3, #4]
    17e4:	6803      	ldr	r3, [r0, #0]
    17e6:	689b      	ldr	r3, [r3, #8]
    17e8:	210d      	movs	r1, #13
    17ea:	4798      	blx	r3
    17ec:	e7e6      	b.n	17bc <_write+0x28>
    17ee:	2400      	movs	r4, #0
    17f0:	e7e5      	b.n	17be <_write+0x2a>
    17f2:	4628      	mov	r0, r5
    17f4:	b005      	add	sp, #20
    17f6:	bdf0      	pop	{r4, r5, r6, r7, pc}
    17f8:	4b23      	ldr	r3, [pc, #140]	; (1888 <_write+0xf4>)
    17fa:	689b      	ldr	r3, [r3, #8]
    17fc:	2b00      	cmp	r3, #0
    17fe:	d03e      	beq.n	187e <_write+0xea>
    1800:	4b22      	ldr	r3, [pc, #136]	; (188c <_write+0xf8>)
    1802:	e893 0003 	ldmia.w	r3, {r0, r1}
    1806:	9002      	str	r0, [sp, #8]
    1808:	f8ad 100c 	strh.w	r1, [sp, #12]
    180c:	4b20      	ldr	r3, [pc, #128]	; (1890 <_write+0xfc>)
    180e:	e893 0003 	ldmia.w	r3, {r0, r1}
    1812:	9000      	str	r0, [sp, #0]
    1814:	f88d 1004 	strb.w	r1, [sp, #4]
    1818:	ac02      	add	r4, sp, #8
    181a:	e005      	b.n	1828 <_write+0x94>
    181c:	4b1a      	ldr	r3, [pc, #104]	; (1888 <_write+0xf4>)
    181e:	6898      	ldr	r0, [r3, #8]
    1820:	3401      	adds	r4, #1
    1822:	6803      	ldr	r3, [r0, #0]
    1824:	689b      	ldr	r3, [r3, #8]
    1826:	4798      	blx	r3
    1828:	7821      	ldrb	r1, [r4, #0]
    182a:	2900      	cmp	r1, #0
    182c:	d1f6      	bne.n	181c <_write+0x88>
    182e:	2400      	movs	r4, #0
    1830:	e000      	b.n	1834 <_write+0xa0>
    1832:	3401      	adds	r4, #1
    1834:	42ac      	cmp	r4, r5
    1836:	da15      	bge.n	1864 <_write+0xd0>
    1838:	4b13      	ldr	r3, [pc, #76]	; (1888 <_write+0xf4>)
    183a:	6898      	ldr	r0, [r3, #8]
    183c:	2800      	cmp	r0, #0
    183e:	d0f8      	beq.n	1832 <_write+0x9e>
    1840:	6803      	ldr	r3, [r0, #0]
    1842:	689b      	ldr	r3, [r3, #8]
    1844:	5d31      	ldrb	r1, [r6, r4]
    1846:	4798      	blx	r3
    1848:	4b0f      	ldr	r3, [pc, #60]	; (1888 <_write+0xf4>)
    184a:	7c9b      	ldrb	r3, [r3, #18]
    184c:	2b00      	cmp	r3, #0
    184e:	d0f0      	beq.n	1832 <_write+0x9e>
    1850:	5d33      	ldrb	r3, [r6, r4]
    1852:	2b0a      	cmp	r3, #10
    1854:	d1ed      	bne.n	1832 <_write+0x9e>
    1856:	4b0c      	ldr	r3, [pc, #48]	; (1888 <_write+0xf4>)
    1858:	6898      	ldr	r0, [r3, #8]
    185a:	6803      	ldr	r3, [r0, #0]
    185c:	689b      	ldr	r3, [r3, #8]
    185e:	210d      	movs	r1, #13
    1860:	4798      	blx	r3
    1862:	e7e6      	b.n	1832 <_write+0x9e>
    1864:	466c      	mov	r4, sp
    1866:	e005      	b.n	1874 <_write+0xe0>
    1868:	4b07      	ldr	r3, [pc, #28]	; (1888 <_write+0xf4>)
    186a:	6898      	ldr	r0, [r3, #8]
    186c:	3401      	adds	r4, #1
    186e:	6803      	ldr	r3, [r0, #0]
    1870:	689b      	ldr	r3, [r3, #8]
    1872:	4798      	blx	r3
    1874:	7821      	ldrb	r1, [r4, #0]
    1876:	2900      	cmp	r1, #0
    1878:	d1f6      	bne.n	1868 <_write+0xd4>
    187a:	4628      	mov	r0, r5
    187c:	e7ba      	b.n	17f4 <_write+0x60>
    187e:	4610      	mov	r0, r2
    1880:	e7b8      	b.n	17f4 <_write+0x60>
    1882:	2000      	movs	r0, #0
    1884:	e7b6      	b.n	17f4 <_write+0x60>
    1886:	bf00      	nop
    1888:	200005b0 	.word	0x200005b0
    188c:	00002e38 	.word	0x00002e38
    1890:	00002e40 	.word	0x00002e40

00001894 <_close>:
    1894:	b508      	push	{r3, lr}
    1896:	4601      	mov	r1, r0
    1898:	4b06      	ldr	r3, [pc, #24]	; (18b4 <_close+0x20>)
    189a:	68d8      	ldr	r0, [r3, #12]
    189c:	b118      	cbz	r0, 18a6 <_close+0x12>
    189e:	6803      	ldr	r3, [r0, #0]
    18a0:	68db      	ldr	r3, [r3, #12]
    18a2:	4798      	blx	r3
    18a4:	bd08      	pop	{r3, pc}
    18a6:	f000 fc99 	bl	21dc <__errno>
    18aa:	2309      	movs	r3, #9
    18ac:	6003      	str	r3, [r0, #0]
    18ae:	f04f 30ff 	mov.w	r0, #4294967295
    18b2:	e7f7      	b.n	18a4 <_close+0x10>
    18b4:	200005b0 	.word	0x200005b0

000018b8 <_fstat>:
    18b8:	4603      	mov	r3, r0
    18ba:	460a      	mov	r2, r1
    18bc:	4906      	ldr	r1, [pc, #24]	; (18d8 <_fstat+0x20>)
    18be:	68c8      	ldr	r0, [r1, #12]
    18c0:	b128      	cbz	r0, 18ce <_fstat+0x16>
    18c2:	b510      	push	{r4, lr}
    18c4:	6801      	ldr	r1, [r0, #0]
    18c6:	69cc      	ldr	r4, [r1, #28]
    18c8:	4619      	mov	r1, r3
    18ca:	47a0      	blx	r4
    18cc:	bd10      	pop	{r4, pc}
    18ce:	f44f 5300 	mov.w	r3, #8192	; 0x2000
    18d2:	6053      	str	r3, [r2, #4]
    18d4:	2000      	movs	r0, #0
    18d6:	4770      	bx	lr
    18d8:	200005b0 	.word	0x200005b0

000018dc <_lseek>:
    18dc:	4684      	mov	ip, r0
    18de:	4613      	mov	r3, r2
    18e0:	4a05      	ldr	r2, [pc, #20]	; (18f8 <_lseek+0x1c>)
    18e2:	68d0      	ldr	r0, [r2, #12]
    18e4:	b130      	cbz	r0, 18f4 <_lseek+0x18>
    18e6:	b510      	push	{r4, lr}
    18e8:	6802      	ldr	r2, [r0, #0]
    18ea:	6a14      	ldr	r4, [r2, #32]
    18ec:	460a      	mov	r2, r1
    18ee:	4661      	mov	r1, ip
    18f0:	47a0      	blx	r4
    18f2:	bd10      	pop	{r4, pc}
    18f4:	2000      	movs	r0, #0
    18f6:	4770      	bx	lr
    18f8:	200005b0 	.word	0x200005b0

000018fc <_isatty>:
    18fc:	2802      	cmp	r0, #2
    18fe:	d90f      	bls.n	1920 <_isatty+0x24>
    1900:	b508      	push	{r3, lr}
    1902:	4601      	mov	r1, r0
    1904:	4b07      	ldr	r3, [pc, #28]	; (1924 <_isatty+0x28>)
    1906:	68d8      	ldr	r0, [r3, #12]
    1908:	b118      	cbz	r0, 1912 <_isatty+0x16>
    190a:	6803      	ldr	r3, [r0, #0]
    190c:	6a5b      	ldr	r3, [r3, #36]	; 0x24
    190e:	4798      	blx	r3
    1910:	bd08      	pop	{r3, pc}
    1912:	f000 fc63 	bl	21dc <__errno>
    1916:	2309      	movs	r3, #9
    1918:	6003      	str	r3, [r0, #0]
    191a:	f04f 30ff 	mov.w	r0, #4294967295
    191e:	e7f7      	b.n	1910 <_isatty+0x14>
    1920:	2001      	movs	r0, #1
    1922:	4770      	bx	lr
    1924:	200005b0 	.word	0x200005b0

00001928 <posix_io::register_stdout(uart_interface&, bool)>:
    1928:	b508      	push	{r3, lr}
    192a:	6041      	str	r1, [r0, #4]
    192c:	7442      	strb	r2, [r0, #17]
    192e:	4b04      	ldr	r3, [pc, #16]	; (1940 <posix_io::register_stdout(uart_interface&, bool)+0x18>)
    1930:	6818      	ldr	r0, [r3, #0]
    1932:	2364      	movs	r3, #100	; 0x64
    1934:	2201      	movs	r2, #1
    1936:	2100      	movs	r1, #0
    1938:	6880      	ldr	r0, [r0, #8]
    193a:	f000 faf9 	bl	1f30 <setvbuf>
    193e:	bd08      	pop	{r3, pc}
    1940:	20000040 	.word	0x20000040

00001944 <_GLOBAL__sub_I__ZN8posix_io4instE>:
    1944:	b508      	push	{r3, lr}
    1946:	f64f 71ff 	movw	r1, #65535	; 0xffff
    194a:	2001      	movs	r0, #1
    194c:	f7ff fed2 	bl	16f4 <__static_initialization_and_destruction_0(int, int)>
    1950:	bd08      	pop	{r3, pc}

00001952 <irq_dispatcher::link_in()>:
    1952:	4770      	bx	lr

00001954 <Default_EUSCI_Handler>:
    1954:	e7fe      	b.n	1954 <Default_EUSCI_Handler>
	...

00001958 <EUSCIA0_IRQHandler>:
    1958:	b508      	push	{r3, lr}
    195a:	4b05      	ldr	r3, [pc, #20]	; (1970 <EUSCIA0_IRQHandler+0x18>)
    195c:	881b      	ldrh	r3, [r3, #0]
    195e:	f413 7f80 	tst.w	r3, #256	; 0x100
    1962:	d002      	beq.n	196a <EUSCIA0_IRQHandler+0x12>
    1964:	f7ff fff6 	bl	1954 <Default_EUSCI_Handler>
    1968:	bd08      	pop	{r3, pc}
    196a:	f7ff fc9b 	bl	12a4 <EUSCIA0_UART_IRQHandler>
    196e:	e7fb      	b.n	1968 <EUSCIA0_IRQHandler+0x10>
    1970:	40001000 	.word	0x40001000

00001974 <EUSCIA1_IRQHandler>:
    1974:	b508      	push	{r3, lr}
    1976:	4b05      	ldr	r3, [pc, #20]	; (198c <EUSCIA1_IRQHandler+0x18>)
    1978:	881b      	ldrh	r3, [r3, #0]
    197a:	f413 7f80 	tst.w	r3, #256	; 0x100
    197e:	d002      	beq.n	1986 <EUSCIA1_IRQHandler+0x12>
    1980:	f7ff ffe8 	bl	1954 <Default_EUSCI_Handler>
    1984:	bd08      	pop	{r3, pc}
    1986:	f7ff fc95 	bl	12b4 <EUSCIA1_UART_IRQHandler>
    198a:	e7fb      	b.n	1984 <EUSCIA1_IRQHandler+0x10>
    198c:	40001400 	.word	0x40001400

00001990 <EUSCIA2_IRQHandler>:
    1990:	b508      	push	{r3, lr}
    1992:	4b05      	ldr	r3, [pc, #20]	; (19a8 <EUSCIA2_IRQHandler+0x18>)
    1994:	881b      	ldrh	r3, [r3, #0]
    1996:	f413 7f80 	tst.w	r3, #256	; 0x100
    199a:	d002      	beq.n	19a2 <EUSCIA2_IRQHandler+0x12>
    199c:	f7ff ffda 	bl	1954 <Default_EUSCI_Handler>
    19a0:	bd08      	pop	{r3, pc}
    19a2:	f7ff fc8f 	bl	12c4 <EUSCIA2_UART_IRQHandler>
    19a6:	e7fb      	b.n	19a0 <EUSCIA2_IRQHandler+0x10>
    19a8:	40001800 	.word	0x40001800

000019ac <EUSCIA3_IRQHandler>:
    19ac:	b508      	push	{r3, lr}
    19ae:	4b05      	ldr	r3, [pc, #20]	; (19c4 <EUSCIA3_IRQHandler+0x18>)
    19b0:	881b      	ldrh	r3, [r3, #0]
    19b2:	f413 7f80 	tst.w	r3, #256	; 0x100
    19b6:	d002      	beq.n	19be <EUSCIA3_IRQHandler+0x12>
    19b8:	f7ff ffcc 	bl	1954 <Default_EUSCI_Handler>
    19bc:	bd08      	pop	{r3, pc}
    19be:	f7ff fc89 	bl	12d4 <EUSCIA3_UART_IRQHandler>
    19c2:	e7fb      	b.n	19bc <EUSCIA3_IRQHandler+0x10>
    19c4:	40001c00 	.word	0x40001c00

000019c8 <EUSCIB0_IRQHandler>:
    19c8:	b508      	push	{r3, lr}
    19ca:	4b06      	ldr	r3, [pc, #24]	; (19e4 <EUSCIB0_IRQHandler+0x1c>)
    19cc:	881b      	ldrh	r3, [r3, #0]
    19ce:	f403 63c0 	and.w	r3, r3, #1536	; 0x600
    19d2:	f5b3 6fc0 	cmp.w	r3, #1536	; 0x600
    19d6:	d002      	beq.n	19de <EUSCIB0_IRQHandler+0x16>
    19d8:	f7ff ffbc 	bl	1954 <Default_EUSCI_Handler>
    19dc:	bd08      	pop	{r3, pc}
    19de:	f7ff ffb9 	bl	1954 <Default_EUSCI_Handler>
    19e2:	e7fb      	b.n	19dc <EUSCIB0_IRQHandler+0x14>
    19e4:	40002000 	.word	0x40002000

000019e8 <EUSCIB1_IRQHandler>:
    19e8:	b508      	push	{r3, lr}
    19ea:	4b06      	ldr	r3, [pc, #24]	; (1a04 <EUSCIB1_IRQHandler+0x1c>)
    19ec:	881b      	ldrh	r3, [r3, #0]
    19ee:	f403 63c0 	and.w	r3, r3, #1536	; 0x600
    19f2:	f5b3 6fc0 	cmp.w	r3, #1536	; 0x600
    19f6:	d002      	beq.n	19fe <EUSCIB1_IRQHandler+0x16>
    19f8:	f7ff ffac 	bl	1954 <Default_EUSCI_Handler>
    19fc:	bd08      	pop	{r3, pc}
    19fe:	f7ff ffa9 	bl	1954 <Default_EUSCI_Handler>
    1a02:	e7fb      	b.n	19fc <EUSCIB1_IRQHandler+0x14>
    1a04:	40002400 	.word	0x40002400

00001a08 <EUSCIB2_IRQHandler>:
    1a08:	b508      	push	{r3, lr}
    1a0a:	4b06      	ldr	r3, [pc, #24]	; (1a24 <EUSCIB2_IRQHandler+0x1c>)
    1a0c:	881b      	ldrh	r3, [r3, #0]
    1a0e:	f403 63c0 	and.w	r3, r3, #1536	; 0x600
    1a12:	f5b3 6fc0 	cmp.w	r3, #1536	; 0x600
    1a16:	d002      	beq.n	1a1e <EUSCIB2_IRQHandler+0x16>
    1a18:	f7ff ff9c 	bl	1954 <Default_EUSCI_Handler>
    1a1c:	bd08      	pop	{r3, pc}
    1a1e:	f7ff ff99 	bl	1954 <Default_EUSCI_Handler>
    1a22:	e7fb      	b.n	1a1c <EUSCIB2_IRQHandler+0x14>
    1a24:	40002800 	.word	0x40002800

00001a28 <EUSCIB3_IRQHandler>:
    1a28:	b508      	push	{r3, lr}
    1a2a:	4b06      	ldr	r3, [pc, #24]	; (1a44 <EUSCIB3_IRQHandler+0x1c>)
    1a2c:	881b      	ldrh	r3, [r3, #0]
    1a2e:	f403 63c0 	and.w	r3, r3, #1536	; 0x600
    1a32:	f5b3 6fc0 	cmp.w	r3, #1536	; 0x600
    1a36:	d002      	beq.n	1a3e <EUSCIB3_IRQHandler+0x16>
    1a38:	f7ff ff8c 	bl	1954 <Default_EUSCI_Handler>
    1a3c:	bd08      	pop	{r3, pc}
    1a3e:	f7ff ff89 	bl	1954 <Default_EUSCI_Handler>
    1a42:	e7fb      	b.n	1a3c <EUSCIB3_IRQHandler+0x14>
    1a44:	40002c00 	.word	0x40002c00

00001a48 <__aeabi_atexit>:
    1a48:	460b      	mov	r3, r1
    1a4a:	4601      	mov	r1, r0
    1a4c:	4618      	mov	r0, r3
    1a4e:	f000 b8cd 	b.w	1bec <__cxa_atexit>

00001a52 <operator delete(void*, unsigned int)>:
    1a52:	f000 b800 	b.w	1a56 <operator delete(void*)>

00001a56 <operator delete(void*)>:
    1a56:	f000 b81b 	b.w	1a90 <free>
	...

00001a5c <exit>:
    1a5c:	b508      	push	{r3, lr}
    1a5e:	4b06      	ldr	r3, [pc, #24]	; (1a78 <exit+0x1c>)
    1a60:	4604      	mov	r4, r0
    1a62:	b113      	cbz	r3, 1a6a <exit+0xe>
    1a64:	2100      	movs	r1, #0
    1a66:	f3af 8000 	nop.w
    1a6a:	4b04      	ldr	r3, [pc, #16]	; (1a7c <exit+0x20>)
    1a6c:	681b      	ldr	r3, [r3, #0]
    1a6e:	b103      	cbz	r3, 1a72 <exit+0x16>
    1a70:	4798      	blx	r3
    1a72:	4620      	mov	r0, r4
    1a74:	f001 f82c 	bl	2ad0 <_exit>
    1a78:	00000000 	.word	0x00000000
    1a7c:	20000704 	.word	0x20000704

00001a80 <malloc>:
    1a80:	4b02      	ldr	r3, [pc, #8]	; (1a8c <malloc+0xc>)
    1a82:	4601      	mov	r1, r0
    1a84:	6818      	ldr	r0, [r3, #0]
    1a86:	f000 b82d 	b.w	1ae4 <_malloc_r>
    1a8a:	bf00      	nop
    1a8c:	20000040 	.word	0x20000040

00001a90 <free>:
    1a90:	4b02      	ldr	r3, [pc, #8]	; (1a9c <free+0xc>)
    1a92:	4601      	mov	r1, r0
    1a94:	6818      	ldr	r0, [r3, #0]
    1a96:	f000 bbcf 	b.w	2238 <_free_r>
    1a9a:	bf00      	nop
    1a9c:	20000040 	.word	0x20000040

00001aa0 <sbrk_aligned>:
    1aa0:	b570      	push	{r4, r5, r6, lr}
    1aa2:	4e0f      	ldr	r6, [pc, #60]	; (1ae0 <sbrk_aligned+0x40>)
    1aa4:	460c      	mov	r4, r1
    1aa6:	6831      	ldr	r1, [r6, #0]
    1aa8:	4605      	mov	r5, r0
    1aaa:	b911      	cbnz	r1, 1ab2 <sbrk_aligned+0x12>
    1aac:	f000 fb74 	bl	2198 <_sbrk_r>
    1ab0:	6030      	str	r0, [r6, #0]
    1ab2:	4621      	mov	r1, r4
    1ab4:	4628      	mov	r0, r5
    1ab6:	f000 fb6f 	bl	2198 <_sbrk_r>
    1aba:	1c43      	adds	r3, r0, #1
    1abc:	d103      	bne.n	1ac6 <sbrk_aligned+0x26>
    1abe:	f04f 34ff 	mov.w	r4, #4294967295
    1ac2:	4620      	mov	r0, r4
    1ac4:	bd70      	pop	{r4, r5, r6, pc}
    1ac6:	1cc4      	adds	r4, r0, #3
    1ac8:	f024 0403 	bic.w	r4, r4, #3
    1acc:	42a0      	cmp	r0, r4
    1ace:	d0f8      	beq.n	1ac2 <sbrk_aligned+0x22>
    1ad0:	1a21      	subs	r1, r4, r0
    1ad2:	4628      	mov	r0, r5
    1ad4:	f000 fb60 	bl	2198 <_sbrk_r>
    1ad8:	3001      	adds	r0, #1
    1ada:	d1f2      	bne.n	1ac2 <sbrk_aligned+0x22>
    1adc:	e7ef      	b.n	1abe <sbrk_aligned+0x1e>
    1ade:	bf00      	nop
    1ae0:	200005c8 	.word	0x200005c8

00001ae4 <_malloc_r>:
    1ae4:	e92d 41f0 	stmdb	sp!, {r4, r5, r6, r7, r8, lr}
    1ae8:	1ccd      	adds	r5, r1, #3
    1aea:	f025 0503 	bic.w	r5, r5, #3
    1aee:	3508      	adds	r5, #8
    1af0:	2d0c      	cmp	r5, #12
    1af2:	bf38      	it	cc
    1af4:	250c      	movcc	r5, #12
    1af6:	2d00      	cmp	r5, #0
    1af8:	4606      	mov	r6, r0
    1afa:	db01      	blt.n	1b00 <_malloc_r+0x1c>
    1afc:	42a9      	cmp	r1, r5
    1afe:	d904      	bls.n	1b0a <_malloc_r+0x26>
    1b00:	230c      	movs	r3, #12
    1b02:	6033      	str	r3, [r6, #0]
    1b04:	2000      	movs	r0, #0
    1b06:	e8bd 81f0 	ldmia.w	sp!, {r4, r5, r6, r7, r8, pc}
    1b0a:	4f31      	ldr	r7, [pc, #196]	; (1bd0 <_malloc_r+0xec>)
    1b0c:	f000 f862 	bl	1bd4 <__malloc_lock>
    1b10:	683b      	ldr	r3, [r7, #0]
    1b12:	461c      	mov	r4, r3
    1b14:	bb44      	cbnz	r4, 1b68 <_malloc_r+0x84>
    1b16:	4629      	mov	r1, r5
    1b18:	4630      	mov	r0, r6
    1b1a:	f7ff ffc1 	bl	1aa0 <sbrk_aligned>
    1b1e:	1c43      	adds	r3, r0, #1
    1b20:	4604      	mov	r4, r0
    1b22:	d150      	bne.n	1bc6 <_malloc_r+0xe2>
    1b24:	683c      	ldr	r4, [r7, #0]
    1b26:	4621      	mov	r1, r4
    1b28:	2900      	cmp	r1, #0
    1b2a:	d141      	bne.n	1bb0 <_malloc_r+0xcc>
    1b2c:	2c00      	cmp	r4, #0
    1b2e:	d044      	beq.n	1bba <_malloc_r+0xd6>
    1b30:	6823      	ldr	r3, [r4, #0]
    1b32:	4630      	mov	r0, r6
    1b34:	eb04 0803 	add.w	r8, r4, r3
    1b38:	f000 fb2e 	bl	2198 <_sbrk_r>
    1b3c:	4580      	cmp	r8, r0
    1b3e:	d13c      	bne.n	1bba <_malloc_r+0xd6>
    1b40:	6821      	ldr	r1, [r4, #0]
    1b42:	1a6d      	subs	r5, r5, r1
    1b44:	4629      	mov	r1, r5
    1b46:	4630      	mov	r0, r6
    1b48:	f7ff ffaa 	bl	1aa0 <sbrk_aligned>
    1b4c:	3001      	adds	r0, #1
    1b4e:	d034      	beq.n	1bba <_malloc_r+0xd6>
    1b50:	6823      	ldr	r3, [r4, #0]
    1b52:	442b      	add	r3, r5
    1b54:	6023      	str	r3, [r4, #0]
    1b56:	683b      	ldr	r3, [r7, #0]
    1b58:	2b00      	cmp	r3, #0
    1b5a:	d036      	beq.n	1bca <_malloc_r+0xe6>
    1b5c:	685a      	ldr	r2, [r3, #4]
    1b5e:	42a2      	cmp	r2, r4
    1b60:	d129      	bne.n	1bb6 <_malloc_r+0xd2>
    1b62:	2200      	movs	r2, #0
    1b64:	605a      	str	r2, [r3, #4]
    1b66:	e00e      	b.n	1b86 <_malloc_r+0xa2>
    1b68:	6822      	ldr	r2, [r4, #0]
    1b6a:	1b52      	subs	r2, r2, r5
    1b6c:	d41d      	bmi.n	1baa <_malloc_r+0xc6>
    1b6e:	2a0b      	cmp	r2, #11
    1b70:	d916      	bls.n	1ba0 <_malloc_r+0xbc>
    1b72:	1961      	adds	r1, r4, r5
    1b74:	42a3      	cmp	r3, r4
    1b76:	6025      	str	r5, [r4, #0]
    1b78:	bf18      	it	ne
    1b7a:	6059      	strne	r1, [r3, #4]
    1b7c:	6863      	ldr	r3, [r4, #4]
    1b7e:	bf08      	it	eq
    1b80:	6039      	streq	r1, [r7, #0]
    1b82:	5162      	str	r2, [r4, r5]
    1b84:	604b      	str	r3, [r1, #4]
    1b86:	4630      	mov	r0, r6
    1b88:	f000 f82a 	bl	1be0 <__malloc_unlock>
    1b8c:	f104 000b 	add.w	r0, r4, #11
    1b90:	1d23      	adds	r3, r4, #4
    1b92:	f020 0007 	bic.w	r0, r0, #7
    1b96:	1ac2      	subs	r2, r0, r3
    1b98:	d0b5      	beq.n	1b06 <_malloc_r+0x22>
    1b9a:	1a1b      	subs	r3, r3, r0
    1b9c:	50a3      	str	r3, [r4, r2]
    1b9e:	e7b2      	b.n	1b06 <_malloc_r+0x22>
    1ba0:	42a3      	cmp	r3, r4
    1ba2:	6862      	ldr	r2, [r4, #4]
    1ba4:	d1de      	bne.n	1b64 <_malloc_r+0x80>
    1ba6:	603a      	str	r2, [r7, #0]
    1ba8:	e7ed      	b.n	1b86 <_malloc_r+0xa2>
    1baa:	4623      	mov	r3, r4
    1bac:	6864      	ldr	r4, [r4, #4]
    1bae:	e7b1      	b.n	1b14 <_malloc_r+0x30>
    1bb0:	460c      	mov	r4, r1
    1bb2:	6849      	ldr	r1, [r1, #4]
    1bb4:	e7b8      	b.n	1b28 <_malloc_r+0x44>
    1bb6:	4613      	mov	r3, r2
    1bb8:	e7ce      	b.n	1b58 <_malloc_r+0x74>
    1bba:	230c      	movs	r3, #12
    1bbc:	6033      	str	r3, [r6, #0]
    1bbe:	4630      	mov	r0, r6
    1bc0:	f000 f80e 	bl	1be0 <__malloc_unlock>
    1bc4:	e79e      	b.n	1b04 <_malloc_r+0x20>
    1bc6:	6005      	str	r5, [r0, #0]
    1bc8:	e7dd      	b.n	1b86 <_malloc_r+0xa2>
    1bca:	605b      	str	r3, [r3, #4]
    1bcc:	deff      	udf	#255	; 0xff
    1bce:	bf00      	nop
    1bd0:	200005c4 	.word	0x200005c4

00001bd4 <__malloc_lock>:
    1bd4:	4801      	ldr	r0, [pc, #4]	; (1bdc <__malloc_lock+0x8>)
    1bd6:	f000 bb2c 	b.w	2232 <__retarget_lock_acquire_recursive>
    1bda:	bf00      	nop
    1bdc:	20000728 	.word	0x20000728

00001be0 <__malloc_unlock>:
    1be0:	4801      	ldr	r0, [pc, #4]	; (1be8 <__malloc_unlock+0x8>)
    1be2:	f000 bb27 	b.w	2234 <__retarget_lock_release_recursive>
    1be6:	bf00      	nop
    1be8:	20000728 	.word	0x20000728

00001bec <__cxa_atexit>:
    1bec:	b510      	push	{r4, lr}
    1bee:	4604      	mov	r4, r0
    1bf0:	4804      	ldr	r0, [pc, #16]	; (1c04 <__cxa_atexit+0x18>)
    1bf2:	4613      	mov	r3, r2
    1bf4:	b120      	cbz	r0, 1c00 <__cxa_atexit+0x14>
    1bf6:	460a      	mov	r2, r1
    1bf8:	2002      	movs	r0, #2
    1bfa:	4621      	mov	r1, r4
    1bfc:	f3af 8000 	nop.w
    1c00:	bd10      	pop	{r4, pc}
    1c02:	bf00      	nop
    1c04:	00000000 	.word	0x00000000

00001c08 <__sflush_r>:
    1c08:	f9b1 200c 	ldrsh.w	r2, [r1, #12]
    1c0c:	e92d 41f0 	stmdb	sp!, {r4, r5, r6, r7, r8, lr}
    1c10:	0717      	lsls	r7, r2, #28
    1c12:	4605      	mov	r5, r0
    1c14:	460c      	mov	r4, r1
    1c16:	d456      	bmi.n	1cc6 <__sflush_r+0xbe>
    1c18:	684b      	ldr	r3, [r1, #4]
    1c1a:	2b00      	cmp	r3, #0
    1c1c:	dc02      	bgt.n	1c24 <__sflush_r+0x1c>
    1c1e:	6c0b      	ldr	r3, [r1, #64]	; 0x40
    1c20:	2b00      	cmp	r3, #0
    1c22:	dd3d      	ble.n	1ca0 <__sflush_r+0x98>
    1c24:	6ae6      	ldr	r6, [r4, #44]	; 0x2c
    1c26:	2e00      	cmp	r6, #0
    1c28:	d03a      	beq.n	1ca0 <__sflush_r+0x98>
    1c2a:	2300      	movs	r3, #0
    1c2c:	f412 5280 	ands.w	r2, r2, #4096	; 0x1000
    1c30:	682f      	ldr	r7, [r5, #0]
    1c32:	6a21      	ldr	r1, [r4, #32]
    1c34:	602b      	str	r3, [r5, #0]
    1c36:	d025      	beq.n	1c84 <__sflush_r+0x7c>
    1c38:	6d62      	ldr	r2, [r4, #84]	; 0x54
    1c3a:	89a3      	ldrh	r3, [r4, #12]
    1c3c:	0758      	lsls	r0, r3, #29
    1c3e:	d505      	bpl.n	1c4c <__sflush_r+0x44>
    1c40:	6863      	ldr	r3, [r4, #4]
    1c42:	1ad2      	subs	r2, r2, r3
    1c44:	6b63      	ldr	r3, [r4, #52]	; 0x34
    1c46:	b10b      	cbz	r3, 1c4c <__sflush_r+0x44>
    1c48:	6c23      	ldr	r3, [r4, #64]	; 0x40
    1c4a:	1ad2      	subs	r2, r2, r3
    1c4c:	6a21      	ldr	r1, [r4, #32]
    1c4e:	6ae6      	ldr	r6, [r4, #44]	; 0x2c
    1c50:	2300      	movs	r3, #0
    1c52:	4628      	mov	r0, r5
    1c54:	47b0      	blx	r6
    1c56:	1c41      	adds	r1, r0, #1
    1c58:	d024      	beq.n	1ca4 <__sflush_r+0x9c>
    1c5a:	2300      	movs	r3, #0
    1c5c:	6063      	str	r3, [r4, #4]
    1c5e:	6923      	ldr	r3, [r4, #16]
    1c60:	6023      	str	r3, [r4, #0]
    1c62:	89a3      	ldrh	r3, [r4, #12]
    1c64:	04da      	lsls	r2, r3, #19
    1c66:	d500      	bpl.n	1c6a <__sflush_r+0x62>
    1c68:	6560      	str	r0, [r4, #84]	; 0x54
    1c6a:	6b61      	ldr	r1, [r4, #52]	; 0x34
    1c6c:	602f      	str	r7, [r5, #0]
    1c6e:	b1b9      	cbz	r1, 1ca0 <__sflush_r+0x98>
    1c70:	f104 0344 	add.w	r3, r4, #68	; 0x44
    1c74:	4299      	cmp	r1, r3
    1c76:	d002      	beq.n	1c7e <__sflush_r+0x76>
    1c78:	4628      	mov	r0, r5
    1c7a:	f000 fadd 	bl	2238 <_free_r>
    1c7e:	2300      	movs	r3, #0
    1c80:	6363      	str	r3, [r4, #52]	; 0x34
    1c82:	e00d      	b.n	1ca0 <__sflush_r+0x98>
    1c84:	2301      	movs	r3, #1
    1c86:	4628      	mov	r0, r5
    1c88:	47b0      	blx	r6
    1c8a:	1c46      	adds	r6, r0, #1
    1c8c:	4602      	mov	r2, r0
    1c8e:	d1d4      	bne.n	1c3a <__sflush_r+0x32>
    1c90:	682b      	ldr	r3, [r5, #0]
    1c92:	2b00      	cmp	r3, #0
    1c94:	d0d1      	beq.n	1c3a <__sflush_r+0x32>
    1c96:	2b1d      	cmp	r3, #29
    1c98:	d001      	beq.n	1c9e <__sflush_r+0x96>
    1c9a:	2b16      	cmp	r3, #22
    1c9c:	d12b      	bne.n	1cf6 <__sflush_r+0xee>
    1c9e:	602f      	str	r7, [r5, #0]
    1ca0:	2000      	movs	r0, #0
    1ca2:	e02f      	b.n	1d04 <__sflush_r+0xfc>
    1ca4:	682a      	ldr	r2, [r5, #0]
    1ca6:	f9b4 300c 	ldrsh.w	r3, [r4, #12]
    1caa:	b142      	cbz	r2, 1cbe <__sflush_r+0xb6>
    1cac:	2a1d      	cmp	r2, #29
    1cae:	d001      	beq.n	1cb4 <__sflush_r+0xac>
    1cb0:	2a16      	cmp	r2, #22
    1cb2:	d122      	bne.n	1cfa <__sflush_r+0xf2>
    1cb4:	2300      	movs	r3, #0
    1cb6:	6063      	str	r3, [r4, #4]
    1cb8:	6923      	ldr	r3, [r4, #16]
    1cba:	6023      	str	r3, [r4, #0]
    1cbc:	e7d5      	b.n	1c6a <__sflush_r+0x62>
    1cbe:	6062      	str	r2, [r4, #4]
    1cc0:	6922      	ldr	r2, [r4, #16]
    1cc2:	6022      	str	r2, [r4, #0]
    1cc4:	e7ce      	b.n	1c64 <__sflush_r+0x5c>
    1cc6:	690f      	ldr	r7, [r1, #16]
    1cc8:	2f00      	cmp	r7, #0
    1cca:	d0e9      	beq.n	1ca0 <__sflush_r+0x98>
    1ccc:	0793      	lsls	r3, r2, #30
    1cce:	680e      	ldr	r6, [r1, #0]
    1cd0:	bf08      	it	eq
    1cd2:	694b      	ldreq	r3, [r1, #20]
    1cd4:	600f      	str	r7, [r1, #0]
    1cd6:	bf18      	it	ne
    1cd8:	2300      	movne	r3, #0
    1cda:	eba6 0807 	sub.w	r8, r6, r7
    1cde:	608b      	str	r3, [r1, #8]
    1ce0:	f1b8 0f00 	cmp.w	r8, #0
    1ce4:	dddc      	ble.n	1ca0 <__sflush_r+0x98>
    1ce6:	6a21      	ldr	r1, [r4, #32]
    1ce8:	6aa6      	ldr	r6, [r4, #40]	; 0x28
    1cea:	4643      	mov	r3, r8
    1cec:	463a      	mov	r2, r7
    1cee:	4628      	mov	r0, r5
    1cf0:	47b0      	blx	r6
    1cf2:	2800      	cmp	r0, #0
    1cf4:	dc08      	bgt.n	1d08 <__sflush_r+0x100>
    1cf6:	f9b4 300c 	ldrsh.w	r3, [r4, #12]
    1cfa:	f043 0340 	orr.w	r3, r3, #64	; 0x40
    1cfe:	81a3      	strh	r3, [r4, #12]
    1d00:	f04f 30ff 	mov.w	r0, #4294967295
    1d04:	e8bd 81f0 	ldmia.w	sp!, {r4, r5, r6, r7, r8, pc}
    1d08:	4407      	add	r7, r0
    1d0a:	eba8 0800 	sub.w	r8, r8, r0
    1d0e:	e7e7      	b.n	1ce0 <__sflush_r+0xd8>

00001d10 <_fflush_r>:
    1d10:	b538      	push	{r3, r4, r5, lr}
    1d12:	690b      	ldr	r3, [r1, #16]
    1d14:	4605      	mov	r5, r0
    1d16:	460c      	mov	r4, r1
    1d18:	b913      	cbnz	r3, 1d20 <_fflush_r+0x10>
    1d1a:	2500      	movs	r5, #0
    1d1c:	4628      	mov	r0, r5
    1d1e:	bd38      	pop	{r3, r4, r5, pc}
    1d20:	b118      	cbz	r0, 1d2a <_fflush_r+0x1a>
    1d22:	6a03      	ldr	r3, [r0, #32]
    1d24:	b90b      	cbnz	r3, 1d2a <_fflush_r+0x1a>
    1d26:	f000 f8bb 	bl	1ea0 <__sinit>
    1d2a:	f9b4 300c 	ldrsh.w	r3, [r4, #12]
    1d2e:	2b00      	cmp	r3, #0
    1d30:	d0f3      	beq.n	1d1a <_fflush_r+0xa>
    1d32:	6e62      	ldr	r2, [r4, #100]	; 0x64
    1d34:	07d0      	lsls	r0, r2, #31
    1d36:	d404      	bmi.n	1d42 <_fflush_r+0x32>
    1d38:	0599      	lsls	r1, r3, #22
    1d3a:	d402      	bmi.n	1d42 <_fflush_r+0x32>
    1d3c:	6da0      	ldr	r0, [r4, #88]	; 0x58
    1d3e:	f000 fa78 	bl	2232 <__retarget_lock_acquire_recursive>
    1d42:	4628      	mov	r0, r5
    1d44:	4621      	mov	r1, r4
    1d46:	f7ff ff5f 	bl	1c08 <__sflush_r>
    1d4a:	6e63      	ldr	r3, [r4, #100]	; 0x64
    1d4c:	07da      	lsls	r2, r3, #31
    1d4e:	4605      	mov	r5, r0
    1d50:	d4e4      	bmi.n	1d1c <_fflush_r+0xc>
    1d52:	89a3      	ldrh	r3, [r4, #12]
    1d54:	059b      	lsls	r3, r3, #22
    1d56:	d4e1      	bmi.n	1d1c <_fflush_r+0xc>
    1d58:	6da0      	ldr	r0, [r4, #88]	; 0x58
    1d5a:	f000 fa6b 	bl	2234 <__retarget_lock_release_recursive>
    1d5e:	e7dd      	b.n	1d1c <_fflush_r+0xc>

00001d60 <fflush>:
    1d60:	4601      	mov	r1, r0
    1d62:	b920      	cbnz	r0, 1d6e <fflush+0xe>
    1d64:	4a04      	ldr	r2, [pc, #16]	; (1d78 <fflush+0x18>)
    1d66:	4905      	ldr	r1, [pc, #20]	; (1d7c <fflush+0x1c>)
    1d68:	4805      	ldr	r0, [pc, #20]	; (1d80 <fflush+0x20>)
    1d6a:	f000 b8b1 	b.w	1ed0 <_fwalk_sglue>
    1d6e:	4b05      	ldr	r3, [pc, #20]	; (1d84 <fflush+0x24>)
    1d70:	6818      	ldr	r0, [r3, #0]
    1d72:	f7ff bfcd 	b.w	1d10 <_fflush_r>
    1d76:	bf00      	nop
    1d78:	20000034 	.word	0x20000034
    1d7c:	00001d11 	.word	0x00001d11
    1d80:	20000044 	.word	0x20000044
    1d84:	20000040 	.word	0x20000040

00001d88 <std>:
    1d88:	2300      	movs	r3, #0
    1d8a:	b510      	push	{r4, lr}
    1d8c:	4604      	mov	r4, r0
    1d8e:	e9c0 3300 	strd	r3, r3, [r0]
    1d92:	e9c0 3304 	strd	r3, r3, [r0, #16]
    1d96:	6083      	str	r3, [r0, #8]
    1d98:	8181      	strh	r1, [r0, #12]
    1d9a:	6643      	str	r3, [r0, #100]	; 0x64
    1d9c:	81c2      	strh	r2, [r0, #14]
    1d9e:	6183      	str	r3, [r0, #24]
    1da0:	4619      	mov	r1, r3
    1da2:	2208      	movs	r2, #8
    1da4:	305c      	adds	r0, #92	; 0x5c
    1da6:	f000 f9ba 	bl	211e <memset>
    1daa:	4b0d      	ldr	r3, [pc, #52]	; (1de0 <std+0x58>)
    1dac:	6263      	str	r3, [r4, #36]	; 0x24
    1dae:	4b0d      	ldr	r3, [pc, #52]	; (1de4 <std+0x5c>)
    1db0:	62a3      	str	r3, [r4, #40]	; 0x28
    1db2:	4b0d      	ldr	r3, [pc, #52]	; (1de8 <std+0x60>)
    1db4:	62e3      	str	r3, [r4, #44]	; 0x2c
    1db6:	4b0d      	ldr	r3, [pc, #52]	; (1dec <std+0x64>)
    1db8:	6323      	str	r3, [r4, #48]	; 0x30
    1dba:	4b0d      	ldr	r3, [pc, #52]	; (1df0 <std+0x68>)
    1dbc:	6224      	str	r4, [r4, #32]
    1dbe:	429c      	cmp	r4, r3
    1dc0:	d006      	beq.n	1dd0 <std+0x48>
    1dc2:	f103 0268 	add.w	r2, r3, #104	; 0x68
    1dc6:	4294      	cmp	r4, r2
    1dc8:	d002      	beq.n	1dd0 <std+0x48>
    1dca:	33d0      	adds	r3, #208	; 0xd0
    1dcc:	429c      	cmp	r4, r3
    1dce:	d105      	bne.n	1ddc <std+0x54>
    1dd0:	f104 0058 	add.w	r0, r4, #88	; 0x58
    1dd4:	e8bd 4010 	ldmia.w	sp!, {r4, lr}
    1dd8:	f000 ba2a 	b.w	2230 <__retarget_lock_init_recursive>
    1ddc:	bd10      	pop	{r4, pc}
    1dde:	bf00      	nop
    1de0:	00002099 	.word	0x00002099
    1de4:	000020bb 	.word	0x000020bb
    1de8:	000020f3 	.word	0x000020f3
    1dec:	00002117 	.word	0x00002117
    1df0:	200005cc 	.word	0x200005cc

00001df4 <stdio_exit_handler>:
    1df4:	4a02      	ldr	r2, [pc, #8]	; (1e00 <stdio_exit_handler+0xc>)
    1df6:	4903      	ldr	r1, [pc, #12]	; (1e04 <stdio_exit_handler+0x10>)
    1df8:	4803      	ldr	r0, [pc, #12]	; (1e08 <stdio_exit_handler+0x14>)
    1dfa:	f000 b869 	b.w	1ed0 <_fwalk_sglue>
    1dfe:	bf00      	nop
    1e00:	20000034 	.word	0x20000034
    1e04:	00001d11 	.word	0x00001d11
    1e08:	20000044 	.word	0x20000044

00001e0c <cleanup_stdio>:
    1e0c:	6841      	ldr	r1, [r0, #4]
    1e0e:	4b0c      	ldr	r3, [pc, #48]	; (1e40 <cleanup_stdio+0x34>)
    1e10:	4299      	cmp	r1, r3
    1e12:	b510      	push	{r4, lr}
    1e14:	4604      	mov	r4, r0
    1e16:	d001      	beq.n	1e1c <cleanup_stdio+0x10>
    1e18:	f7ff ff7a 	bl	1d10 <_fflush_r>
    1e1c:	68a1      	ldr	r1, [r4, #8]
    1e1e:	4b09      	ldr	r3, [pc, #36]	; (1e44 <cleanup_stdio+0x38>)
    1e20:	4299      	cmp	r1, r3
    1e22:	d002      	beq.n	1e2a <cleanup_stdio+0x1e>
    1e24:	4620      	mov	r0, r4
    1e26:	f7ff ff73 	bl	1d10 <_fflush_r>
    1e2a:	68e1      	ldr	r1, [r4, #12]
    1e2c:	4b06      	ldr	r3, [pc, #24]	; (1e48 <cleanup_stdio+0x3c>)
    1e2e:	4299      	cmp	r1, r3
    1e30:	d004      	beq.n	1e3c <cleanup_stdio+0x30>
    1e32:	4620      	mov	r0, r4
    1e34:	e8bd 4010 	ldmia.w	sp!, {r4, lr}
    1e38:	f7ff bf6a 	b.w	1d10 <_fflush_r>
    1e3c:	bd10      	pop	{r4, pc}
    1e3e:	bf00      	nop
    1e40:	200005cc 	.word	0x200005cc
    1e44:	20000634 	.word	0x20000634
    1e48:	2000069c 	.word	0x2000069c

00001e4c <global_stdio_init.part.0>:
    1e4c:	b510      	push	{r4, lr}
    1e4e:	4b0b      	ldr	r3, [pc, #44]	; (1e7c <global_stdio_init.part.0+0x30>)
    1e50:	4c0b      	ldr	r4, [pc, #44]	; (1e80 <global_stdio_init.part.0+0x34>)
    1e52:	4a0c      	ldr	r2, [pc, #48]	; (1e84 <global_stdio_init.part.0+0x38>)
    1e54:	601a      	str	r2, [r3, #0]
    1e56:	4620      	mov	r0, r4
    1e58:	2200      	movs	r2, #0
    1e5a:	2104      	movs	r1, #4
    1e5c:	f7ff ff94 	bl	1d88 <std>
    1e60:	f104 0068 	add.w	r0, r4, #104	; 0x68
    1e64:	2201      	movs	r2, #1
    1e66:	2109      	movs	r1, #9
    1e68:	f7ff ff8e 	bl	1d88 <std>
    1e6c:	f104 00d0 	add.w	r0, r4, #208	; 0xd0
    1e70:	2202      	movs	r2, #2
    1e72:	e8bd 4010 	ldmia.w	sp!, {r4, lr}
    1e76:	2112      	movs	r1, #18
    1e78:	f7ff bf86 	b.w	1d88 <std>
    1e7c:	20000704 	.word	0x20000704
    1e80:	200005cc 	.word	0x200005cc
    1e84:	00001df5 	.word	0x00001df5

00001e88 <__sfp_lock_acquire>:
    1e88:	4801      	ldr	r0, [pc, #4]	; (1e90 <__sfp_lock_acquire+0x8>)
    1e8a:	f000 b9d2 	b.w	2232 <__retarget_lock_acquire_recursive>
    1e8e:	bf00      	nop
    1e90:	20000729 	.word	0x20000729

00001e94 <__sfp_lock_release>:
    1e94:	4801      	ldr	r0, [pc, #4]	; (1e9c <__sfp_lock_release+0x8>)
    1e96:	f000 b9cd 	b.w	2234 <__retarget_lock_release_recursive>
    1e9a:	bf00      	nop
    1e9c:	20000729 	.word	0x20000729

00001ea0 <__sinit>:
    1ea0:	b510      	push	{r4, lr}
    1ea2:	4604      	mov	r4, r0
    1ea4:	f7ff fff0 	bl	1e88 <__sfp_lock_acquire>
    1ea8:	6a23      	ldr	r3, [r4, #32]
    1eaa:	b11b      	cbz	r3, 1eb4 <__sinit+0x14>
    1eac:	e8bd 4010 	ldmia.w	sp!, {r4, lr}
    1eb0:	f7ff bff0 	b.w	1e94 <__sfp_lock_release>
    1eb4:	4b04      	ldr	r3, [pc, #16]	; (1ec8 <__sinit+0x28>)
    1eb6:	6223      	str	r3, [r4, #32]
    1eb8:	4b04      	ldr	r3, [pc, #16]	; (1ecc <__sinit+0x2c>)
    1eba:	681b      	ldr	r3, [r3, #0]
    1ebc:	2b00      	cmp	r3, #0
    1ebe:	d1f5      	bne.n	1eac <__sinit+0xc>
    1ec0:	f7ff ffc4 	bl	1e4c <global_stdio_init.part.0>
    1ec4:	e7f2      	b.n	1eac <__sinit+0xc>
    1ec6:	bf00      	nop
    1ec8:	00001e0d 	.word	0x00001e0d
    1ecc:	20000704 	.word	0x20000704

00001ed0 <_fwalk_sglue>:
    1ed0:	e92d 43f8 	stmdb	sp!, {r3, r4, r5, r6, r7, r8, r9, lr}
    1ed4:	4607      	mov	r7, r0
    1ed6:	4688      	mov	r8, r1
    1ed8:	4614      	mov	r4, r2
    1eda:	2600      	movs	r6, #0
    1edc:	e9d4 9501 	ldrd	r9, r5, [r4, #4]
    1ee0:	f1b9 0901 	subs.w	r9, r9, #1
    1ee4:	d505      	bpl.n	1ef2 <_fwalk_sglue+0x22>
    1ee6:	6824      	ldr	r4, [r4, #0]
    1ee8:	2c00      	cmp	r4, #0
    1eea:	d1f7      	bne.n	1edc <_fwalk_sglue+0xc>
    1eec:	4630      	mov	r0, r6
    1eee:	e8bd 83f8 	ldmia.w	sp!, {r3, r4, r5, r6, r7, r8, r9, pc}
    1ef2:	89ab      	ldrh	r3, [r5, #12]
    1ef4:	2b01      	cmp	r3, #1
    1ef6:	d907      	bls.n	1f08 <_fwalk_sglue+0x38>
    1ef8:	f9b5 300e 	ldrsh.w	r3, [r5, #14]
    1efc:	3301      	adds	r3, #1
    1efe:	d003      	beq.n	1f08 <_fwalk_sglue+0x38>
    1f00:	4629      	mov	r1, r5
    1f02:	4638      	mov	r0, r7
    1f04:	47c0      	blx	r8
    1f06:	4306      	orrs	r6, r0
    1f08:	3568      	adds	r5, #104	; 0x68
    1f0a:	e7e9      	b.n	1ee0 <_fwalk_sglue+0x10>

00001f0c <iprintf>:
    1f0c:	b40f      	push	{r0, r1, r2, r3}
    1f0e:	b507      	push	{r0, r1, r2, lr}
    1f10:	4906      	ldr	r1, [pc, #24]	; (1f2c <iprintf+0x20>)
    1f12:	ab04      	add	r3, sp, #16
    1f14:	6808      	ldr	r0, [r1, #0]
    1f16:	f853 2b04 	ldr.w	r2, [r3], #4
    1f1a:	6881      	ldr	r1, [r0, #8]
    1f1c:	9301      	str	r3, [sp, #4]
    1f1e:	f000 f9ff 	bl	2320 <_vfiprintf_r>
    1f22:	b003      	add	sp, #12
    1f24:	f85d eb04 	ldr.w	lr, [sp], #4
    1f28:	b004      	add	sp, #16
    1f2a:	4770      	bx	lr
    1f2c:	20000040 	.word	0x20000040

00001f30 <setvbuf>:
    1f30:	e92d 43f7 	stmdb	sp!, {r0, r1, r2, r4, r5, r6, r7, r8, r9, lr}
    1f34:	461d      	mov	r5, r3
    1f36:	4b57      	ldr	r3, [pc, #348]	; (2094 <setvbuf+0x164>)
    1f38:	681f      	ldr	r7, [r3, #0]
    1f3a:	4604      	mov	r4, r0
    1f3c:	460e      	mov	r6, r1
    1f3e:	4690      	mov	r8, r2
    1f40:	b127      	cbz	r7, 1f4c <setvbuf+0x1c>
    1f42:	6a3b      	ldr	r3, [r7, #32]
    1f44:	b913      	cbnz	r3, 1f4c <setvbuf+0x1c>
    1f46:	4638      	mov	r0, r7
    1f48:	f7ff ffaa 	bl	1ea0 <__sinit>
    1f4c:	f1b8 0f02 	cmp.w	r8, #2
    1f50:	d006      	beq.n	1f60 <setvbuf+0x30>
    1f52:	f1b8 0f01 	cmp.w	r8, #1
    1f56:	f200 809a 	bhi.w	208e <setvbuf+0x15e>
    1f5a:	2d00      	cmp	r5, #0
    1f5c:	f2c0 8097 	blt.w	208e <setvbuf+0x15e>
    1f60:	6e63      	ldr	r3, [r4, #100]	; 0x64
    1f62:	07d9      	lsls	r1, r3, #31
    1f64:	d405      	bmi.n	1f72 <setvbuf+0x42>
    1f66:	89a3      	ldrh	r3, [r4, #12]
    1f68:	059a      	lsls	r2, r3, #22
    1f6a:	d402      	bmi.n	1f72 <setvbuf+0x42>
    1f6c:	6da0      	ldr	r0, [r4, #88]	; 0x58
    1f6e:	f000 f960 	bl	2232 <__retarget_lock_acquire_recursive>
    1f72:	4621      	mov	r1, r4
    1f74:	4638      	mov	r0, r7
    1f76:	f7ff fecb 	bl	1d10 <_fflush_r>
    1f7a:	6b61      	ldr	r1, [r4, #52]	; 0x34
    1f7c:	b141      	cbz	r1, 1f90 <setvbuf+0x60>
    1f7e:	f104 0344 	add.w	r3, r4, #68	; 0x44
    1f82:	4299      	cmp	r1, r3
    1f84:	d002      	beq.n	1f8c <setvbuf+0x5c>
    1f86:	4638      	mov	r0, r7
    1f88:	f000 f956 	bl	2238 <_free_r>
    1f8c:	2300      	movs	r3, #0
    1f8e:	6363      	str	r3, [r4, #52]	; 0x34
    1f90:	2300      	movs	r3, #0
    1f92:	61a3      	str	r3, [r4, #24]
    1f94:	6063      	str	r3, [r4, #4]
    1f96:	89a3      	ldrh	r3, [r4, #12]
    1f98:	061b      	lsls	r3, r3, #24
    1f9a:	d503      	bpl.n	1fa4 <setvbuf+0x74>
    1f9c:	6921      	ldr	r1, [r4, #16]
    1f9e:	4638      	mov	r0, r7
    1fa0:	f000 f94a 	bl	2238 <_free_r>
    1fa4:	89a3      	ldrh	r3, [r4, #12]
    1fa6:	f423 634a 	bic.w	r3, r3, #3232	; 0xca0
    1faa:	f023 0303 	bic.w	r3, r3, #3
    1fae:	f1b8 0f02 	cmp.w	r8, #2
    1fb2:	81a3      	strh	r3, [r4, #12]
    1fb4:	d061      	beq.n	207a <setvbuf+0x14a>
    1fb6:	ab01      	add	r3, sp, #4
    1fb8:	466a      	mov	r2, sp
    1fba:	4621      	mov	r1, r4
    1fbc:	4638      	mov	r0, r7
    1fbe:	f000 fc61 	bl	2884 <__swhatbuf_r>
    1fc2:	89a3      	ldrh	r3, [r4, #12]
    1fc4:	4318      	orrs	r0, r3
    1fc6:	81a0      	strh	r0, [r4, #12]
    1fc8:	bb2d      	cbnz	r5, 2016 <setvbuf+0xe6>
    1fca:	9d00      	ldr	r5, [sp, #0]
    1fcc:	4628      	mov	r0, r5
    1fce:	f7ff fd57 	bl	1a80 <malloc>
    1fd2:	4606      	mov	r6, r0
    1fd4:	2800      	cmp	r0, #0
    1fd6:	d152      	bne.n	207e <setvbuf+0x14e>
    1fd8:	f8dd 9000 	ldr.w	r9, [sp]
    1fdc:	45a9      	cmp	r9, r5
    1fde:	d140      	bne.n	2062 <setvbuf+0x132>
    1fe0:	f04f 35ff 	mov.w	r5, #4294967295
    1fe4:	f9b4 300c 	ldrsh.w	r3, [r4, #12]
    1fe8:	f043 0202 	orr.w	r2, r3, #2
    1fec:	81a2      	strh	r2, [r4, #12]
    1fee:	2200      	movs	r2, #0
    1ff0:	60a2      	str	r2, [r4, #8]
    1ff2:	f104 0247 	add.w	r2, r4, #71	; 0x47
    1ff6:	6022      	str	r2, [r4, #0]
    1ff8:	6122      	str	r2, [r4, #16]
    1ffa:	2201      	movs	r2, #1
    1ffc:	6162      	str	r2, [r4, #20]
    1ffe:	6e62      	ldr	r2, [r4, #100]	; 0x64
    2000:	07d6      	lsls	r6, r2, #31
    2002:	d404      	bmi.n	200e <setvbuf+0xde>
    2004:	0598      	lsls	r0, r3, #22
    2006:	d402      	bmi.n	200e <setvbuf+0xde>
    2008:	6da0      	ldr	r0, [r4, #88]	; 0x58
    200a:	f000 f913 	bl	2234 <__retarget_lock_release_recursive>
    200e:	4628      	mov	r0, r5
    2010:	b003      	add	sp, #12
    2012:	e8bd 83f0 	ldmia.w	sp!, {r4, r5, r6, r7, r8, r9, pc}
    2016:	2e00      	cmp	r6, #0
    2018:	d0d8      	beq.n	1fcc <setvbuf+0x9c>
    201a:	6a3b      	ldr	r3, [r7, #32]
    201c:	b913      	cbnz	r3, 2024 <setvbuf+0xf4>
    201e:	4638      	mov	r0, r7
    2020:	f7ff ff3e 	bl	1ea0 <__sinit>
    2024:	f1b8 0f01 	cmp.w	r8, #1
    2028:	bf08      	it	eq
    202a:	89a3      	ldrheq	r3, [r4, #12]
    202c:	6026      	str	r6, [r4, #0]
    202e:	bf04      	itt	eq
    2030:	f043 0301 	orreq.w	r3, r3, #1
    2034:	81a3      	strheq	r3, [r4, #12]
    2036:	f9b4 300c 	ldrsh.w	r3, [r4, #12]
    203a:	f013 0208 	ands.w	r2, r3, #8
    203e:	e9c4 6504 	strd	r6, r5, [r4, #16]
    2042:	d01e      	beq.n	2082 <setvbuf+0x152>
    2044:	07d9      	lsls	r1, r3, #31
    2046:	bf41      	itttt	mi
    2048:	2200      	movmi	r2, #0
    204a:	426d      	negmi	r5, r5
    204c:	60a2      	strmi	r2, [r4, #8]
    204e:	61a5      	strmi	r5, [r4, #24]
    2050:	bf58      	it	pl
    2052:	60a5      	strpl	r5, [r4, #8]
    2054:	6e62      	ldr	r2, [r4, #100]	; 0x64
    2056:	07d2      	lsls	r2, r2, #31
    2058:	d401      	bmi.n	205e <setvbuf+0x12e>
    205a:	059b      	lsls	r3, r3, #22
    205c:	d513      	bpl.n	2086 <setvbuf+0x156>
    205e:	2500      	movs	r5, #0
    2060:	e7d5      	b.n	200e <setvbuf+0xde>
    2062:	4648      	mov	r0, r9
    2064:	f7ff fd0c 	bl	1a80 <malloc>
    2068:	4606      	mov	r6, r0
    206a:	2800      	cmp	r0, #0
    206c:	d0b8      	beq.n	1fe0 <setvbuf+0xb0>
    206e:	89a3      	ldrh	r3, [r4, #12]
    2070:	f043 0380 	orr.w	r3, r3, #128	; 0x80
    2074:	81a3      	strh	r3, [r4, #12]
    2076:	464d      	mov	r5, r9
    2078:	e7cf      	b.n	201a <setvbuf+0xea>
    207a:	2500      	movs	r5, #0
    207c:	e7b2      	b.n	1fe4 <setvbuf+0xb4>
    207e:	46a9      	mov	r9, r5
    2080:	e7f5      	b.n	206e <setvbuf+0x13e>
    2082:	60a2      	str	r2, [r4, #8]
    2084:	e7e6      	b.n	2054 <setvbuf+0x124>
    2086:	6da0      	ldr	r0, [r4, #88]	; 0x58
    2088:	f000 f8d4 	bl	2234 <__retarget_lock_release_recursive>
    208c:	e7e7      	b.n	205e <setvbuf+0x12e>
    208e:	f04f 35ff 	mov.w	r5, #4294967295
    2092:	e7bc      	b.n	200e <setvbuf+0xde>
    2094:	20000040 	.word	0x20000040

00002098 <__sread>:
    2098:	b510      	push	{r4, lr}
    209a:	460c      	mov	r4, r1
    209c:	f9b1 100e 	ldrsh.w	r1, [r1, #14]
    20a0:	f000 f868 	bl	2174 <_read_r>
    20a4:	2800      	cmp	r0, #0
    20a6:	bfab      	itete	ge
    20a8:	6d63      	ldrge	r3, [r4, #84]	; 0x54
    20aa:	89a3      	ldrhlt	r3, [r4, #12]
    20ac:	181b      	addge	r3, r3, r0
    20ae:	f423 5380 	biclt.w	r3, r3, #4096	; 0x1000
    20b2:	bfac      	ite	ge
    20b4:	6563      	strge	r3, [r4, #84]	; 0x54
    20b6:	81a3      	strhlt	r3, [r4, #12]
    20b8:	bd10      	pop	{r4, pc}

000020ba <__swrite>:
    20ba:	e92d 41f0 	stmdb	sp!, {r4, r5, r6, r7, r8, lr}
    20be:	461f      	mov	r7, r3
    20c0:	898b      	ldrh	r3, [r1, #12]
    20c2:	05db      	lsls	r3, r3, #23
    20c4:	4605      	mov	r5, r0
    20c6:	460c      	mov	r4, r1
    20c8:	4616      	mov	r6, r2
    20ca:	d505      	bpl.n	20d8 <__swrite+0x1e>
    20cc:	f9b1 100e 	ldrsh.w	r1, [r1, #14]
    20d0:	2302      	movs	r3, #2
    20d2:	2200      	movs	r2, #0
    20d4:	f000 f83c 	bl	2150 <_lseek_r>
    20d8:	89a3      	ldrh	r3, [r4, #12]
    20da:	f9b4 100e 	ldrsh.w	r1, [r4, #14]
    20de:	f423 5380 	bic.w	r3, r3, #4096	; 0x1000
    20e2:	81a3      	strh	r3, [r4, #12]
    20e4:	4632      	mov	r2, r6
    20e6:	463b      	mov	r3, r7
    20e8:	4628      	mov	r0, r5
    20ea:	e8bd 41f0 	ldmia.w	sp!, {r4, r5, r6, r7, r8, lr}
    20ee:	f000 b863 	b.w	21b8 <_write_r>

000020f2 <__sseek>:
    20f2:	b510      	push	{r4, lr}
    20f4:	460c      	mov	r4, r1
    20f6:	f9b1 100e 	ldrsh.w	r1, [r1, #14]
    20fa:	f000 f829 	bl	2150 <_lseek_r>
    20fe:	1c43      	adds	r3, r0, #1
    2100:	89a3      	ldrh	r3, [r4, #12]
    2102:	bf15      	itete	ne
    2104:	6560      	strne	r0, [r4, #84]	; 0x54
    2106:	f423 5380 	biceq.w	r3, r3, #4096	; 0x1000
    210a:	f443 5380 	orrne.w	r3, r3, #4096	; 0x1000
    210e:	81a3      	strheq	r3, [r4, #12]
    2110:	bf18      	it	ne
    2112:	81a3      	strhne	r3, [r4, #12]
    2114:	bd10      	pop	{r4, pc}

00002116 <__sclose>:
    2116:	f9b1 100e 	ldrsh.w	r1, [r1, #14]
    211a:	f000 b809 	b.w	2130 <_close_r>

0000211e <memset>:
    211e:	4402      	add	r2, r0
    2120:	4603      	mov	r3, r0
    2122:	4293      	cmp	r3, r2
    2124:	d100      	bne.n	2128 <memset+0xa>
    2126:	4770      	bx	lr
    2128:	f803 1b01 	strb.w	r1, [r3], #1
    212c:	e7f9      	b.n	2122 <memset+0x4>
	...

00002130 <_close_r>:
    2130:	b538      	push	{r3, r4, r5, lr}
    2132:	4d06      	ldr	r5, [pc, #24]	; (214c <_close_r+0x1c>)
    2134:	2300      	movs	r3, #0
    2136:	4604      	mov	r4, r0
    2138:	4608      	mov	r0, r1
    213a:	602b      	str	r3, [r5, #0]
    213c:	f7ff fbaa 	bl	1894 <_close>
    2140:	1c43      	adds	r3, r0, #1
    2142:	d102      	bne.n	214a <_close_r+0x1a>
    2144:	682b      	ldr	r3, [r5, #0]
    2146:	b103      	cbz	r3, 214a <_close_r+0x1a>
    2148:	6023      	str	r3, [r4, #0]
    214a:	bd38      	pop	{r3, r4, r5, pc}
    214c:	20000708 	.word	0x20000708

00002150 <_lseek_r>:
    2150:	b538      	push	{r3, r4, r5, lr}
    2152:	4d07      	ldr	r5, [pc, #28]	; (2170 <_lseek_r+0x20>)
    2154:	4604      	mov	r4, r0
    2156:	4608      	mov	r0, r1
    2158:	4611      	mov	r1, r2
    215a:	2200      	movs	r2, #0
    215c:	602a      	str	r2, [r5, #0]
    215e:	461a      	mov	r2, r3
    2160:	f7ff fbbc 	bl	18dc <_lseek>
    2164:	1c43      	adds	r3, r0, #1
    2166:	d102      	bne.n	216e <_lseek_r+0x1e>
    2168:	682b      	ldr	r3, [r5, #0]
    216a:	b103      	cbz	r3, 216e <_lseek_r+0x1e>
    216c:	6023      	str	r3, [r4, #0]
    216e:	bd38      	pop	{r3, r4, r5, pc}
    2170:	20000708 	.word	0x20000708

00002174 <_read_r>:
    2174:	b538      	push	{r3, r4, r5, lr}
    2176:	4d07      	ldr	r5, [pc, #28]	; (2194 <_read_r+0x20>)
    2178:	4604      	mov	r4, r0
    217a:	4608      	mov	r0, r1
    217c:	4611      	mov	r1, r2
    217e:	2200      	movs	r2, #0
    2180:	602a      	str	r2, [r5, #0]
    2182:	461a      	mov	r2, r3
    2184:	f7ff faca 	bl	171c <_read>
    2188:	1c43      	adds	r3, r0, #1
    218a:	d102      	bne.n	2192 <_read_r+0x1e>
    218c:	682b      	ldr	r3, [r5, #0]
    218e:	b103      	cbz	r3, 2192 <_read_r+0x1e>
    2190:	6023      	str	r3, [r4, #0]
    2192:	bd38      	pop	{r3, r4, r5, pc}
    2194:	20000708 	.word	0x20000708

00002198 <_sbrk_r>:
    2198:	b538      	push	{r3, r4, r5, lr}
    219a:	4d06      	ldr	r5, [pc, #24]	; (21b4 <_sbrk_r+0x1c>)
    219c:	2300      	movs	r3, #0
    219e:	4604      	mov	r4, r0
    21a0:	4608      	mov	r0, r1
    21a2:	602b      	str	r3, [r5, #0]
    21a4:	f000 fc86 	bl	2ab4 <_sbrk>
    21a8:	1c43      	adds	r3, r0, #1
    21aa:	d102      	bne.n	21b2 <_sbrk_r+0x1a>
    21ac:	682b      	ldr	r3, [r5, #0]
    21ae:	b103      	cbz	r3, 21b2 <_sbrk_r+0x1a>
    21b0:	6023      	str	r3, [r4, #0]
    21b2:	bd38      	pop	{r3, r4, r5, pc}
    21b4:	20000708 	.word	0x20000708

000021b8 <_write_r>:
    21b8:	b538      	push	{r3, r4, r5, lr}
    21ba:	4d07      	ldr	r5, [pc, #28]	; (21d8 <_write_r+0x20>)
    21bc:	4604      	mov	r4, r0
    21be:	4608      	mov	r0, r1
    21c0:	4611      	mov	r1, r2
    21c2:	2200      	movs	r2, #0
    21c4:	602a      	str	r2, [r5, #0]
    21c6:	461a      	mov	r2, r3
    21c8:	f7ff fae4 	bl	1794 <_write>
    21cc:	1c43      	adds	r3, r0, #1
    21ce:	d102      	bne.n	21d6 <_write_r+0x1e>
    21d0:	682b      	ldr	r3, [r5, #0]
    21d2:	b103      	cbz	r3, 21d6 <_write_r+0x1e>
    21d4:	6023      	str	r3, [r4, #0]
    21d6:	bd38      	pop	{r3, r4, r5, pc}
    21d8:	20000708 	.word	0x20000708

000021dc <__errno>:
    21dc:	4b01      	ldr	r3, [pc, #4]	; (21e4 <__errno+0x8>)
    21de:	6818      	ldr	r0, [r3, #0]
    21e0:	4770      	bx	lr
    21e2:	bf00      	nop
    21e4:	20000040 	.word	0x20000040

000021e8 <__libc_init_array>:
    21e8:	b570      	push	{r4, r5, r6, lr}
    21ea:	4d0d      	ldr	r5, [pc, #52]	; (2220 <__libc_init_array+0x38>)
    21ec:	4c0d      	ldr	r4, [pc, #52]	; (2224 <__libc_init_array+0x3c>)
    21ee:	1b64      	subs	r4, r4, r5
    21f0:	10a4      	asrs	r4, r4, #2
    21f2:	2600      	movs	r6, #0
    21f4:	42a6      	cmp	r6, r4
    21f6:	d109      	bne.n	220c <__libc_init_array+0x24>
    21f8:	4d0b      	ldr	r5, [pc, #44]	; (2228 <__libc_init_array+0x40>)
    21fa:	4c0c      	ldr	r4, [pc, #48]	; (222c <__libc_init_array+0x44>)
    21fc:	f000 fc6a 	bl	2ad4 <_init>
    2200:	1b64      	subs	r4, r4, r5
    2202:	10a4      	asrs	r4, r4, #2
    2204:	2600      	movs	r6, #0
    2206:	42a6      	cmp	r6, r4
    2208:	d105      	bne.n	2216 <__libc_init_array+0x2e>
    220a:	bd70      	pop	{r4, r5, r6, pc}
    220c:	f855 3b04 	ldr.w	r3, [r5], #4
    2210:	4798      	blx	r3
    2212:	3601      	adds	r6, #1
    2214:	e7ee      	b.n	21f4 <__libc_init_array+0xc>
    2216:	f855 3b04 	ldr.w	r3, [r5], #4
    221a:	4798      	blx	r3
    221c:	3601      	adds	r6, #1
    221e:	e7f2      	b.n	2206 <__libc_init_array+0x1e>
    2220:	00002aec 	.word	0x00002aec
    2224:	00002aec 	.word	0x00002aec
    2228:	00002aec 	.word	0x00002aec
    222c:	00002b00 	.word	0x00002b00

00002230 <__retarget_lock_init_recursive>:
    2230:	4770      	bx	lr

00002232 <__retarget_lock_acquire_recursive>:
    2232:	4770      	bx	lr

00002234 <__retarget_lock_release_recursive>:
    2234:	4770      	bx	lr
	...

00002238 <_free_r>:
    2238:	b538      	push	{r3, r4, r5, lr}
    223a:	4605      	mov	r5, r0
    223c:	2900      	cmp	r1, #0
    223e:	d041      	beq.n	22c4 <_free_r+0x8c>
    2240:	f851 3c04 	ldr.w	r3, [r1, #-4]
    2244:	1f0c      	subs	r4, r1, #4
    2246:	2b00      	cmp	r3, #0
    2248:	bfb8      	it	lt
    224a:	18e4      	addlt	r4, r4, r3
    224c:	f7ff fcc2 	bl	1bd4 <__malloc_lock>
    2250:	4a1d      	ldr	r2, [pc, #116]	; (22c8 <_free_r+0x90>)
    2252:	6813      	ldr	r3, [r2, #0]
    2254:	b933      	cbnz	r3, 2264 <_free_r+0x2c>
    2256:	6063      	str	r3, [r4, #4]
    2258:	6014      	str	r4, [r2, #0]
    225a:	4628      	mov	r0, r5
    225c:	e8bd 4038 	ldmia.w	sp!, {r3, r4, r5, lr}
    2260:	f7ff bcbe 	b.w	1be0 <__malloc_unlock>
    2264:	42a3      	cmp	r3, r4
    2266:	d908      	bls.n	227a <_free_r+0x42>
    2268:	6820      	ldr	r0, [r4, #0]
    226a:	1821      	adds	r1, r4, r0
    226c:	428b      	cmp	r3, r1
    226e:	bf01      	itttt	eq
    2270:	6819      	ldreq	r1, [r3, #0]
    2272:	685b      	ldreq	r3, [r3, #4]
    2274:	1809      	addeq	r1, r1, r0
    2276:	6021      	streq	r1, [r4, #0]
    2278:	e7ed      	b.n	2256 <_free_r+0x1e>
    227a:	461a      	mov	r2, r3
    227c:	685b      	ldr	r3, [r3, #4]
    227e:	b10b      	cbz	r3, 2284 <_free_r+0x4c>
    2280:	42a3      	cmp	r3, r4
    2282:	d9fa      	bls.n	227a <_free_r+0x42>
    2284:	6811      	ldr	r1, [r2, #0]
    2286:	1850      	adds	r0, r2, r1
    2288:	42a0      	cmp	r0, r4
    228a:	d10b      	bne.n	22a4 <_free_r+0x6c>
    228c:	6820      	ldr	r0, [r4, #0]
    228e:	4401      	add	r1, r0
    2290:	1850      	adds	r0, r2, r1
    2292:	4283      	cmp	r3, r0
    2294:	6011      	str	r1, [r2, #0]
    2296:	d1e0      	bne.n	225a <_free_r+0x22>
    2298:	6818      	ldr	r0, [r3, #0]
    229a:	685b      	ldr	r3, [r3, #4]
    229c:	6053      	str	r3, [r2, #4]
    229e:	4408      	add	r0, r1
    22a0:	6010      	str	r0, [r2, #0]
    22a2:	e7da      	b.n	225a <_free_r+0x22>
    22a4:	d902      	bls.n	22ac <_free_r+0x74>
    22a6:	230c      	movs	r3, #12
    22a8:	602b      	str	r3, [r5, #0]
    22aa:	e7d6      	b.n	225a <_free_r+0x22>
    22ac:	6820      	ldr	r0, [r4, #0]
    22ae:	1821      	adds	r1, r4, r0
    22b0:	428b      	cmp	r3, r1
    22b2:	bf04      	itt	eq
    22b4:	6819      	ldreq	r1, [r3, #0]
    22b6:	685b      	ldreq	r3, [r3, #4]
    22b8:	6063      	str	r3, [r4, #4]
    22ba:	bf04      	itt	eq
    22bc:	1809      	addeq	r1, r1, r0
    22be:	6021      	streq	r1, [r4, #0]
    22c0:	6054      	str	r4, [r2, #4]
    22c2:	e7ca      	b.n	225a <_free_r+0x22>
    22c4:	bd38      	pop	{r3, r4, r5, pc}
    22c6:	bf00      	nop
    22c8:	200005c4 	.word	0x200005c4

000022cc <__sfputc_r>:
    22cc:	6893      	ldr	r3, [r2, #8]
    22ce:	3b01      	subs	r3, #1
    22d0:	2b00      	cmp	r3, #0
    22d2:	b410      	push	{r4}
    22d4:	6093      	str	r3, [r2, #8]
    22d6:	da08      	bge.n	22ea <__sfputc_r+0x1e>
    22d8:	6994      	ldr	r4, [r2, #24]
    22da:	42a3      	cmp	r3, r4
    22dc:	db01      	blt.n	22e2 <__sfputc_r+0x16>
    22de:	290a      	cmp	r1, #10
    22e0:	d103      	bne.n	22ea <__sfputc_r+0x1e>
    22e2:	f85d 4b04 	ldr.w	r4, [sp], #4
    22e6:	f000 bb2f 	b.w	2948 <__swbuf_r>
    22ea:	6813      	ldr	r3, [r2, #0]
    22ec:	1c58      	adds	r0, r3, #1
    22ee:	6010      	str	r0, [r2, #0]
    22f0:	7019      	strb	r1, [r3, #0]
    22f2:	4608      	mov	r0, r1
    22f4:	f85d 4b04 	ldr.w	r4, [sp], #4
    22f8:	4770      	bx	lr

000022fa <__sfputs_r>:
    22fa:	b5f8      	push	{r3, r4, r5, r6, r7, lr}
    22fc:	4606      	mov	r6, r0
    22fe:	460f      	mov	r7, r1
    2300:	4614      	mov	r4, r2
    2302:	18d5      	adds	r5, r2, r3
    2304:	42ac      	cmp	r4, r5
    2306:	d101      	bne.n	230c <__sfputs_r+0x12>
    2308:	2000      	movs	r0, #0
    230a:	e007      	b.n	231c <__sfputs_r+0x22>
    230c:	f814 1b01 	ldrb.w	r1, [r4], #1
    2310:	463a      	mov	r2, r7
    2312:	4630      	mov	r0, r6
    2314:	f7ff ffda 	bl	22cc <__sfputc_r>
    2318:	1c43      	adds	r3, r0, #1
    231a:	d1f3      	bne.n	2304 <__sfputs_r+0xa>
    231c:	bdf8      	pop	{r3, r4, r5, r6, r7, pc}
	...

00002320 <_vfiprintf_r>:
    2320:	e92d 4ff0 	stmdb	sp!, {r4, r5, r6, r7, r8, r9, sl, fp, lr}
    2324:	460d      	mov	r5, r1
    2326:	b09d      	sub	sp, #116	; 0x74
    2328:	4614      	mov	r4, r2
    232a:	4698      	mov	r8, r3
    232c:	4606      	mov	r6, r0
    232e:	b118      	cbz	r0, 2338 <_vfiprintf_r+0x18>
    2330:	6a03      	ldr	r3, [r0, #32]
    2332:	b90b      	cbnz	r3, 2338 <_vfiprintf_r+0x18>
    2334:	f7ff fdb4 	bl	1ea0 <__sinit>
    2338:	6e6b      	ldr	r3, [r5, #100]	; 0x64
    233a:	07d9      	lsls	r1, r3, #31
    233c:	d405      	bmi.n	234a <_vfiprintf_r+0x2a>
    233e:	89ab      	ldrh	r3, [r5, #12]
    2340:	059a      	lsls	r2, r3, #22
    2342:	d402      	bmi.n	234a <_vfiprintf_r+0x2a>
    2344:	6da8      	ldr	r0, [r5, #88]	; 0x58
    2346:	f7ff ff74 	bl	2232 <__retarget_lock_acquire_recursive>
    234a:	89ab      	ldrh	r3, [r5, #12]
    234c:	071b      	lsls	r3, r3, #28
    234e:	d501      	bpl.n	2354 <_vfiprintf_r+0x34>
    2350:	692b      	ldr	r3, [r5, #16]
    2352:	b99b      	cbnz	r3, 237c <_vfiprintf_r+0x5c>
    2354:	4629      	mov	r1, r5
    2356:	4630      	mov	r0, r6
    2358:	f000 fb34 	bl	29c4 <__swsetup_r>
    235c:	b170      	cbz	r0, 237c <_vfiprintf_r+0x5c>
    235e:	6e6b      	ldr	r3, [r5, #100]	; 0x64
    2360:	07dc      	lsls	r4, r3, #31
    2362:	d504      	bpl.n	236e <_vfiprintf_r+0x4e>
    2364:	f04f 30ff 	mov.w	r0, #4294967295
    2368:	b01d      	add	sp, #116	; 0x74
    236a:	e8bd 8ff0 	ldmia.w	sp!, {r4, r5, r6, r7, r8, r9, sl, fp, pc}
    236e:	89ab      	ldrh	r3, [r5, #12]
    2370:	0598      	lsls	r0, r3, #22
    2372:	d4f7      	bmi.n	2364 <_vfiprintf_r+0x44>
    2374:	6da8      	ldr	r0, [r5, #88]	; 0x58
    2376:	f7ff ff5d 	bl	2234 <__retarget_lock_release_recursive>
    237a:	e7f3      	b.n	2364 <_vfiprintf_r+0x44>
    237c:	2300      	movs	r3, #0
    237e:	9309      	str	r3, [sp, #36]	; 0x24
    2380:	2320      	movs	r3, #32
    2382:	f88d 3029 	strb.w	r3, [sp, #41]	; 0x29
    2386:	f8cd 800c 	str.w	r8, [sp, #12]
    238a:	2330      	movs	r3, #48	; 0x30
    238c:	f8df 81ac 	ldr.w	r8, [pc, #428]	; 253c <_vfiprintf_r+0x21c>
    2390:	f88d 302a 	strb.w	r3, [sp, #42]	; 0x2a
    2394:	f04f 0901 	mov.w	r9, #1
    2398:	4623      	mov	r3, r4
    239a:	469a      	mov	sl, r3
    239c:	f813 2b01 	ldrb.w	r2, [r3], #1
    23a0:	b10a      	cbz	r2, 23a6 <_vfiprintf_r+0x86>
    23a2:	2a25      	cmp	r2, #37	; 0x25
    23a4:	d1f9      	bne.n	239a <_vfiprintf_r+0x7a>
    23a6:	ebba 0b04 	subs.w	fp, sl, r4
    23aa:	d00b      	beq.n	23c4 <_vfiprintf_r+0xa4>
    23ac:	465b      	mov	r3, fp
    23ae:	4622      	mov	r2, r4
    23b0:	4629      	mov	r1, r5
    23b2:	4630      	mov	r0, r6
    23b4:	f7ff ffa1 	bl	22fa <__sfputs_r>
    23b8:	3001      	adds	r0, #1
    23ba:	f000 80a7 	beq.w	250c <_vfiprintf_r+0x1ec>
    23be:	9a09      	ldr	r2, [sp, #36]	; 0x24
    23c0:	445a      	add	r2, fp
    23c2:	9209      	str	r2, [sp, #36]	; 0x24
    23c4:	f89a 3000 	ldrb.w	r3, [sl]
    23c8:	2b00      	cmp	r3, #0
    23ca:	f000 809f 	beq.w	250c <_vfiprintf_r+0x1ec>
    23ce:	2300      	movs	r3, #0
    23d0:	f04f 32ff 	mov.w	r2, #4294967295
    23d4:	e9cd 2305 	strd	r2, r3, [sp, #20]
    23d8:	f10a 0a01 	add.w	sl, sl, #1
    23dc:	9304      	str	r3, [sp, #16]
    23de:	9307      	str	r3, [sp, #28]
    23e0:	f88d 3053 	strb.w	r3, [sp, #83]	; 0x53
    23e4:	931a      	str	r3, [sp, #104]	; 0x68
    23e6:	4654      	mov	r4, sl
    23e8:	2205      	movs	r2, #5
    23ea:	f814 1b01 	ldrb.w	r1, [r4], #1
    23ee:	4853      	ldr	r0, [pc, #332]	; (253c <_vfiprintf_r+0x21c>)
    23f0:	f000 fbc6 	bl	2b80 <memchr>
    23f4:	9a04      	ldr	r2, [sp, #16]
    23f6:	b9d8      	cbnz	r0, 2430 <_vfiprintf_r+0x110>
    23f8:	06d1      	lsls	r1, r2, #27
    23fa:	bf44      	itt	mi
    23fc:	2320      	movmi	r3, #32
    23fe:	f88d 3053 	strbmi.w	r3, [sp, #83]	; 0x53
    2402:	0713      	lsls	r3, r2, #28
    2404:	bf44      	itt	mi
    2406:	232b      	movmi	r3, #43	; 0x2b
    2408:	f88d 3053 	strbmi.w	r3, [sp, #83]	; 0x53
    240c:	f89a 3000 	ldrb.w	r3, [sl]
    2410:	2b2a      	cmp	r3, #42	; 0x2a
    2412:	d015      	beq.n	2440 <_vfiprintf_r+0x120>
    2414:	9a07      	ldr	r2, [sp, #28]
    2416:	4654      	mov	r4, sl
    2418:	2000      	movs	r0, #0
    241a:	f04f 0c0a 	mov.w	ip, #10
    241e:	4621      	mov	r1, r4
    2420:	f811 3b01 	ldrb.w	r3, [r1], #1
    2424:	3b30      	subs	r3, #48	; 0x30
    2426:	2b09      	cmp	r3, #9
    2428:	d94b      	bls.n	24c2 <_vfiprintf_r+0x1a2>
    242a:	b1b0      	cbz	r0, 245a <_vfiprintf_r+0x13a>
    242c:	9207      	str	r2, [sp, #28]
    242e:	e014      	b.n	245a <_vfiprintf_r+0x13a>
    2430:	eba0 0308 	sub.w	r3, r0, r8
    2434:	fa09 f303 	lsl.w	r3, r9, r3
    2438:	4313      	orrs	r3, r2
    243a:	9304      	str	r3, [sp, #16]
    243c:	46a2      	mov	sl, r4
    243e:	e7d2      	b.n	23e6 <_vfiprintf_r+0xc6>
    2440:	9b03      	ldr	r3, [sp, #12]
    2442:	1d19      	adds	r1, r3, #4
    2444:	681b      	ldr	r3, [r3, #0]
    2446:	9103      	str	r1, [sp, #12]
    2448:	2b00      	cmp	r3, #0
    244a:	bfbb      	ittet	lt
    244c:	425b      	neglt	r3, r3
    244e:	f042 0202 	orrlt.w	r2, r2, #2
    2452:	9307      	strge	r3, [sp, #28]
    2454:	9307      	strlt	r3, [sp, #28]
    2456:	bfb8      	it	lt
    2458:	9204      	strlt	r2, [sp, #16]
    245a:	7823      	ldrb	r3, [r4, #0]
    245c:	2b2e      	cmp	r3, #46	; 0x2e
    245e:	d10a      	bne.n	2476 <_vfiprintf_r+0x156>
    2460:	7863      	ldrb	r3, [r4, #1]
    2462:	2b2a      	cmp	r3, #42	; 0x2a
    2464:	d132      	bne.n	24cc <_vfiprintf_r+0x1ac>
    2466:	9b03      	ldr	r3, [sp, #12]
    2468:	1d1a      	adds	r2, r3, #4
    246a:	681b      	ldr	r3, [r3, #0]
    246c:	9203      	str	r2, [sp, #12]
    246e:	ea43 73e3 	orr.w	r3, r3, r3, asr #31
    2472:	3402      	adds	r4, #2
    2474:	9305      	str	r3, [sp, #20]
    2476:	f8df a0d4 	ldr.w	sl, [pc, #212]	; 254c <_vfiprintf_r+0x22c>
    247a:	7821      	ldrb	r1, [r4, #0]
    247c:	2203      	movs	r2, #3
    247e:	4650      	mov	r0, sl
    2480:	f000 fb7e 	bl	2b80 <memchr>
    2484:	b138      	cbz	r0, 2496 <_vfiprintf_r+0x176>
    2486:	9b04      	ldr	r3, [sp, #16]
    2488:	eba0 000a 	sub.w	r0, r0, sl
    248c:	2240      	movs	r2, #64	; 0x40
    248e:	4082      	lsls	r2, r0
    2490:	4313      	orrs	r3, r2
    2492:	3401      	adds	r4, #1
    2494:	9304      	str	r3, [sp, #16]
    2496:	f814 1b01 	ldrb.w	r1, [r4], #1
    249a:	4829      	ldr	r0, [pc, #164]	; (2540 <_vfiprintf_r+0x220>)
    249c:	f88d 1028 	strb.w	r1, [sp, #40]	; 0x28
    24a0:	2206      	movs	r2, #6
    24a2:	f000 fb6d 	bl	2b80 <memchr>
    24a6:	2800      	cmp	r0, #0
    24a8:	d03f      	beq.n	252a <_vfiprintf_r+0x20a>
    24aa:	4b26      	ldr	r3, [pc, #152]	; (2544 <_vfiprintf_r+0x224>)
    24ac:	bb1b      	cbnz	r3, 24f6 <_vfiprintf_r+0x1d6>
    24ae:	9b03      	ldr	r3, [sp, #12]
    24b0:	3307      	adds	r3, #7
    24b2:	f023 0307 	bic.w	r3, r3, #7
    24b6:	3308      	adds	r3, #8
    24b8:	9303      	str	r3, [sp, #12]
    24ba:	9b09      	ldr	r3, [sp, #36]	; 0x24
    24bc:	443b      	add	r3, r7
    24be:	9309      	str	r3, [sp, #36]	; 0x24
    24c0:	e76a      	b.n	2398 <_vfiprintf_r+0x78>
    24c2:	fb0c 3202 	mla	r2, ip, r2, r3
    24c6:	460c      	mov	r4, r1
    24c8:	2001      	movs	r0, #1
    24ca:	e7a8      	b.n	241e <_vfiprintf_r+0xfe>
    24cc:	2300      	movs	r3, #0
    24ce:	3401      	adds	r4, #1
    24d0:	9305      	str	r3, [sp, #20]
    24d2:	4619      	mov	r1, r3
    24d4:	f04f 0c0a 	mov.w	ip, #10
    24d8:	4620      	mov	r0, r4
    24da:	f810 2b01 	ldrb.w	r2, [r0], #1
    24de:	3a30      	subs	r2, #48	; 0x30
    24e0:	2a09      	cmp	r2, #9
    24e2:	d903      	bls.n	24ec <_vfiprintf_r+0x1cc>
    24e4:	2b00      	cmp	r3, #0
    24e6:	d0c6      	beq.n	2476 <_vfiprintf_r+0x156>
    24e8:	9105      	str	r1, [sp, #20]
    24ea:	e7c4      	b.n	2476 <_vfiprintf_r+0x156>
    24ec:	fb0c 2101 	mla	r1, ip, r1, r2
    24f0:	4604      	mov	r4, r0
    24f2:	2301      	movs	r3, #1
    24f4:	e7f0      	b.n	24d8 <_vfiprintf_r+0x1b8>
    24f6:	ab03      	add	r3, sp, #12
    24f8:	9300      	str	r3, [sp, #0]
    24fa:	462a      	mov	r2, r5
    24fc:	4b12      	ldr	r3, [pc, #72]	; (2548 <_vfiprintf_r+0x228>)
    24fe:	a904      	add	r1, sp, #16
    2500:	4630      	mov	r0, r6
    2502:	f3af 8000 	nop.w
    2506:	4607      	mov	r7, r0
    2508:	1c78      	adds	r0, r7, #1
    250a:	d1d6      	bne.n	24ba <_vfiprintf_r+0x19a>
    250c:	6e6b      	ldr	r3, [r5, #100]	; 0x64
    250e:	07d9      	lsls	r1, r3, #31
    2510:	d405      	bmi.n	251e <_vfiprintf_r+0x1fe>
    2512:	89ab      	ldrh	r3, [r5, #12]
    2514:	059a      	lsls	r2, r3, #22
    2516:	d402      	bmi.n	251e <_vfiprintf_r+0x1fe>
    2518:	6da8      	ldr	r0, [r5, #88]	; 0x58
    251a:	f7ff fe8b 	bl	2234 <__retarget_lock_release_recursive>
    251e:	89ab      	ldrh	r3, [r5, #12]
    2520:	065b      	lsls	r3, r3, #25
    2522:	f53f af1f 	bmi.w	2364 <_vfiprintf_r+0x44>
    2526:	9809      	ldr	r0, [sp, #36]	; 0x24
    2528:	e71e      	b.n	2368 <_vfiprintf_r+0x48>
    252a:	ab03      	add	r3, sp, #12
    252c:	9300      	str	r3, [sp, #0]
    252e:	462a      	mov	r2, r5
    2530:	4b05      	ldr	r3, [pc, #20]	; (2548 <_vfiprintf_r+0x228>)
    2532:	a904      	add	r1, sp, #16
    2534:	4630      	mov	r0, r6
    2536:	f000 f879 	bl	262c <_printf_i>
    253a:	e7e4      	b.n	2506 <_vfiprintf_r+0x1e6>
    253c:	00002e45 	.word	0x00002e45
    2540:	00002e4f 	.word	0x00002e4f
    2544:	00000000 	.word	0x00000000
    2548:	000022fb 	.word	0x000022fb
    254c:	00002e4b 	.word	0x00002e4b

00002550 <_printf_common>:
    2550:	e92d 47f0 	stmdb	sp!, {r4, r5, r6, r7, r8, r9, sl, lr}
    2554:	4616      	mov	r6, r2
    2556:	4698      	mov	r8, r3
    2558:	688a      	ldr	r2, [r1, #8]
    255a:	690b      	ldr	r3, [r1, #16]
    255c:	f8dd 9020 	ldr.w	r9, [sp, #32]
    2560:	4293      	cmp	r3, r2
    2562:	bfb8      	it	lt
    2564:	4613      	movlt	r3, r2
    2566:	6033      	str	r3, [r6, #0]
    2568:	f891 2043 	ldrb.w	r2, [r1, #67]	; 0x43
    256c:	4607      	mov	r7, r0
    256e:	460c      	mov	r4, r1
    2570:	b10a      	cbz	r2, 2576 <_printf_common+0x26>
    2572:	3301      	adds	r3, #1
    2574:	6033      	str	r3, [r6, #0]
    2576:	6823      	ldr	r3, [r4, #0]
    2578:	0699      	lsls	r1, r3, #26
    257a:	bf42      	ittt	mi
    257c:	6833      	ldrmi	r3, [r6, #0]
    257e:	3302      	addmi	r3, #2
    2580:	6033      	strmi	r3, [r6, #0]
    2582:	6825      	ldr	r5, [r4, #0]
    2584:	f015 0506 	ands.w	r5, r5, #6
    2588:	d106      	bne.n	2598 <_printf_common+0x48>
    258a:	f104 0a19 	add.w	sl, r4, #25
    258e:	68e3      	ldr	r3, [r4, #12]
    2590:	6832      	ldr	r2, [r6, #0]
    2592:	1a9b      	subs	r3, r3, r2
    2594:	42ab      	cmp	r3, r5
    2596:	dc26      	bgt.n	25e6 <_printf_common+0x96>
    2598:	f894 3043 	ldrb.w	r3, [r4, #67]	; 0x43
    259c:	6822      	ldr	r2, [r4, #0]
    259e:	3b00      	subs	r3, #0
    25a0:	bf18      	it	ne
    25a2:	2301      	movne	r3, #1
    25a4:	0692      	lsls	r2, r2, #26
    25a6:	d42b      	bmi.n	2600 <_printf_common+0xb0>
    25a8:	f104 0243 	add.w	r2, r4, #67	; 0x43
    25ac:	4641      	mov	r1, r8
    25ae:	4638      	mov	r0, r7
    25b0:	47c8      	blx	r9
    25b2:	3001      	adds	r0, #1
    25b4:	d01e      	beq.n	25f4 <_printf_common+0xa4>
    25b6:	6823      	ldr	r3, [r4, #0]
    25b8:	6922      	ldr	r2, [r4, #16]
    25ba:	f003 0306 	and.w	r3, r3, #6
    25be:	2b04      	cmp	r3, #4
    25c0:	bf02      	ittt	eq
    25c2:	68e5      	ldreq	r5, [r4, #12]
    25c4:	6833      	ldreq	r3, [r6, #0]
    25c6:	1aed      	subeq	r5, r5, r3
    25c8:	68a3      	ldr	r3, [r4, #8]
    25ca:	bf0c      	ite	eq
    25cc:	ea25 75e5 	biceq.w	r5, r5, r5, asr #31
    25d0:	2500      	movne	r5, #0
    25d2:	4293      	cmp	r3, r2
    25d4:	bfc4      	itt	gt
    25d6:	1a9b      	subgt	r3, r3, r2
    25d8:	18ed      	addgt	r5, r5, r3
    25da:	2600      	movs	r6, #0
    25dc:	341a      	adds	r4, #26
    25de:	42b5      	cmp	r5, r6
    25e0:	d11a      	bne.n	2618 <_printf_common+0xc8>
    25e2:	2000      	movs	r0, #0
    25e4:	e008      	b.n	25f8 <_printf_common+0xa8>
    25e6:	2301      	movs	r3, #1
    25e8:	4652      	mov	r2, sl
    25ea:	4641      	mov	r1, r8
    25ec:	4638      	mov	r0, r7
    25ee:	47c8      	blx	r9
    25f0:	3001      	adds	r0, #1
    25f2:	d103      	bne.n	25fc <_printf_common+0xac>
    25f4:	f04f 30ff 	mov.w	r0, #4294967295
    25f8:	e8bd 87f0 	ldmia.w	sp!, {r4, r5, r6, r7, r8, r9, sl, pc}
    25fc:	3501      	adds	r5, #1
    25fe:	e7c6      	b.n	258e <_printf_common+0x3e>
    2600:	18e1      	adds	r1, r4, r3
    2602:	1c5a      	adds	r2, r3, #1
    2604:	2030      	movs	r0, #48	; 0x30
    2606:	f881 0043 	strb.w	r0, [r1, #67]	; 0x43
    260a:	4422      	add	r2, r4
    260c:	f894 1045 	ldrb.w	r1, [r4, #69]	; 0x45
    2610:	f882 1043 	strb.w	r1, [r2, #67]	; 0x43
    2614:	3302      	adds	r3, #2
    2616:	e7c7      	b.n	25a8 <_printf_common+0x58>
    2618:	2301      	movs	r3, #1
    261a:	4622      	mov	r2, r4
    261c:	4641      	mov	r1, r8
    261e:	4638      	mov	r0, r7
    2620:	47c8      	blx	r9
    2622:	3001      	adds	r0, #1
    2624:	d0e6      	beq.n	25f4 <_printf_common+0xa4>
    2626:	3601      	adds	r6, #1
    2628:	e7d9      	b.n	25de <_printf_common+0x8e>
	...

0000262c <_printf_i>:
    262c:	e92d 47ff 	stmdb	sp!, {r0, r1, r2, r3, r4, r5, r6, r7, r8, r9, sl, lr}
    2630:	7e0f      	ldrb	r7, [r1, #24]
    2632:	9e0c      	ldr	r6, [sp, #48]	; 0x30
    2634:	2f78      	cmp	r7, #120	; 0x78
    2636:	4691      	mov	r9, r2
    2638:	4680      	mov	r8, r0
    263a:	460c      	mov	r4, r1
    263c:	469a      	mov	sl, r3
    263e:	f101 0243 	add.w	r2, r1, #67	; 0x43
    2642:	d807      	bhi.n	2654 <_printf_i+0x28>
    2644:	2f62      	cmp	r7, #98	; 0x62
    2646:	d80a      	bhi.n	265e <_printf_i+0x32>
    2648:	2f00      	cmp	r7, #0
    264a:	f000 80dd 	beq.w	2808 <_printf_i+0x1dc>
    264e:	2f58      	cmp	r7, #88	; 0x58
    2650:	f000 80c3 	beq.w	27da <_printf_i+0x1ae>
    2654:	f104 0642 	add.w	r6, r4, #66	; 0x42
    2658:	f884 7042 	strb.w	r7, [r4, #66]	; 0x42
    265c:	e03a      	b.n	26d4 <_printf_i+0xa8>
    265e:	f1a7 0363 	sub.w	r3, r7, #99	; 0x63
    2662:	2b15      	cmp	r3, #21
    2664:	d8f6      	bhi.n	2654 <_printf_i+0x28>
    2666:	a101      	add	r1, pc, #4	; (adr r1, 266c <_printf_i+0x40>)
    2668:	f851 f023 	ldr.w	pc, [r1, r3, lsl #2]
    266c:	000026c5 	.word	0x000026c5
    2670:	000026d9 	.word	0x000026d9
    2674:	00002655 	.word	0x00002655
    2678:	00002655 	.word	0x00002655
    267c:	00002655 	.word	0x00002655
    2680:	00002655 	.word	0x00002655
    2684:	000026d9 	.word	0x000026d9
    2688:	00002655 	.word	0x00002655
    268c:	00002655 	.word	0x00002655
    2690:	00002655 	.word	0x00002655
    2694:	00002655 	.word	0x00002655
    2698:	000027ef 	.word	0x000027ef
    269c:	00002767 	.word	0x00002767
    26a0:	000027a7 	.word	0x000027a7
    26a4:	00002655 	.word	0x00002655
    26a8:	00002655 	.word	0x00002655
    26ac:	00002811 	.word	0x00002811
    26b0:	00002655 	.word	0x00002655
    26b4:	00002767 	.word	0x00002767
    26b8:	00002655 	.word	0x00002655
    26bc:	00002655 	.word	0x00002655
    26c0:	000027af 	.word	0x000027af
    26c4:	6833      	ldr	r3, [r6, #0]
    26c6:	1d1a      	adds	r2, r3, #4
    26c8:	681b      	ldr	r3, [r3, #0]
    26ca:	6032      	str	r2, [r6, #0]
    26cc:	f104 0642 	add.w	r6, r4, #66	; 0x42
    26d0:	f884 3042 	strb.w	r3, [r4, #66]	; 0x42
    26d4:	2301      	movs	r3, #1
    26d6:	e0a8      	b.n	282a <_printf_i+0x1fe>
    26d8:	6831      	ldr	r1, [r6, #0]
    26da:	6823      	ldr	r3, [r4, #0]
    26dc:	1d08      	adds	r0, r1, #4
    26de:	6030      	str	r0, [r6, #0]
    26e0:	061e      	lsls	r6, r3, #24
    26e2:	d501      	bpl.n	26e8 <_printf_i+0xbc>
    26e4:	680d      	ldr	r5, [r1, #0]
    26e6:	e003      	b.n	26f0 <_printf_i+0xc4>
    26e8:	065d      	lsls	r5, r3, #25
    26ea:	d5fb      	bpl.n	26e4 <_printf_i+0xb8>
    26ec:	f9b1 5000 	ldrsh.w	r5, [r1]
    26f0:	6861      	ldr	r1, [r4, #4]
    26f2:	2d00      	cmp	r5, #0
    26f4:	da78      	bge.n	27e8 <_printf_i+0x1bc>
    26f6:	202d      	movs	r0, #45	; 0x2d
    26f8:	2900      	cmp	r1, #0
    26fa:	f884 0043 	strb.w	r0, [r4, #67]	; 0x43
    26fe:	60a1      	str	r1, [r4, #8]
    2700:	da2d      	bge.n	275e <_printf_i+0x132>
    2702:	485e      	ldr	r0, [pc, #376]	; (287c <_printf_i+0x250>)
    2704:	426d      	negs	r5, r5
    2706:	230a      	movs	r3, #10
    2708:	4616      	mov	r6, r2
    270a:	fbb5 f1f3 	udiv	r1, r5, r3
    270e:	fb03 5711 	mls	r7, r3, r1, r5
    2712:	5dc7      	ldrb	r7, [r0, r7]
    2714:	f806 7d01 	strb.w	r7, [r6, #-1]!
    2718:	462f      	mov	r7, r5
    271a:	42bb      	cmp	r3, r7
    271c:	460d      	mov	r5, r1
    271e:	d9f4      	bls.n	270a <_printf_i+0xde>
    2720:	2b08      	cmp	r3, #8
    2722:	d10b      	bne.n	273c <_printf_i+0x110>
    2724:	6823      	ldr	r3, [r4, #0]
    2726:	07df      	lsls	r7, r3, #31
    2728:	d508      	bpl.n	273c <_printf_i+0x110>
    272a:	6923      	ldr	r3, [r4, #16]
    272c:	6861      	ldr	r1, [r4, #4]
    272e:	4299      	cmp	r1, r3
    2730:	bfde      	ittt	le
    2732:	2330      	movle	r3, #48	; 0x30
    2734:	f806 3c01 	strble.w	r3, [r6, #-1]
    2738:	f106 36ff 	addle.w	r6, r6, #4294967295
    273c:	1b92      	subs	r2, r2, r6
    273e:	6122      	str	r2, [r4, #16]
    2740:	f8cd a000 	str.w	sl, [sp]
    2744:	464b      	mov	r3, r9
    2746:	aa03      	add	r2, sp, #12
    2748:	4621      	mov	r1, r4
    274a:	4640      	mov	r0, r8
    274c:	f7ff ff00 	bl	2550 <_printf_common>
    2750:	3001      	adds	r0, #1
    2752:	d16f      	bne.n	2834 <_printf_i+0x208>
    2754:	f04f 30ff 	mov.w	r0, #4294967295
    2758:	b004      	add	sp, #16
    275a:	e8bd 87f0 	ldmia.w	sp!, {r4, r5, r6, r7, r8, r9, sl, pc}
    275e:	f023 0304 	bic.w	r3, r3, #4
    2762:	6023      	str	r3, [r4, #0]
    2764:	e7cd      	b.n	2702 <_printf_i+0xd6>
    2766:	6821      	ldr	r1, [r4, #0]
    2768:	6833      	ldr	r3, [r6, #0]
    276a:	0608      	lsls	r0, r1, #24
    276c:	f853 5b04 	ldr.w	r5, [r3], #4
    2770:	d402      	bmi.n	2778 <_printf_i+0x14c>
    2772:	0649      	lsls	r1, r1, #25
    2774:	bf48      	it	mi
    2776:	b2ad      	uxthmi	r5, r5
    2778:	2f6f      	cmp	r7, #111	; 0x6f
    277a:	4840      	ldr	r0, [pc, #256]	; (287c <_printf_i+0x250>)
    277c:	6033      	str	r3, [r6, #0]
    277e:	bf14      	ite	ne
    2780:	230a      	movne	r3, #10
    2782:	2308      	moveq	r3, #8
    2784:	2100      	movs	r1, #0
    2786:	f884 1043 	strb.w	r1, [r4, #67]	; 0x43
    278a:	6866      	ldr	r6, [r4, #4]
    278c:	60a6      	str	r6, [r4, #8]
    278e:	2e00      	cmp	r6, #0
    2790:	dbba      	blt.n	2708 <_printf_i+0xdc>
    2792:	6821      	ldr	r1, [r4, #0]
    2794:	f021 0104 	bic.w	r1, r1, #4
    2798:	6021      	str	r1, [r4, #0]
    279a:	2d00      	cmp	r5, #0
    279c:	d1b4      	bne.n	2708 <_printf_i+0xdc>
    279e:	2e00      	cmp	r6, #0
    27a0:	d1b2      	bne.n	2708 <_printf_i+0xdc>
    27a2:	4616      	mov	r6, r2
    27a4:	e7bc      	b.n	2720 <_printf_i+0xf4>
    27a6:	6823      	ldr	r3, [r4, #0]
    27a8:	f043 0320 	orr.w	r3, r3, #32
    27ac:	6023      	str	r3, [r4, #0]
    27ae:	4834      	ldr	r0, [pc, #208]	; (2880 <_printf_i+0x254>)
    27b0:	2778      	movs	r7, #120	; 0x78
    27b2:	f884 7045 	strb.w	r7, [r4, #69]	; 0x45
    27b6:	6823      	ldr	r3, [r4, #0]
    27b8:	6831      	ldr	r1, [r6, #0]
    27ba:	061f      	lsls	r7, r3, #24
    27bc:	f851 5b04 	ldr.w	r5, [r1], #4
    27c0:	d402      	bmi.n	27c8 <_printf_i+0x19c>
    27c2:	065f      	lsls	r7, r3, #25
    27c4:	bf48      	it	mi
    27c6:	b2ad      	uxthmi	r5, r5
    27c8:	6031      	str	r1, [r6, #0]
    27ca:	07d9      	lsls	r1, r3, #31
    27cc:	bf44      	itt	mi
    27ce:	f043 0320 	orrmi.w	r3, r3, #32
    27d2:	6023      	strmi	r3, [r4, #0]
    27d4:	b11d      	cbz	r5, 27de <_printf_i+0x1b2>
    27d6:	2310      	movs	r3, #16
    27d8:	e7d4      	b.n	2784 <_printf_i+0x158>
    27da:	4828      	ldr	r0, [pc, #160]	; (287c <_printf_i+0x250>)
    27dc:	e7e9      	b.n	27b2 <_printf_i+0x186>
    27de:	6823      	ldr	r3, [r4, #0]
    27e0:	f023 0320 	bic.w	r3, r3, #32
    27e4:	6023      	str	r3, [r4, #0]
    27e6:	e7f6      	b.n	27d6 <_printf_i+0x1aa>
    27e8:	4824      	ldr	r0, [pc, #144]	; (287c <_printf_i+0x250>)
    27ea:	230a      	movs	r3, #10
    27ec:	e7cd      	b.n	278a <_printf_i+0x15e>
    27ee:	6833      	ldr	r3, [r6, #0]
    27f0:	6825      	ldr	r5, [r4, #0]
    27f2:	6961      	ldr	r1, [r4, #20]
    27f4:	1d18      	adds	r0, r3, #4
    27f6:	6030      	str	r0, [r6, #0]
    27f8:	062e      	lsls	r6, r5, #24
    27fa:	681b      	ldr	r3, [r3, #0]
    27fc:	d501      	bpl.n	2802 <_printf_i+0x1d6>
    27fe:	6019      	str	r1, [r3, #0]
    2800:	e002      	b.n	2808 <_printf_i+0x1dc>
    2802:	0668      	lsls	r0, r5, #25
    2804:	d5fb      	bpl.n	27fe <_printf_i+0x1d2>
    2806:	8019      	strh	r1, [r3, #0]
    2808:	2300      	movs	r3, #0
    280a:	6123      	str	r3, [r4, #16]
    280c:	4616      	mov	r6, r2
    280e:	e797      	b.n	2740 <_printf_i+0x114>
    2810:	6833      	ldr	r3, [r6, #0]
    2812:	1d1a      	adds	r2, r3, #4
    2814:	6032      	str	r2, [r6, #0]
    2816:	681e      	ldr	r6, [r3, #0]
    2818:	6862      	ldr	r2, [r4, #4]
    281a:	2100      	movs	r1, #0
    281c:	4630      	mov	r0, r6
    281e:	f000 f9af 	bl	2b80 <memchr>
    2822:	b108      	cbz	r0, 2828 <_printf_i+0x1fc>
    2824:	1b80      	subs	r0, r0, r6
    2826:	6060      	str	r0, [r4, #4]
    2828:	6863      	ldr	r3, [r4, #4]
    282a:	6123      	str	r3, [r4, #16]
    282c:	2300      	movs	r3, #0
    282e:	f884 3043 	strb.w	r3, [r4, #67]	; 0x43
    2832:	e785      	b.n	2740 <_printf_i+0x114>
    2834:	6923      	ldr	r3, [r4, #16]
    2836:	4632      	mov	r2, r6
    2838:	4649      	mov	r1, r9
    283a:	4640      	mov	r0, r8
    283c:	47d0      	blx	sl
    283e:	3001      	adds	r0, #1
    2840:	d088      	beq.n	2754 <_printf_i+0x128>
    2842:	6823      	ldr	r3, [r4, #0]
    2844:	079b      	lsls	r3, r3, #30
    2846:	d414      	bmi.n	2872 <_printf_i+0x246>
    2848:	68e0      	ldr	r0, [r4, #12]
    284a:	9b03      	ldr	r3, [sp, #12]
    284c:	4298      	cmp	r0, r3
    284e:	bfb8      	it	lt
    2850:	4618      	movlt	r0, r3
    2852:	e781      	b.n	2758 <_printf_i+0x12c>
    2854:	2301      	movs	r3, #1
    2856:	4632      	mov	r2, r6
    2858:	4649      	mov	r1, r9
    285a:	4640      	mov	r0, r8
    285c:	47d0      	blx	sl
    285e:	3001      	adds	r0, #1
    2860:	f43f af78 	beq.w	2754 <_printf_i+0x128>
    2864:	3501      	adds	r5, #1
    2866:	68e3      	ldr	r3, [r4, #12]
    2868:	9903      	ldr	r1, [sp, #12]
    286a:	1a5b      	subs	r3, r3, r1
    286c:	42ab      	cmp	r3, r5
    286e:	dcf1      	bgt.n	2854 <_printf_i+0x228>
    2870:	e7ea      	b.n	2848 <_printf_i+0x21c>
    2872:	2500      	movs	r5, #0
    2874:	f104 0619 	add.w	r6, r4, #25
    2878:	e7f5      	b.n	2866 <_printf_i+0x23a>
    287a:	bf00      	nop
    287c:	00002e56 	.word	0x00002e56
    2880:	00002e67 	.word	0x00002e67

00002884 <__swhatbuf_r>:
    2884:	b570      	push	{r4, r5, r6, lr}
    2886:	460c      	mov	r4, r1
    2888:	f9b1 100e 	ldrsh.w	r1, [r1, #14]
    288c:	2900      	cmp	r1, #0
    288e:	b096      	sub	sp, #88	; 0x58
    2890:	4615      	mov	r5, r2
    2892:	461e      	mov	r6, r3
    2894:	da0d      	bge.n	28b2 <__swhatbuf_r+0x2e>
    2896:	89a3      	ldrh	r3, [r4, #12]
    2898:	f013 0f80 	tst.w	r3, #128	; 0x80
    289c:	f04f 0100 	mov.w	r1, #0
    28a0:	bf14      	ite	ne
    28a2:	2340      	movne	r3, #64	; 0x40
    28a4:	f44f 6380 	moveq.w	r3, #1024	; 0x400
    28a8:	2000      	movs	r0, #0
    28aa:	6031      	str	r1, [r6, #0]
    28ac:	602b      	str	r3, [r5, #0]
    28ae:	b016      	add	sp, #88	; 0x58
    28b0:	bd70      	pop	{r4, r5, r6, pc}
    28b2:	466a      	mov	r2, sp
    28b4:	f000 f8dc 	bl	2a70 <_fstat_r>
    28b8:	2800      	cmp	r0, #0
    28ba:	dbec      	blt.n	2896 <__swhatbuf_r+0x12>
    28bc:	9901      	ldr	r1, [sp, #4]
    28be:	f401 4170 	and.w	r1, r1, #61440	; 0xf000
    28c2:	f5a1 5300 	sub.w	r3, r1, #8192	; 0x2000
    28c6:	4259      	negs	r1, r3
    28c8:	4159      	adcs	r1, r3
    28ca:	f44f 6380 	mov.w	r3, #1024	; 0x400
    28ce:	e7eb      	b.n	28a8 <__swhatbuf_r+0x24>

000028d0 <__smakebuf_r>:
    28d0:	898b      	ldrh	r3, [r1, #12]
    28d2:	b5f7      	push	{r0, r1, r2, r4, r5, r6, r7, lr}
    28d4:	079d      	lsls	r5, r3, #30
    28d6:	4606      	mov	r6, r0
    28d8:	460c      	mov	r4, r1
    28da:	d507      	bpl.n	28ec <__smakebuf_r+0x1c>
    28dc:	f104 0347 	add.w	r3, r4, #71	; 0x47
    28e0:	6023      	str	r3, [r4, #0]
    28e2:	6123      	str	r3, [r4, #16]
    28e4:	2301      	movs	r3, #1
    28e6:	6163      	str	r3, [r4, #20]
    28e8:	b003      	add	sp, #12
    28ea:	bdf0      	pop	{r4, r5, r6, r7, pc}
    28ec:	ab01      	add	r3, sp, #4
    28ee:	466a      	mov	r2, sp
    28f0:	f7ff ffc8 	bl	2884 <__swhatbuf_r>
    28f4:	9f00      	ldr	r7, [sp, #0]
    28f6:	4605      	mov	r5, r0
    28f8:	4639      	mov	r1, r7
    28fa:	4630      	mov	r0, r6
    28fc:	f7ff f8f2 	bl	1ae4 <_malloc_r>
    2900:	b948      	cbnz	r0, 2916 <__smakebuf_r+0x46>
    2902:	f9b4 300c 	ldrsh.w	r3, [r4, #12]
    2906:	059a      	lsls	r2, r3, #22
    2908:	d4ee      	bmi.n	28e8 <__smakebuf_r+0x18>
    290a:	f023 0303 	bic.w	r3, r3, #3
    290e:	f043 0302 	orr.w	r3, r3, #2
    2912:	81a3      	strh	r3, [r4, #12]
    2914:	e7e2      	b.n	28dc <__smakebuf_r+0xc>
    2916:	89a3      	ldrh	r3, [r4, #12]
    2918:	6020      	str	r0, [r4, #0]
    291a:	f043 0380 	orr.w	r3, r3, #128	; 0x80
    291e:	81a3      	strh	r3, [r4, #12]
    2920:	9b01      	ldr	r3, [sp, #4]
    2922:	e9c4 0704 	strd	r0, r7, [r4, #16]
    2926:	b15b      	cbz	r3, 2940 <__smakebuf_r+0x70>
    2928:	f9b4 100e 	ldrsh.w	r1, [r4, #14]
    292c:	4630      	mov	r0, r6
    292e:	f000 f8b1 	bl	2a94 <_isatty_r>
    2932:	b128      	cbz	r0, 2940 <__smakebuf_r+0x70>
    2934:	89a3      	ldrh	r3, [r4, #12]
    2936:	f023 0303 	bic.w	r3, r3, #3
    293a:	f043 0301 	orr.w	r3, r3, #1
    293e:	81a3      	strh	r3, [r4, #12]
    2940:	89a3      	ldrh	r3, [r4, #12]
    2942:	431d      	orrs	r5, r3
    2944:	81a5      	strh	r5, [r4, #12]
    2946:	e7cf      	b.n	28e8 <__smakebuf_r+0x18>

00002948 <__swbuf_r>:
    2948:	b5f8      	push	{r3, r4, r5, r6, r7, lr}
    294a:	460e      	mov	r6, r1
    294c:	4614      	mov	r4, r2
    294e:	4605      	mov	r5, r0
    2950:	b118      	cbz	r0, 295a <__swbuf_r+0x12>
    2952:	6a03      	ldr	r3, [r0, #32]
    2954:	b90b      	cbnz	r3, 295a <__swbuf_r+0x12>
    2956:	f7ff faa3 	bl	1ea0 <__sinit>
    295a:	69a3      	ldr	r3, [r4, #24]
    295c:	60a3      	str	r3, [r4, #8]
    295e:	89a3      	ldrh	r3, [r4, #12]
    2960:	071a      	lsls	r2, r3, #28
    2962:	d501      	bpl.n	2968 <__swbuf_r+0x20>
    2964:	6923      	ldr	r3, [r4, #16]
    2966:	b943      	cbnz	r3, 297a <__swbuf_r+0x32>
    2968:	4621      	mov	r1, r4
    296a:	4628      	mov	r0, r5
    296c:	f000 f82a 	bl	29c4 <__swsetup_r>
    2970:	b118      	cbz	r0, 297a <__swbuf_r+0x32>
    2972:	f04f 37ff 	mov.w	r7, #4294967295
    2976:	4638      	mov	r0, r7
    2978:	bdf8      	pop	{r3, r4, r5, r6, r7, pc}
    297a:	6823      	ldr	r3, [r4, #0]
    297c:	6922      	ldr	r2, [r4, #16]
    297e:	1a98      	subs	r0, r3, r2
    2980:	6963      	ldr	r3, [r4, #20]
    2982:	b2f6      	uxtb	r6, r6
    2984:	4283      	cmp	r3, r0
    2986:	4637      	mov	r7, r6
    2988:	dc05      	bgt.n	2996 <__swbuf_r+0x4e>
    298a:	4621      	mov	r1, r4
    298c:	4628      	mov	r0, r5
    298e:	f7ff f9bf 	bl	1d10 <_fflush_r>
    2992:	2800      	cmp	r0, #0
    2994:	d1ed      	bne.n	2972 <__swbuf_r+0x2a>
    2996:	68a3      	ldr	r3, [r4, #8]
    2998:	3b01      	subs	r3, #1
    299a:	60a3      	str	r3, [r4, #8]
    299c:	6823      	ldr	r3, [r4, #0]
    299e:	1c5a      	adds	r2, r3, #1
    29a0:	6022      	str	r2, [r4, #0]
    29a2:	701e      	strb	r6, [r3, #0]
    29a4:	6962      	ldr	r2, [r4, #20]
    29a6:	1c43      	adds	r3, r0, #1
    29a8:	429a      	cmp	r2, r3
    29aa:	d004      	beq.n	29b6 <__swbuf_r+0x6e>
    29ac:	89a3      	ldrh	r3, [r4, #12]
    29ae:	07db      	lsls	r3, r3, #31
    29b0:	d5e1      	bpl.n	2976 <__swbuf_r+0x2e>
    29b2:	2e0a      	cmp	r6, #10
    29b4:	d1df      	bne.n	2976 <__swbuf_r+0x2e>
    29b6:	4621      	mov	r1, r4
    29b8:	4628      	mov	r0, r5
    29ba:	f7ff f9a9 	bl	1d10 <_fflush_r>
    29be:	2800      	cmp	r0, #0
    29c0:	d0d9      	beq.n	2976 <__swbuf_r+0x2e>
    29c2:	e7d6      	b.n	2972 <__swbuf_r+0x2a>

000029c4 <__swsetup_r>:
    29c4:	b538      	push	{r3, r4, r5, lr}
    29c6:	4b29      	ldr	r3, [pc, #164]	; (2a6c <__swsetup_r+0xa8>)
    29c8:	4605      	mov	r5, r0
    29ca:	6818      	ldr	r0, [r3, #0]
    29cc:	460c      	mov	r4, r1
    29ce:	b118      	cbz	r0, 29d8 <__swsetup_r+0x14>
    29d0:	6a03      	ldr	r3, [r0, #32]
    29d2:	b90b      	cbnz	r3, 29d8 <__swsetup_r+0x14>
    29d4:	f7ff fa64 	bl	1ea0 <__sinit>
    29d8:	f9b4 300c 	ldrsh.w	r3, [r4, #12]
    29dc:	0719      	lsls	r1, r3, #28
    29de:	d422      	bmi.n	2a26 <__swsetup_r+0x62>
    29e0:	06da      	lsls	r2, r3, #27
    29e2:	d407      	bmi.n	29f4 <__swsetup_r+0x30>
    29e4:	2209      	movs	r2, #9
    29e6:	602a      	str	r2, [r5, #0]
    29e8:	f043 0340 	orr.w	r3, r3, #64	; 0x40
    29ec:	81a3      	strh	r3, [r4, #12]
    29ee:	f04f 30ff 	mov.w	r0, #4294967295
    29f2:	e033      	b.n	2a5c <__swsetup_r+0x98>
    29f4:	0758      	lsls	r0, r3, #29
    29f6:	d512      	bpl.n	2a1e <__swsetup_r+0x5a>
    29f8:	6b61      	ldr	r1, [r4, #52]	; 0x34
    29fa:	b141      	cbz	r1, 2a0e <__swsetup_r+0x4a>
    29fc:	f104 0344 	add.w	r3, r4, #68	; 0x44
    2a00:	4299      	cmp	r1, r3
    2a02:	d002      	beq.n	2a0a <__swsetup_r+0x46>
    2a04:	4628      	mov	r0, r5
    2a06:	f7ff fc17 	bl	2238 <_free_r>
    2a0a:	2300      	movs	r3, #0
    2a0c:	6363      	str	r3, [r4, #52]	; 0x34
    2a0e:	89a3      	ldrh	r3, [r4, #12]
    2a10:	f023 0324 	bic.w	r3, r3, #36	; 0x24
    2a14:	81a3      	strh	r3, [r4, #12]
    2a16:	2300      	movs	r3, #0
    2a18:	6063      	str	r3, [r4, #4]
    2a1a:	6923      	ldr	r3, [r4, #16]
    2a1c:	6023      	str	r3, [r4, #0]
    2a1e:	89a3      	ldrh	r3, [r4, #12]
    2a20:	f043 0308 	orr.w	r3, r3, #8
    2a24:	81a3      	strh	r3, [r4, #12]
    2a26:	6923      	ldr	r3, [r4, #16]
    2a28:	b94b      	cbnz	r3, 2a3e <__swsetup_r+0x7a>
    2a2a:	89a3      	ldrh	r3, [r4, #12]
    2a2c:	f403 7320 	and.w	r3, r3, #640	; 0x280
    2a30:	f5b3 7f00 	cmp.w	r3, #512	; 0x200
    2a34:	d003      	beq.n	2a3e <__swsetup_r+0x7a>
    2a36:	4621      	mov	r1, r4
    2a38:	4628      	mov	r0, r5
    2a3a:	f7ff ff49 	bl	28d0 <__smakebuf_r>
    2a3e:	f9b4 300c 	ldrsh.w	r3, [r4, #12]
    2a42:	f013 0201 	ands.w	r2, r3, #1
    2a46:	d00a      	beq.n	2a5e <__swsetup_r+0x9a>
    2a48:	2200      	movs	r2, #0
    2a4a:	60a2      	str	r2, [r4, #8]
    2a4c:	6962      	ldr	r2, [r4, #20]
    2a4e:	4252      	negs	r2, r2
    2a50:	61a2      	str	r2, [r4, #24]
    2a52:	6922      	ldr	r2, [r4, #16]
    2a54:	b942      	cbnz	r2, 2a68 <__swsetup_r+0xa4>
    2a56:	f013 0080 	ands.w	r0, r3, #128	; 0x80
    2a5a:	d1c5      	bne.n	29e8 <__swsetup_r+0x24>
    2a5c:	bd38      	pop	{r3, r4, r5, pc}
    2a5e:	0799      	lsls	r1, r3, #30
    2a60:	bf58      	it	pl
    2a62:	6962      	ldrpl	r2, [r4, #20]
    2a64:	60a2      	str	r2, [r4, #8]
    2a66:	e7f4      	b.n	2a52 <__swsetup_r+0x8e>
    2a68:	2000      	movs	r0, #0
    2a6a:	e7f7      	b.n	2a5c <__swsetup_r+0x98>
    2a6c:	20000040 	.word	0x20000040

00002a70 <_fstat_r>:
    2a70:	b538      	push	{r3, r4, r5, lr}
    2a72:	4d07      	ldr	r5, [pc, #28]	; (2a90 <_fstat_r+0x20>)
    2a74:	2300      	movs	r3, #0
    2a76:	4604      	mov	r4, r0
    2a78:	4608      	mov	r0, r1
    2a7a:	4611      	mov	r1, r2
    2a7c:	602b      	str	r3, [r5, #0]
    2a7e:	f7fe ff1b 	bl	18b8 <_fstat>
    2a82:	1c43      	adds	r3, r0, #1
    2a84:	d102      	bne.n	2a8c <_fstat_r+0x1c>
    2a86:	682b      	ldr	r3, [r5, #0]
    2a88:	b103      	cbz	r3, 2a8c <_fstat_r+0x1c>
    2a8a:	6023      	str	r3, [r4, #0]
    2a8c:	bd38      	pop	{r3, r4, r5, pc}
    2a8e:	bf00      	nop
    2a90:	20000708 	.word	0x20000708

00002a94 <_isatty_r>:
    2a94:	b538      	push	{r3, r4, r5, lr}
    2a96:	4d06      	ldr	r5, [pc, #24]	; (2ab0 <_isatty_r+0x1c>)
    2a98:	2300      	movs	r3, #0
    2a9a:	4604      	mov	r4, r0
    2a9c:	4608      	mov	r0, r1
    2a9e:	602b      	str	r3, [r5, #0]
    2aa0:	f7fe ff2c 	bl	18fc <_isatty>
    2aa4:	1c43      	adds	r3, r0, #1
    2aa6:	d102      	bne.n	2aae <_isatty_r+0x1a>
    2aa8:	682b      	ldr	r3, [r5, #0]
    2aaa:	b103      	cbz	r3, 2aae <_isatty_r+0x1a>
    2aac:	6023      	str	r3, [r4, #0]
    2aae:	bd38      	pop	{r3, r4, r5, pc}
    2ab0:	20000708 	.word	0x20000708

00002ab4 <_sbrk>:
    2ab4:	4a04      	ldr	r2, [pc, #16]	; (2ac8 <_sbrk+0x14>)
    2ab6:	4905      	ldr	r1, [pc, #20]	; (2acc <_sbrk+0x18>)
    2ab8:	6813      	ldr	r3, [r2, #0]
    2aba:	2b00      	cmp	r3, #0
    2abc:	bf08      	it	eq
    2abe:	460b      	moveq	r3, r1
    2ac0:	4418      	add	r0, r3
    2ac2:	6010      	str	r0, [r2, #0]
    2ac4:	4618      	mov	r0, r3
    2ac6:	4770      	bx	lr
    2ac8:	2000070c 	.word	0x2000070c
    2acc:	2000072c 	.word	0x2000072c

00002ad0 <_exit>:
    2ad0:	e7fe      	b.n	2ad0 <_exit>
    2ad2:	bf00      	nop

00002ad4 <_init>:
    2ad4:	b5f8      	push	{r3, r4, r5, r6, r7, lr}
    2ad6:	bf00      	nop
    2ad8:	bcf8      	pop	{r3, r4, r5, r6, r7}
    2ada:	bc08      	pop	{r3}
    2adc:	469e      	mov	lr, r3
    2ade:	4770      	bx	lr

00002ae0 <_fini>:
    2ae0:	b5f8      	push	{r3, r4, r5, r6, r7, lr}
    2ae2:	bf00      	nop
    2ae4:	bcf8      	pop	{r3, r4, r5, r6, r7}
    2ae6:	bc08      	pop	{r3}
    2ae8:	469e      	mov	lr, r3
    2aea:	4770      	bx	lr

00002aec <__frame_dummy_init_array_entry>:
    2aec:	014d 0000 05b1 0000 0e31 0000 137d 0000     M.......1...}...
    2afc:	1945 0000                                   E...

00002b00 <__do_global_dtors_aux_fini_array_entry>:
    2b00:	0125 0000                                   %...

00002b04 <_stack_init>:
    2b04:	f5a3 3a80 	sub.w	sl, r3, #65536	; 0x10000
    2b08:	4770      	bx	lr
    2b0a:	bf00      	nop

00002b0c <_mainCRTStartup>:
    2b0c:	4b17      	ldr	r3, [pc, #92]	; (2b6c <_mainCRTStartup+0x60>)
    2b0e:	2b00      	cmp	r3, #0
    2b10:	bf08      	it	eq
    2b12:	4b13      	ldreq	r3, [pc, #76]	; (2b60 <_mainCRTStartup+0x54>)
    2b14:	469d      	mov	sp, r3
    2b16:	f7ff fff5 	bl	2b04 <_stack_init>
    2b1a:	2100      	movs	r1, #0
    2b1c:	468b      	mov	fp, r1
    2b1e:	460f      	mov	r7, r1
    2b20:	4813      	ldr	r0, [pc, #76]	; (2b70 <_mainCRTStartup+0x64>)
    2b22:	4a14      	ldr	r2, [pc, #80]	; (2b74 <_mainCRTStartup+0x68>)
    2b24:	1a12      	subs	r2, r2, r0
    2b26:	f7ff fafa 	bl	211e <memset>
    2b2a:	4b0e      	ldr	r3, [pc, #56]	; (2b64 <_mainCRTStartup+0x58>)
    2b2c:	2b00      	cmp	r3, #0
    2b2e:	d000      	beq.n	2b32 <_mainCRTStartup+0x26>
    2b30:	4798      	blx	r3
    2b32:	4b0d      	ldr	r3, [pc, #52]	; (2b68 <_mainCRTStartup+0x5c>)
    2b34:	2b00      	cmp	r3, #0
    2b36:	d000      	beq.n	2b3a <_mainCRTStartup+0x2e>
    2b38:	4798      	blx	r3
    2b3a:	2000      	movs	r0, #0
    2b3c:	2100      	movs	r1, #0
    2b3e:	0004      	movs	r4, r0
    2b40:	000d      	movs	r5, r1
    2b42:	480d      	ldr	r0, [pc, #52]	; (2b78 <_mainCRTStartup+0x6c>)
    2b44:	2800      	cmp	r0, #0
    2b46:	d002      	beq.n	2b4e <_mainCRTStartup+0x42>
    2b48:	480c      	ldr	r0, [pc, #48]	; (2b7c <_mainCRTStartup+0x70>)
    2b4a:	f3af 8000 	nop.w
    2b4e:	f7ff fb4b 	bl	21e8 <__libc_init_array>
    2b52:	0020      	movs	r0, r4
    2b54:	0029      	movs	r1, r5
    2b56:	f7fd fb0b 	bl	170 <main>
    2b5a:	f7fe ff7f 	bl	1a5c <exit>
    2b5e:	bf00      	nop
    2b60:	00080000 	.word	0x00080000
	...
    2b6c:	20010000 	.word	0x20010000
    2b70:	20000090 	.word	0x20000090
    2b74:	2000072c 	.word	0x2000072c
	...

00002b80 <memchr>:
    2b80:	f001 01ff 	and.w	r1, r1, #255	; 0xff
    2b84:	2a10      	cmp	r2, #16
    2b86:	db2b      	blt.n	2be0 <memchr+0x60>
    2b88:	f010 0f07 	tst.w	r0, #7
    2b8c:	d008      	beq.n	2ba0 <memchr+0x20>
    2b8e:	f810 3b01 	ldrb.w	r3, [r0], #1
    2b92:	3a01      	subs	r2, #1
    2b94:	428b      	cmp	r3, r1
    2b96:	d02d      	beq.n	2bf4 <memchr+0x74>
    2b98:	f010 0f07 	tst.w	r0, #7
    2b9c:	b342      	cbz	r2, 2bf0 <memchr+0x70>
    2b9e:	d1f6      	bne.n	2b8e <memchr+0xe>
    2ba0:	b4f0      	push	{r4, r5, r6, r7}
    2ba2:	ea41 2101 	orr.w	r1, r1, r1, lsl #8
    2ba6:	ea41 4101 	orr.w	r1, r1, r1, lsl #16
    2baa:	f022 0407 	bic.w	r4, r2, #7
    2bae:	f07f 0700 	mvns.w	r7, #0
    2bb2:	2300      	movs	r3, #0
    2bb4:	e8f0 5602 	ldrd	r5, r6, [r0], #8
    2bb8:	3c08      	subs	r4, #8
    2bba:	ea85 0501 	eor.w	r5, r5, r1
    2bbe:	ea86 0601 	eor.w	r6, r6, r1
    2bc2:	fa85 f547 	uadd8	r5, r5, r7
    2bc6:	faa3 f587 	sel	r5, r3, r7
    2bca:	fa86 f647 	uadd8	r6, r6, r7
    2bce:	faa5 f687 	sel	r6, r5, r7
    2bd2:	b98e      	cbnz	r6, 2bf8 <memchr+0x78>
    2bd4:	d1ee      	bne.n	2bb4 <memchr+0x34>
    2bd6:	bcf0      	pop	{r4, r5, r6, r7}
    2bd8:	f001 01ff 	and.w	r1, r1, #255	; 0xff
    2bdc:	f002 0207 	and.w	r2, r2, #7
    2be0:	b132      	cbz	r2, 2bf0 <memchr+0x70>
    2be2:	f810 3b01 	ldrb.w	r3, [r0], #1
    2be6:	3a01      	subs	r2, #1
    2be8:	ea83 0301 	eor.w	r3, r3, r1
    2bec:	b113      	cbz	r3, 2bf4 <memchr+0x74>
    2bee:	d1f8      	bne.n	2be2 <memchr+0x62>
    2bf0:	2000      	movs	r0, #0
    2bf2:	4770      	bx	lr
    2bf4:	3801      	subs	r0, #1
    2bf6:	4770      	bx	lr
    2bf8:	2d00      	cmp	r5, #0
    2bfa:	bf06      	itte	eq
    2bfc:	4635      	moveq	r5, r6
    2bfe:	3803      	subeq	r0, #3
    2c00:	3807      	subne	r0, #7
    2c02:	f015 0f01 	tst.w	r5, #1
    2c06:	d107      	bne.n	2c18 <memchr+0x98>
    2c08:	3001      	adds	r0, #1
    2c0a:	f415 7f80 	tst.w	r5, #256	; 0x100
    2c0e:	bf02      	ittt	eq
    2c10:	3001      	addeq	r0, #1
    2c12:	f415 3fc0 	tsteq.w	r5, #98304	; 0x18000
    2c16:	3001      	addeq	r0, #1
    2c18:	bcf0      	pop	{r4, r5, r6, r7}
    2c1a:	3801      	subs	r0, #1
    2c1c:	4770      	bx	lr
    2c1e:	bf00      	nop
