
C:/Users/di461643/MicroControllTechnik/YAHAL/examples/msp432-launchpad/P3_A3/build/sensor.elf:     file format elf32-littlearm

Sections:
Idx Name          Size      VMA       LMA       File off  Algn
  0 .text         00013a0c  00000000  00000000  00010000  2**6
                  CONTENTS, ALLOC, LOAD, READONLY, CODE
  1 .ARM.extab    000000e0  00013a0c  00013a0c  00023a0c  2**2
                  CONTENTS, ALLOC, LOAD, READONLY, DATA
  2 .ARM.exidx    00000190  00013aec  00013aec  00023aec  2**2
                  CONTENTS, ALLOC, LOAD, READONLY, DATA
  3 .rodata       00001a4b  00013c80  00013c80  00023c80  2**3
                  CONTENTS, ALLOC, LOAD, READONLY, DATA
  4 .copy.table   00000011  000156cb  000156cb  000256cb  2**0
                  CONTENTS, ALLOC, LOAD, DATA
  5 .zero.table   0000000c  000156dc  000156dc  000256dc  2**0
                  CONTENTS, ALLOC, LOAD, DATA
  6 .data         000006f0  20000000  000156e8  00030000  2**3
                  CONTENTS, ALLOC, LOAD, DATA
  7 .bss          000008b8  200006f0  00015dd8  000306f0  2**3
                  ALLOC
  8 .ARM.attributes 00000030  00000000  00000000  000306f0  2**0
                  CONTENTS, READONLY
  9 .comment      00000045  00000000  00000000  00030720  2**0
                  CONTENTS, READONLY
 10 .debug_line_str 000002c7  00000000  00000000  00030765  2**0
                  CONTENTS, READONLY, DEBUGGING, OCTETS
 11 .debug_info   0000e1d6  00000000  00000000  00030a2c  2**0
                  CONTENTS, READONLY, DEBUGGING, OCTETS
 12 .debug_abbrev 00003142  00000000  00000000  0003ec02  2**0
                  CONTENTS, READONLY, DEBUGGING, OCTETS
 13 .debug_loc    00002201  00000000  00000000  00041d44  2**0
                  CONTENTS, READONLY, DEBUGGING, OCTETS
 14 .debug_aranges 00000648  00000000  00000000  00043f45  2**0
                  CONTENTS, READONLY, DEBUGGING, OCTETS
 15 .debug_ranges 00000640  00000000  00000000  0004458d  2**0
                  CONTENTS, READONLY, DEBUGGING, OCTETS
 16 .debug_line   000052ab  00000000  00000000  00044bcd  2**0
                  CONTENTS, READONLY, DEBUGGING, OCTETS
 17 .debug_str    00004376  00000000  00000000  00049e78  2**0
                  CONTENTS, READONLY, DEBUGGING, OCTETS
 18 .debug_frame  00004248  00000000  00000000  0004e1f0  2**2
                  CONTENTS, READONLY, DEBUGGING, OCTETS

C:/Users/di461643/MicroControllTechnik/YAHAL/examples/msp432-launchpad/P3_A3/build/sensor.elf:     file format elf32-littlearm


Disassembly of section .text:

00000000 <isr_vector>:
       0:	00 00 01 20 19 0f 00 00 17 0f 00 00 17 0f 00 00     ... ............
      10:	17 0f 00 00 17 0f 00 00 17 0f 00 00 00 00 00 00     ................
	...
      2c:	c5 1f 00 00 17 0f 00 00 00 00 00 00 59 1f 00 00     ............Y...
      3c:	51 1f 00 00 17 0f 00 00 17 0f 00 00 17 0f 00 00     Q...............
      4c:	17 0f 00 00 17 0f 00 00 17 0f 00 00 17 0f 00 00     ................
      5c:	17 0f 00 00 17 0f 00 00 17 0f 00 00 17 0f 00 00     ................
      6c:	17 0f 00 00 17 0f 00 00 17 0f 00 00 17 0f 00 00     ................
      7c:	17 0f 00 00 39 1d 00 00 55 1d 00 00 71 1d 00 00     ....9...U...q...
      8c:	8d 1d 00 00 a9 1d 00 00 c9 1d 00 00 e9 1d 00 00     ................
      9c:	09 1e 00 00 71 06 00 00 17 0f 00 00 17 0f 00 00     ....q...........
      ac:	17 0f 00 00 17 0f 00 00 17 0f 00 00 17 0f 00 00     ................
      bc:	17 0f 00 00 17 0f 00 00 17 0f 00 00 17 0f 00 00     ................
      cc:	d1 0c 00 00 f5 0c 00 00 19 0d 00 00 3d 0d 00 00     ............=...
      dc:	61 0d 00 00 89 0d 00 00                             a.......

000000e4 <deregister_tm_clones>:
      e4:	4803      	ldr	r0, [pc, #12]	; (f4 <deregister_tm_clones+0x10>)
      e6:	4b04      	ldr	r3, [pc, #16]	; (f8 <deregister_tm_clones+0x14>)
      e8:	4283      	cmp	r3, r0
      ea:	d002      	beq.n	f2 <deregister_tm_clones+0xe>
      ec:	4b03      	ldr	r3, [pc, #12]	; (fc <deregister_tm_clones+0x18>)
      ee:	b103      	cbz	r3, f2 <deregister_tm_clones+0xe>
      f0:	4718      	bx	r3
      f2:	4770      	bx	lr
      f4:	200006f0 	.word	0x200006f0
      f8:	200006f0 	.word	0x200006f0
      fc:	00000000 	.word	0x00000000

00000100 <register_tm_clones>:
     100:	4805      	ldr	r0, [pc, #20]	; (118 <register_tm_clones+0x18>)
     102:	4b06      	ldr	r3, [pc, #24]	; (11c <register_tm_clones+0x1c>)
     104:	1a1b      	subs	r3, r3, r0
     106:	0fd9      	lsrs	r1, r3, #31
     108:	eb01 01a3 	add.w	r1, r1, r3, asr #2
     10c:	1049      	asrs	r1, r1, #1
     10e:	d002      	beq.n	116 <register_tm_clones+0x16>
     110:	4b03      	ldr	r3, [pc, #12]	; (120 <register_tm_clones+0x20>)
     112:	b103      	cbz	r3, 116 <register_tm_clones+0x16>
     114:	4718      	bx	r3
     116:	4770      	bx	lr
     118:	200006f0 	.word	0x200006f0
     11c:	200006f0 	.word	0x200006f0
     120:	00000000 	.word	0x00000000

00000124 <__do_global_dtors_aux>:
     124:	b510      	push	{r4, lr}
     126:	4c06      	ldr	r4, [pc, #24]	; (140 <__do_global_dtors_aux+0x1c>)
     128:	7823      	ldrb	r3, [r4, #0]
     12a:	b943      	cbnz	r3, 13e <__do_global_dtors_aux+0x1a>
     12c:	f7ff ffda 	bl	e4 <deregister_tm_clones>
     130:	4b04      	ldr	r3, [pc, #16]	; (144 <__do_global_dtors_aux+0x20>)
     132:	b113      	cbz	r3, 13a <__do_global_dtors_aux+0x16>
     134:	4804      	ldr	r0, [pc, #16]	; (148 <__do_global_dtors_aux+0x24>)
     136:	f3af 8000 	nop.w
     13a:	2301      	movs	r3, #1
     13c:	7023      	strb	r3, [r4, #0]
     13e:	bd10      	pop	{r4, pc}
     140:	20000fa5 	.word	0x20000fa5
     144:	00000000 	.word	0x00000000
     148:	000156cc 	.word	0x000156cc

0000014c <frame_dummy>:
     14c:	b508      	push	{r3, lr}
     14e:	4b05      	ldr	r3, [pc, #20]	; (164 <frame_dummy+0x18>)
     150:	b11b      	cbz	r3, 15a <frame_dummy+0xe>
     152:	4905      	ldr	r1, [pc, #20]	; (168 <frame_dummy+0x1c>)
     154:	4805      	ldr	r0, [pc, #20]	; (16c <frame_dummy+0x20>)
     156:	f3af 8000 	nop.w
     15a:	e8bd 4008 	ldmia.w	sp!, {r3, lr}
     15e:	f7ff bfcf 	b.w	100 <register_tm_clones>
     162:	bf00      	nop
     164:	00000000 	.word	0x00000000
     168:	20000f8c 	.word	0x20000f8c
     16c:	000156cc 	.word	0x000156cc

00000170 <main>:
     170:	b510      	push	{r4, lr}
     172:	ed2d 8b06 	vpush	{d8-d10}
     176:	b08c      	sub	sp, #48	; 0x30
     178:	2326      	movs	r3, #38	; 0x26
     17a:	f44f 32e1 	mov.w	r2, #115200	; 0x1c200
     17e:	4942      	ldr	r1, [pc, #264]	; (288 <main+0x118>)
     180:	a806      	add	r0, sp, #24
     182:	f001 f803 	bl	118c <uart_msp432::uart_msp432(EUSCI_A_Type*, unsigned long, unsigned short)>
     186:	2201      	movs	r2, #1
     188:	a906      	add	r1, sp, #24
     18a:	4840      	ldr	r0, [pc, #256]	; (28c <main+0x11c>)
     18c:	f001 fdbc 	bl	1d08 <posix_io::register_stdout(uart_interface&, bool)>
     190:	4c3f      	ldr	r4, [pc, #252]	; (290 <main+0x120>)
     192:	9404      	str	r4, [sp, #16]
     194:	210e      	movs	r1, #14
     196:	f88d 1014 	strb.w	r1, [sp, #20]
     19a:	6823      	ldr	r3, [r4, #0]
     19c:	681b      	ldr	r3, [r3, #0]
     19e:	2208      	movs	r2, #8
     1a0:	4620      	mov	r0, r4
     1a2:	4798      	blx	r3
     1a4:	9402      	str	r4, [sp, #8]
     1a6:	210d      	movs	r1, #13
     1a8:	f88d 100c 	strb.w	r1, [sp, #12]
     1ac:	6823      	ldr	r3, [r4, #0]
     1ae:	681b      	ldr	r3, [r3, #0]
     1b0:	2208      	movs	r2, #8
     1b2:	4620      	mov	r0, r4
     1b4:	4798      	blx	r3
     1b6:	9400      	str	r4, [sp, #0]
     1b8:	210b      	movs	r1, #11
     1ba:	f88d 1004 	strb.w	r1, [sp, #4]
     1be:	6823      	ldr	r3, [r4, #0]
     1c0:	681b      	ldr	r3, [r3, #0]
     1c2:	2208      	movs	r2, #8
     1c4:	4620      	mov	r0, r4
     1c6:	4798      	blx	r3
     1c8:	f44f 707a 	mov.w	r0, #1000	; 0x3e8
     1cc:	f001 fb2e 	bl	182c <task::sleep(unsigned long)>
     1d0:	4c2f      	ldr	r4, [pc, #188]	; (290 <main+0x120>)
     1d2:	6823      	ldr	r3, [r4, #0]
     1d4:	68db      	ldr	r3, [r3, #12]
     1d6:	210e      	movs	r1, #14
     1d8:	4620      	mov	r0, r4
     1da:	4798      	blx	r3
     1dc:	ed9f 8a2d 	vldr	s16, [pc, #180]	; 294 <main+0x124>
     1e0:	ee30 9a48 	vsub.f32	s18, s0, s16
     1e4:	6823      	ldr	r3, [r4, #0]
     1e6:	68db      	ldr	r3, [r3, #12]
     1e8:	210d      	movs	r1, #13
     1ea:	4620      	mov	r0, r4
     1ec:	4798      	blx	r3
     1ee:	ee70 8a48 	vsub.f32	s17, s0, s16
     1f2:	6823      	ldr	r3, [r4, #0]
     1f4:	68db      	ldr	r3, [r3, #12]
     1f6:	210b      	movs	r1, #11
     1f8:	4620      	mov	r0, r4
     1fa:	4798      	blx	r3
     1fc:	ee30 8a48 	vsub.f32	s16, s0, s16
     200:	eddf 7a25 	vldr	s15, [pc, #148]	; 298 <main+0x128>
     204:	eec9 aa27 	vdiv.f32	s21, s18, s15
     208:	ee88 aaa7 	vdiv.f32	s20, s17, s15
     20c:	eec8 9a27 	vdiv.f32	s19, s16, s15
     210:	4822      	ldr	r0, [pc, #136]	; (29c <main+0x12c>)
     212:	f00a ffeb 	bl	b1ec <puts>
     216:	ee19 0a10 	vmov	r0, s18
     21a:	f012 fd0d 	bl	12c38 <__aeabi_f2d>
     21e:	4602      	mov	r2, r0
     220:	460b      	mov	r3, r1
     222:	481f      	ldr	r0, [pc, #124]	; (2a0 <main+0x130>)
     224:	f00a ff44 	bl	b0b0 <printf>
     228:	ee1a 0a90 	vmov	r0, s21
     22c:	f012 fd04 	bl	12c38 <__aeabi_f2d>
     230:	4602      	mov	r2, r0
     232:	460b      	mov	r3, r1
     234:	4c1b      	ldr	r4, [pc, #108]	; (2a4 <main+0x134>)
     236:	4620      	mov	r0, r4
     238:	f00a ff3a 	bl	b0b0 <printf>
     23c:	ee18 0a90 	vmov	r0, s17
     240:	f012 fcfa 	bl	12c38 <__aeabi_f2d>
     244:	4602      	mov	r2, r0
     246:	460b      	mov	r3, r1
     248:	4817      	ldr	r0, [pc, #92]	; (2a8 <main+0x138>)
     24a:	f00a ff31 	bl	b0b0 <printf>
     24e:	ee1a 0a10 	vmov	r0, s20
     252:	f012 fcf1 	bl	12c38 <__aeabi_f2d>
     256:	4602      	mov	r2, r0
     258:	460b      	mov	r3, r1
     25a:	4814      	ldr	r0, [pc, #80]	; (2ac <main+0x13c>)
     25c:	f00a ff28 	bl	b0b0 <printf>
     260:	ee18 0a10 	vmov	r0, s16
     264:	f012 fce8 	bl	12c38 <__aeabi_f2d>
     268:	4602      	mov	r2, r0
     26a:	460b      	mov	r3, r1
     26c:	4810      	ldr	r0, [pc, #64]	; (2b0 <main+0x140>)
     26e:	f00a ff1f 	bl	b0b0 <printf>
     272:	ee19 0a90 	vmov	r0, s19
     276:	f012 fcdf 	bl	12c38 <__aeabi_f2d>
     27a:	4602      	mov	r2, r0
     27c:	460b      	mov	r3, r1
     27e:	4620      	mov	r0, r4
     280:	f00a ff16 	bl	b0b0 <printf>
     284:	e7a0      	b.n	1c8 <main+0x58>
     286:	bf00      	nop
     288:	40001000 	.word	0x40001000
     28c:	20000c60 	.word	0x20000c60
     290:	20000bac 	.word	0x20000bac
     294:	3fd33333 	.word	0x3fd33333
     298:	3d859c8d 	.word	0x3d859c8d
     29c:	00013cdc 	.word	0x00013cdc
     2a0:	00013ce4 	.word	0x00013ce4
     2a4:	00013cf4 	.word	0x00013cf4
     2a8:	00013d04 	.word	0x00013d04
     2ac:	00013d14 	.word	0x00013d14
     2b0:	00013d24 	.word	0x00013d24

000002b4 <yahal_assert_func()>:
     2b4:	e7fe      	b.n	2b4 <yahal_assert_func()>
	...

000002b8 <adc14_msp432::getMode(unsigned char)>:
     2b8:	2917      	cmp	r1, #23
     2ba:	d804      	bhi.n	2c6 <adc14_msp432::getMode(unsigned char)+0xe>
     2bc:	3134      	adds	r1, #52	; 0x34
     2be:	eb00 0041 	add.w	r0, r0, r1, lsl #1
     2c2:	8880      	ldrh	r0, [r0, #4]
     2c4:	4770      	bx	lr
     2c6:	b508      	push	{r3, lr}
     2c8:	4b03      	ldr	r3, [pc, #12]	; (2d8 <adc14_msp432::getMode(unsigned char)+0x20>)
     2ca:	4a04      	ldr	r2, [pc, #16]	; (2dc <adc14_msp432::getMode(unsigned char)+0x24>)
     2cc:	601a      	str	r2, [r3, #0]
     2ce:	4b04      	ldr	r3, [pc, #16]	; (2e0 <adc14_msp432::getMode(unsigned char)+0x28>)
     2d0:	2240      	movs	r2, #64	; 0x40
     2d2:	601a      	str	r2, [r3, #0]
     2d4:	f7ff ffee 	bl	2b4 <yahal_assert_func()>
     2d8:	20000704 	.word	0x20000704
     2dc:	00013d34 	.word	0x00013d34
     2e0:	20000718 	.word	0x20000718

000002e4 <adc14_msp432::adcReadVoltage(unsigned char)>:
     2e4:	b570      	push	{r4, r5, r6, lr}
     2e6:	4604      	mov	r4, r0
     2e8:	460d      	mov	r5, r1
     2ea:	6803      	ldr	r3, [r0, #0]
     2ec:	691e      	ldr	r6, [r3, #16]
     2ee:	689b      	ldr	r3, [r3, #8]
     2f0:	4798      	blx	r3
     2f2:	4602      	mov	r2, r0
     2f4:	4629      	mov	r1, r5
     2f6:	4620      	mov	r0, r4
     2f8:	47b0      	blx	r6
     2fa:	bd70      	pop	{r4, r5, r6, pc}

000002fc <adc14_msp432::rawToVoltage(unsigned char, unsigned short)>:
     2fc:	b508      	push	{r3, lr}
     2fe:	ee07 2a90 	vmov	s15, r2
     302:	eef8 7a67 	vcvt.f32.u32	s15, s15
     306:	ed9f 7a16 	vldr	s14, [pc, #88]	; 360 <adc14_msp432::rawToVoltage(unsigned char, unsigned short)+0x64>
     30a:	ee67 7a87 	vmul.f32	s15, s15, s14
     30e:	3134      	adds	r1, #52	; 0x34
     310:	eb00 0041 	add.w	r0, r0, r1, lsl #1
     314:	8883      	ldrh	r3, [r0, #4]
     316:	3b01      	subs	r3, #1
     318:	2b07      	cmp	r3, #7
     31a:	d819      	bhi.n	350 <adc14_msp432::rawToVoltage(unsigned char, unsigned short)+0x54>
     31c:	e8df f003 	tbb	[pc, r3]
     320:	0e180904 	.word	0x0e180904
     324:	13181818 	.word	0x13181818
     328:	ed9f 7a0e 	vldr	s14, [pc, #56]	; 364 <adc14_msp432::rawToVoltage(unsigned char, unsigned short)+0x68>
     32c:	ee87 0a87 	vdiv.f32	s0, s15, s14
     330:	bd08      	pop	{r3, pc}
     332:	ed9f 7a0d 	vldr	s14, [pc, #52]	; 368 <adc14_msp432::rawToVoltage(unsigned char, unsigned short)+0x6c>
     336:	ee87 0a87 	vdiv.f32	s0, s15, s14
     33a:	e7f9      	b.n	330 <adc14_msp432::rawToVoltage(unsigned char, unsigned short)+0x34>
     33c:	ed9f 7a0b 	vldr	s14, [pc, #44]	; 36c <adc14_msp432::rawToVoltage(unsigned char, unsigned short)+0x70>
     340:	ee87 0a87 	vdiv.f32	s0, s15, s14
     344:	e7f4      	b.n	330 <adc14_msp432::rawToVoltage(unsigned char, unsigned short)+0x34>
     346:	ed9f 7a0a 	vldr	s14, [pc, #40]	; 370 <adc14_msp432::rawToVoltage(unsigned char, unsigned short)+0x74>
     34a:	ee87 0a87 	vdiv.f32	s0, s15, s14
     34e:	e7ef      	b.n	330 <adc14_msp432::rawToVoltage(unsigned char, unsigned short)+0x34>
     350:	4b08      	ldr	r3, [pc, #32]	; (374 <adc14_msp432::rawToVoltage(unsigned char, unsigned short)+0x78>)
     352:	4a09      	ldr	r2, [pc, #36]	; (378 <adc14_msp432::rawToVoltage(unsigned char, unsigned short)+0x7c>)
     354:	601a      	str	r2, [r3, #0]
     356:	4b09      	ldr	r3, [pc, #36]	; (37c <adc14_msp432::rawToVoltage(unsigned char, unsigned short)+0x80>)
     358:	2264      	movs	r2, #100	; 0x64
     35a:	601a      	str	r2, [r3, #0]
     35c:	f7ff ffaa 	bl	2b4 <yahal_assert_func()>
     360:	40533333 	.word	0x40533333
     364:	437f0000 	.word	0x437f0000
     368:	447fc000 	.word	0x447fc000
     36c:	457ff000 	.word	0x457ff000
     370:	467ffc00 	.word	0x467ffc00
     374:	20000704 	.word	0x20000704
     378:	00013d34 	.word	0x00013d34
     37c:	20000718 	.word	0x20000718

00000380 <adc14_msp432::~adc14_msp432()>:
     380:	4a02      	ldr	r2, [pc, #8]	; (38c <adc14_msp432::~adc14_msp432()+0xc>)
     382:	6002      	str	r2, [r0, #0]
     384:	4a02      	ldr	r2, [pc, #8]	; (390 <adc14_msp432::~adc14_msp432()+0x10>)
     386:	6002      	str	r2, [r0, #0]
     388:	4770      	bx	lr
     38a:	bf00      	nop
     38c:	00013db4 	.word	0x00013db4
     390:	00013d90 	.word	0x00013d90

00000394 <adc14_msp432::adcMode(unsigned char, unsigned short)>:
     394:	b508      	push	{r3, lr}
     396:	2917      	cmp	r1, #23
     398:	d80a      	bhi.n	3b0 <adc14_msp432::adcMode(unsigned char, unsigned short)+0x1c>
     39a:	f101 0334 	add.w	r3, r1, #52	; 0x34
     39e:	eb00 0043 	add.w	r0, r0, r3, lsl #1
     3a2:	8082      	strh	r2, [r0, #4]
     3a4:	290d      	cmp	r1, #13
     3a6:	d90b      	bls.n	3c0 <adc14_msp432::adcMode(unsigned char, unsigned short)+0x2c>
     3a8:	290f      	cmp	r1, #15
     3aa:	d816      	bhi.n	3da <adc14_msp432::adcMode(unsigned char, unsigned short)+0x46>
     3ac:	233f      	movs	r3, #63	; 0x3f
     3ae:	e008      	b.n	3c2 <adc14_msp432::adcMode(unsigned char, unsigned short)+0x2e>
     3b0:	4b0b      	ldr	r3, [pc, #44]	; (3e0 <adc14_msp432::adcMode(unsigned char, unsigned short)+0x4c>)
     3b2:	4a0c      	ldr	r2, [pc, #48]	; (3e4 <adc14_msp432::adcMode(unsigned char, unsigned short)+0x50>)
     3b4:	601a      	str	r2, [r3, #0]
     3b6:	4b0c      	ldr	r3, [pc, #48]	; (3e8 <adc14_msp432::adcMode(unsigned char, unsigned short)+0x54>)
     3b8:	222e      	movs	r2, #46	; 0x2e
     3ba:	601a      	str	r2, [r3, #0]
     3bc:	f7ff ff7a 	bl	2b4 <yahal_assert_func()>
     3c0:	232d      	movs	r3, #45	; 0x2d
     3c2:	1a5b      	subs	r3, r3, r1
     3c4:	f3c3 01c7 	ubfx	r1, r3, #3, #8
     3c8:	f003 0307 	and.w	r3, r3, #7
     3cc:	2203      	movs	r2, #3
     3ce:	ea43 2101 	orr.w	r1, r3, r1, lsl #8
     3d2:	4806      	ldr	r0, [pc, #24]	; (3ec <adc14_msp432::adcMode(unsigned char, unsigned short)+0x58>)
     3d4:	f000 fb1e 	bl	a14 <gpio_msp432::setSEL(unsigned short, unsigned char)>
     3d8:	bd08      	pop	{r3, pc}
     3da:	2359      	movs	r3, #89	; 0x59
     3dc:	e7f1      	b.n	3c2 <adc14_msp432::adcMode(unsigned char, unsigned short)+0x2e>
     3de:	bf00      	nop
     3e0:	20000704 	.word	0x20000704
     3e4:	00013d34 	.word	0x00013d34
     3e8:	20000718 	.word	0x20000718
     3ec:	20000730 	.word	0x20000730

000003f0 <adc14_msp432::~adc14_msp432()>:
     3f0:	b510      	push	{r4, lr}
     3f2:	4604      	mov	r4, r0
     3f4:	4b04      	ldr	r3, [pc, #16]	; (408 <adc14_msp432::~adc14_msp432()+0x18>)
     3f6:	6003      	str	r3, [r0, #0]
     3f8:	4b04      	ldr	r3, [pc, #16]	; (40c <adc14_msp432::~adc14_msp432()+0x1c>)
     3fa:	6003      	str	r3, [r0, #0]
     3fc:	21a0      	movs	r1, #160	; 0xa0
     3fe:	f001 fe61 	bl	20c4 <operator delete(void*, unsigned int)>
     402:	4620      	mov	r0, r4
     404:	bd10      	pop	{r4, pc}
     406:	bf00      	nop
     408:	00013db4 	.word	0x00013db4
     40c:	00013d90 	.word	0x00013d90

00000410 <adc14_msp432::adcStopScan()>:
     410:	4b05      	ldr	r3, [pc, #20]	; (428 <adc14_msp432::adcStopScan()+0x18>)
     412:	791b      	ldrb	r3, [r3, #4]
     414:	b13b      	cbz	r3, 426 <adc14_msp432::adcStopScan()+0x16>
     416:	2300      	movs	r3, #0
     418:	4a03      	ldr	r2, [pc, #12]	; (428 <adc14_msp432::adcStopScan()+0x18>)
     41a:	7113      	strb	r3, [r2, #4]
     41c:	e000      	b.n	420 <adc14_msp432::adcStopScan()+0x10>
     41e:	3301      	adds	r3, #1
     420:	f5b3 7f7a 	cmp.w	r3, #1000	; 0x3e8
     424:	dbfb      	blt.n	41e <adc14_msp432::adcStopScan()+0xe>
     426:	4770      	bx	lr
     428:	42240000 	.word	0x42240000

0000042c <adc14_msp432::adc14_msp432()>:
     42c:	b510      	push	{r4, lr}
     42e:	4604      	mov	r4, r0
     430:	4b12      	ldr	r3, [pc, #72]	; (47c <adc14_msp432::adc14_msp432()+0x50>)
     432:	6003      	str	r3, [r0, #0]
     434:	4b12      	ldr	r3, [pc, #72]	; (480 <adc14_msp432::adc14_msp432()+0x54>)
     436:	6003      	str	r3, [r0, #0]
     438:	f7ff ffea 	bl	410 <adc14_msp432::adcStopScan()>
     43c:	2300      	movs	r3, #0
     43e:	e009      	b.n	454 <adc14_msp432::adc14_msp432()+0x28>
     440:	4a10      	ldr	r2, [pc, #64]	; (484 <adc14_msp432::adc14_msp432()+0x58>)
     442:	1d99      	adds	r1, r3, #6
     444:	f842 3021 	str.w	r3, [r2, r1, lsl #2]
     448:	f852 0021 	ldr.w	r0, [r2, r1, lsl #2]
     44c:	f842 0021 	str.w	r0, [r2, r1, lsl #2]
     450:	3301      	adds	r3, #1
     452:	b2db      	uxtb	r3, r3
     454:	2b17      	cmp	r3, #23
     456:	d9f3      	bls.n	440 <adc14_msp432::adc14_msp432()+0x14>
     458:	2200      	movs	r2, #0
     45a:	f8a4 209c 	strh.w	r2, [r4, #156]	; 0x9c
     45e:	4b09      	ldr	r3, [pc, #36]	; (484 <adc14_msp432::adc14_msp432()+0x58>)
     460:	4909      	ldr	r1, [pc, #36]	; (488 <adc14_msp432::adc14_msp432()+0x5c>)
     462:	6019      	str	r1, [r3, #0]
     464:	6859      	ldr	r1, [r3, #4]
     466:	6059      	str	r1, [r3, #4]
     468:	f8c3 213c 	str.w	r2, [r3, #316]	; 0x13c
     46c:	f8c3 2140 	str.w	r2, [r3, #320]	; 0x140
     470:	4b06      	ldr	r3, [pc, #24]	; (48c <adc14_msp432::adc14_msp432()+0x60>)
     472:	f04f 7280 	mov.w	r2, #16777216	; 0x1000000
     476:	601a      	str	r2, [r3, #0]
     478:	4620      	mov	r0, r4
     47a:	bd10      	pop	{r4, pc}
     47c:	00013d90 	.word	0x00013d90
     480:	00013db4 	.word	0x00013db4
     484:	40012000 	.word	0x40012000
     488:	44204410 	.word	0x44204410
     48c:	e000e100 	.word	0xe000e100

00000490 <__static_initialization_and_destruction_0(int, int)>:
     490:	2801      	cmp	r0, #1
     492:	d000      	beq.n	496 <__static_initialization_and_destruction_0(int, int)+0x6>
     494:	4770      	bx	lr
     496:	f64f 73ff 	movw	r3, #65535	; 0xffff
     49a:	4299      	cmp	r1, r3
     49c:	d1fa      	bne.n	494 <__static_initialization_and_destruction_0(int, int)+0x4>
     49e:	b510      	push	{r4, lr}
     4a0:	4c04      	ldr	r4, [pc, #16]	; (4b4 <__static_initialization_and_destruction_0(int, int)+0x24>)
     4a2:	4620      	mov	r0, r4
     4a4:	f7ff ffc2 	bl	42c <adc14_msp432::adc14_msp432()>
     4a8:	4a03      	ldr	r2, [pc, #12]	; (4b8 <__static_initialization_and_destruction_0(int, int)+0x28>)
     4aa:	4904      	ldr	r1, [pc, #16]	; (4bc <__static_initialization_and_destruction_0(int, int)+0x2c>)
     4ac:	4620      	mov	r0, r4
     4ae:	f001 fe03 	bl	20b8 <__aeabi_atexit>
     4b2:	bd10      	pop	{r4, pc}
     4b4:	20000bac 	.word	0x20000bac
     4b8:	20000000 	.word	0x20000000
     4bc:	00000381 	.word	0x00000381

000004c0 <adc14_msp432::set_resolution(unsigned short)>:
     4c0:	b538      	push	{r3, r4, r5, lr}
     4c2:	4605      	mov	r5, r0
     4c4:	460c      	mov	r4, r1
     4c6:	f7ff ffa3 	bl	410 <adc14_msp432::adcStopScan()>
     4ca:	4a1c      	ldr	r2, [pc, #112]	; (53c <adc14_msp432::set_resolution(unsigned short)+0x7c>)
     4cc:	6853      	ldr	r3, [r2, #4]
     4ce:	f023 0330 	bic.w	r3, r3, #48	; 0x30
     4d2:	6053      	str	r3, [r2, #4]
     4d4:	1e61      	subs	r1, r4, #1
     4d6:	2907      	cmp	r1, #7
     4d8:	d827      	bhi.n	52a <adc14_msp432::set_resolution(unsigned short)+0x6a>
     4da:	e8df f001 	tbb	[pc, r1]
     4de:	0b04      	.short	0x0b04
     4e0:	26261426 	.word	0x26261426
     4e4:	1d26      	.short	0x1d26
     4e6:	4b15      	ldr	r3, [pc, #84]	; (53c <adc14_msp432::set_resolution(unsigned short)+0x7c>)
     4e8:	685a      	ldr	r2, [r3, #4]
     4ea:	605a      	str	r2, [r3, #4]
     4ec:	2301      	movs	r3, #1
     4ee:	f8a5 309c 	strh.w	r3, [r5, #156]	; 0x9c
     4f2:	bd38      	pop	{r3, r4, r5, pc}
     4f4:	4a11      	ldr	r2, [pc, #68]	; (53c <adc14_msp432::set_resolution(unsigned short)+0x7c>)
     4f6:	6853      	ldr	r3, [r2, #4]
     4f8:	f043 0310 	orr.w	r3, r3, #16
     4fc:	6053      	str	r3, [r2, #4]
     4fe:	2302      	movs	r3, #2
     500:	f8a5 309c 	strh.w	r3, [r5, #156]	; 0x9c
     504:	e7f5      	b.n	4f2 <adc14_msp432::set_resolution(unsigned short)+0x32>
     506:	4a0d      	ldr	r2, [pc, #52]	; (53c <adc14_msp432::set_resolution(unsigned short)+0x7c>)
     508:	6853      	ldr	r3, [r2, #4]
     50a:	f043 0320 	orr.w	r3, r3, #32
     50e:	6053      	str	r3, [r2, #4]
     510:	2304      	movs	r3, #4
     512:	f8a5 309c 	strh.w	r3, [r5, #156]	; 0x9c
     516:	e7ec      	b.n	4f2 <adc14_msp432::set_resolution(unsigned short)+0x32>
     518:	4a08      	ldr	r2, [pc, #32]	; (53c <adc14_msp432::set_resolution(unsigned short)+0x7c>)
     51a:	6853      	ldr	r3, [r2, #4]
     51c:	f043 0330 	orr.w	r3, r3, #48	; 0x30
     520:	6053      	str	r3, [r2, #4]
     522:	2308      	movs	r3, #8
     524:	f8a5 309c 	strh.w	r3, [r5, #156]	; 0x9c
     528:	e7e3      	b.n	4f2 <adc14_msp432::set_resolution(unsigned short)+0x32>
     52a:	4b05      	ldr	r3, [pc, #20]	; (540 <adc14_msp432::set_resolution(unsigned short)+0x80>)
     52c:	4a05      	ldr	r2, [pc, #20]	; (544 <adc14_msp432::set_resolution(unsigned short)+0x84>)
     52e:	601a      	str	r2, [r3, #0]
     530:	4b05      	ldr	r3, [pc, #20]	; (548 <adc14_msp432::set_resolution(unsigned short)+0x88>)
     532:	22c5      	movs	r2, #197	; 0xc5
     534:	601a      	str	r2, [r3, #0]
     536:	f7ff febd 	bl	2b4 <yahal_assert_func()>
     53a:	bf00      	nop
     53c:	40012000 	.word	0x40012000
     540:	20000704 	.word	0x20000704
     544:	00013d34 	.word	0x00013d34
     548:	20000718 	.word	0x20000718

0000054c <adc14_msp432::adcReadRaw(unsigned char)>:
     54c:	b510      	push	{r4, lr}
     54e:	2917      	cmp	r1, #23
     550:	d82c      	bhi.n	5ac <adc14_msp432::adcReadRaw(unsigned char)+0x60>
     552:	460c      	mov	r4, r1
     554:	f8b0 209c 	ldrh.w	r2, [r0, #156]	; 0x9c
     558:	f101 0334 	add.w	r3, r1, #52	; 0x34
     55c:	eb00 0343 	add.w	r3, r0, r3, lsl #1
     560:	8899      	ldrh	r1, [r3, #4]
     562:	428a      	cmp	r2, r1
     564:	d02a      	beq.n	5bc <adc14_msp432::adcReadRaw(unsigned char)+0x70>
     566:	f7ff ffab 	bl	4c0 <adc14_msp432::set_resolution(unsigned short)>
     56a:	4b16      	ldr	r3, [pc, #88]	; (5c4 <adc14_msp432::adcReadRaw(unsigned char)+0x78>)
     56c:	685a      	ldr	r2, [r3, #4]
     56e:	f422 12f8 	bic.w	r2, r2, #2031616	; 0x1f0000
     572:	605a      	str	r2, [r3, #4]
     574:	685a      	ldr	r2, [r3, #4]
     576:	ea42 4204 	orr.w	r2, r2, r4, lsl #16
     57a:	605a      	str	r2, [r3, #4]
     57c:	681a      	ldr	r2, [r3, #0]
     57e:	f422 22c0 	bic.w	r2, r2, #393216	; 0x60000
     582:	601a      	str	r2, [r3, #0]
     584:	681a      	ldr	r2, [r3, #0]
     586:	601a      	str	r2, [r3, #0]
     588:	681a      	ldr	r2, [r3, #0]
     58a:	f042 0203 	orr.w	r2, r2, #3
     58e:	601a      	str	r2, [r3, #0]
     590:	4b0d      	ldr	r3, [pc, #52]	; (5c8 <adc14_msp432::adcReadRaw(unsigned char)+0x7c>)
     592:	f893 3040 	ldrb.w	r3, [r3, #64]	; 0x40
     596:	2b00      	cmp	r3, #0
     598:	d1fa      	bne.n	590 <adc14_msp432::adcReadRaw(unsigned char)+0x44>
     59a:	3426      	adds	r4, #38	; 0x26
     59c:	f103 4380 	add.w	r3, r3, #1073741824	; 0x40000000
     5a0:	f503 3390 	add.w	r3, r3, #73728	; 0x12000
     5a4:	f853 0024 	ldr.w	r0, [r3, r4, lsl #2]
     5a8:	b280      	uxth	r0, r0
     5aa:	bd10      	pop	{r4, pc}
     5ac:	4b07      	ldr	r3, [pc, #28]	; (5cc <adc14_msp432::adcReadRaw(unsigned char)+0x80>)
     5ae:	4a08      	ldr	r2, [pc, #32]	; (5d0 <adc14_msp432::adcReadRaw(unsigned char)+0x84>)
     5b0:	601a      	str	r2, [r3, #0]
     5b2:	4b08      	ldr	r3, [pc, #32]	; (5d4 <adc14_msp432::adcReadRaw(unsigned char)+0x88>)
     5b4:	2245      	movs	r2, #69	; 0x45
     5b6:	601a      	str	r2, [r3, #0]
     5b8:	f7ff fe7c 	bl	2b4 <yahal_assert_func()>
     5bc:	f7ff ff28 	bl	410 <adc14_msp432::adcStopScan()>
     5c0:	e7d3      	b.n	56a <adc14_msp432::adcReadRaw(unsigned char)+0x1e>
     5c2:	bf00      	nop
     5c4:	40012000 	.word	0x40012000
     5c8:	42240000 	.word	0x42240000
     5cc:	20000704 	.word	0x20000704
     5d0:	00013d34 	.word	0x00013d34
     5d4:	20000718 	.word	0x20000718

000005d8 <adc14_msp432::handleIrq(unsigned long)>:
     5d8:	b538      	push	{r3, r4, r5, lr}
     5da:	4605      	mov	r5, r0
     5dc:	460c      	mov	r4, r1
     5de:	290b      	cmp	r1, #11
     5e0:	d90e      	bls.n	600 <adc14_msp432::handleIrq(unsigned long)+0x28>
     5e2:	084c      	lsrs	r4, r1, #1
     5e4:	3c06      	subs	r4, #6
     5e6:	eb00 0084 	add.w	r0, r0, r4, lsl #2
     5ea:	6843      	ldr	r3, [r0, #4]
     5ec:	b13b      	cbz	r3, 5fe <adc14_msp432::handleIrq(unsigned long)+0x26>
     5ee:	f104 0126 	add.w	r1, r4, #38	; 0x26
     5f2:	4a1e      	ldr	r2, [pc, #120]	; (66c <adc14_msp432::handleIrq(unsigned long)+0x94>)
     5f4:	f852 1021 	ldr.w	r1, [r2, r1, lsl #2]
     5f8:	b289      	uxth	r1, r1
     5fa:	b2a0      	uxth	r0, r4
     5fc:	4798      	blx	r3
     5fe:	bd38      	pop	{r3, r4, r5, pc}
     600:	f7ff ff06 	bl	410 <adc14_msp432::adcStopScan()>
     604:	f895 206a 	ldrb.w	r2, [r5, #106]	; 0x6a
     608:	4b18      	ldr	r3, [pc, #96]	; (66c <adc14_msp432::handleIrq(unsigned long)+0x94>)
     60a:	3206      	adds	r2, #6
     60c:	f853 1022 	ldr.w	r1, [r3, r2, lsl #2]
     610:	f421 4180 	bic.w	r1, r1, #16384	; 0x4000
     614:	f843 1022 	str.w	r1, [r3, r2, lsl #2]
     618:	f8d3 2140 	ldr.w	r2, [r3, #320]	; 0x140
     61c:	f022 020e 	bic.w	r2, r2, #14
     620:	f8c3 2140 	str.w	r2, [r3, #320]	; 0x140
     624:	f8d3 2150 	ldr.w	r2, [r3, #336]	; 0x150
     628:	f042 020e 	orr.w	r2, r2, #14
     62c:	f8c3 2150 	str.w	r2, [r3, #336]	; 0x150
     630:	2c08      	cmp	r4, #8
     632:	d016      	beq.n	662 <adc14_msp432::handleIrq(unsigned long)+0x8a>
     634:	2c0a      	cmp	r4, #10
     636:	d016      	beq.n	666 <adc14_msp432::handleIrq(unsigned long)+0x8e>
     638:	2c06      	cmp	r4, #6
     63a:	d010      	beq.n	65e <adc14_msp432::handleIrq(unsigned long)+0x86>
     63c:	2100      	movs	r1, #0
     63e:	6e6a      	ldr	r2, [r5, #100]	; 0x64
     640:	b13a      	cbz	r2, 652 <adc14_msp432::handleIrq(unsigned long)+0x7a>
     642:	f895 306a 	ldrb.w	r3, [r5, #106]	; 0x6a
     646:	3326      	adds	r3, #38	; 0x26
     648:	4808      	ldr	r0, [pc, #32]	; (66c <adc14_msp432::handleIrq(unsigned long)+0x94>)
     64a:	f850 0023 	ldr.w	r0, [r0, r3, lsl #2]
     64e:	b280      	uxth	r0, r0
     650:	4790      	blx	r2
     652:	4a06      	ldr	r2, [pc, #24]	; (66c <adc14_msp432::handleIrq(unsigned long)+0x94>)
     654:	6813      	ldr	r3, [r2, #0]
     656:	f043 0303 	orr.w	r3, r3, #3
     65a:	6013      	str	r3, [r2, #0]
     65c:	e7cf      	b.n	5fe <adc14_msp432::handleIrq(unsigned long)+0x26>
     65e:	2102      	movs	r1, #2
     660:	e7ed      	b.n	63e <adc14_msp432::handleIrq(unsigned long)+0x66>
     662:	2101      	movs	r1, #1
     664:	e7eb      	b.n	63e <adc14_msp432::handleIrq(unsigned long)+0x66>
     666:	2104      	movs	r1, #4
     668:	e7e9      	b.n	63e <adc14_msp432::handleIrq(unsigned long)+0x66>
     66a:	bf00      	nop
     66c:	40012000 	.word	0x40012000

00000670 <ADC14_IRQHandler>:
     670:	b508      	push	{r3, lr}
     672:	4b03      	ldr	r3, [pc, #12]	; (680 <ADC14_IRQHandler+0x10>)
     674:	f8d3 1154 	ldr.w	r1, [r3, #340]	; 0x154
     678:	4802      	ldr	r0, [pc, #8]	; (684 <ADC14_IRQHandler+0x14>)
     67a:	f7ff ffad 	bl	5d8 <adc14_msp432::handleIrq(unsigned long)>
     67e:	bd08      	pop	{r3, pc}
     680:	40012000 	.word	0x40012000
     684:	20000bac 	.word	0x20000bac

00000688 <_GLOBAL__sub_I__ZN12adc14_msp4324instE>:
     688:	b508      	push	{r3, lr}
     68a:	f64f 71ff 	movw	r1, #65535	; 0xffff
     68e:	2001      	movs	r0, #1
     690:	f7ff fefe 	bl	490 <__static_initialization_and_destruction_0(int, int)>
     694:	bd08      	pop	{r3, pc}
	...

00000698 <__NVIC_EnableIRQ>:
     698:	2800      	cmp	r0, #0
     69a:	db07      	blt.n	6ac <__NVIC_EnableIRQ+0x14>
     69c:	f000 021f 	and.w	r2, r0, #31
     6a0:	0940      	lsrs	r0, r0, #5
     6a2:	2301      	movs	r3, #1
     6a4:	4093      	lsls	r3, r2
     6a6:	4a02      	ldr	r2, [pc, #8]	; (6b0 <__NVIC_EnableIRQ+0x18>)
     6a8:	f842 3020 	str.w	r3, [r2, r0, lsl #2]
     6ac:	4770      	bx	lr
     6ae:	bf00      	nop
     6b0:	e000e100 	.word	0xe000e100

000006b4 <yahal_assert_func()>:
     6b4:	e7fe      	b.n	6b4 <yahal_assert_func()>
	...

000006b8 <gpio_msp432::gpioRead(unsigned short)>:
     6b8:	b508      	push	{r3, lr}
     6ba:	0a0b      	lsrs	r3, r1, #8
     6bc:	1e5a      	subs	r2, r3, #1
     6be:	b2d2      	uxtb	r2, r2
     6c0:	2a09      	cmp	r2, #9
     6c2:	d80c      	bhi.n	6de <gpio_msp432::gpioRead(unsigned short)+0x26>
     6c4:	b2c9      	uxtb	r1, r1
     6c6:	2907      	cmp	r1, #7
     6c8:	d809      	bhi.n	6de <gpio_msp432::gpioRead(unsigned short)+0x26>
     6ca:	3b01      	subs	r3, #1
     6cc:	4a08      	ldr	r2, [pc, #32]	; (6f0 <gpio_msp432::gpioRead(unsigned short)+0x38>)
     6ce:	f852 3023 	ldr.w	r3, [r2, r3, lsl #2]
     6d2:	f813 0021 	ldrb.w	r0, [r3, r1, lsl #2]
     6d6:	3800      	subs	r0, #0
     6d8:	bf18      	it	ne
     6da:	2001      	movne	r0, #1
     6dc:	bd08      	pop	{r3, pc}
     6de:	4b05      	ldr	r3, [pc, #20]	; (6f4 <gpio_msp432::gpioRead(unsigned short)+0x3c>)
     6e0:	4a05      	ldr	r2, [pc, #20]	; (6f8 <gpio_msp432::gpioRead(unsigned short)+0x40>)
     6e2:	601a      	str	r2, [r3, #0]
     6e4:	4b05      	ldr	r3, [pc, #20]	; (6fc <gpio_msp432::gpioRead(unsigned short)+0x44>)
     6e6:	2233      	movs	r2, #51	; 0x33
     6e8:	601a      	str	r2, [r3, #0]
     6ea:	f7ff ffe3 	bl	6b4 <yahal_assert_func()>
     6ee:	bf00      	nop
     6f0:	20000004 	.word	0x20000004
     6f4:	20000708 	.word	0x20000708
     6f8:	00013dd0 	.word	0x00013dd0
     6fc:	2000071c 	.word	0x2000071c

00000700 <gpio_msp432::gpioWrite(unsigned short, bool)>:
     700:	b510      	push	{r4, lr}
     702:	0a0b      	lsrs	r3, r1, #8
     704:	f103 3cff 	add.w	ip, r3, #4294967295
     708:	fa5f fc8c 	uxtb.w	ip, ip
     70c:	f1bc 0f09 	cmp.w	ip, #9
     710:	d82a      	bhi.n	768 <gpio_msp432::gpioWrite(unsigned short, bool)+0x68>
     712:	fa5f fe81 	uxtb.w	lr, r1
     716:	f1be 0f07 	cmp.w	lr, #7
     71a:	d825      	bhi.n	768 <gpio_msp432::gpioWrite(unsigned short, bool)+0x68>
     71c:	3b01      	subs	r3, #1
     71e:	eb00 0c03 	add.w	ip, r0, r3
     722:	f89c c3fe 	ldrb.w	ip, [ip, #1022]	; 0x3fe
     726:	fa4c fc01 	asr.w	ip, ip, r1
     72a:	f01c 0f01 	tst.w	ip, #1
     72e:	d040      	beq.n	7b2 <gpio_msp432::gpioWrite(unsigned short, bool)+0xb2>
     730:	4418      	add	r0, r3
     732:	f890 0408 	ldrb.w	r0, [r0, #1032]	; 0x408
     736:	fa40 f101 	asr.w	r1, r0, r1
     73a:	f011 0f01 	tst.w	r1, #1
     73e:	d02e      	beq.n	79e <gpio_msp432::gpioWrite(unsigned short, bool)+0x9e>
     740:	b1d2      	cbz	r2, 778 <gpio_msp432::gpioWrite(unsigned short, bool)+0x78>
     742:	4a3d      	ldr	r2, [pc, #244]	; (838 <gpio_msp432::gpioWrite(unsigned short, bool)+0x138>)
     744:	f852 0023 	ldr.w	r0, [r2, r3, lsl #2]
     748:	ea4f 0e8e 	mov.w	lr, lr, lsl #2
     74c:	f10e 0180 	add.w	r1, lr, #128	; 0x80
     750:	f04f 0c00 	mov.w	ip, #0
     754:	f800 c001 	strb.w	ip, [r0, r1]
     758:	f852 3023 	ldr.w	r3, [r2, r3, lsl #2]
     75c:	f10e 0e40 	add.w	lr, lr, #64	; 0x40
     760:	2201      	movs	r2, #1
     762:	f803 200e 	strb.w	r2, [r3, lr]
     766:	e023      	b.n	7b0 <gpio_msp432::gpioWrite(unsigned short, bool)+0xb0>
     768:	4b34      	ldr	r3, [pc, #208]	; (83c <gpio_msp432::gpioWrite(unsigned short, bool)+0x13c>)
     76a:	4a35      	ldr	r2, [pc, #212]	; (840 <gpio_msp432::gpioWrite(unsigned short, bool)+0x140>)
     76c:	601a      	str	r2, [r3, #0]
     76e:	4b35      	ldr	r3, [pc, #212]	; (844 <gpio_msp432::gpioWrite(unsigned short, bool)+0x144>)
     770:	223a      	movs	r2, #58	; 0x3a
     772:	601a      	str	r2, [r3, #0]
     774:	f7ff ff9e 	bl	6b4 <yahal_assert_func()>
     778:	4a2f      	ldr	r2, [pc, #188]	; (838 <gpio_msp432::gpioWrite(unsigned short, bool)+0x138>)
     77a:	f852 0023 	ldr.w	r0, [r2, r3, lsl #2]
     77e:	ea4f 0e8e 	mov.w	lr, lr, lsl #2
     782:	f10e 0140 	add.w	r1, lr, #64	; 0x40
     786:	f04f 0c00 	mov.w	ip, #0
     78a:	f800 c001 	strb.w	ip, [r0, r1]
     78e:	f852 3023 	ldr.w	r3, [r2, r3, lsl #2]
     792:	f10e 0e80 	add.w	lr, lr, #128	; 0x80
     796:	2201      	movs	r2, #1
     798:	f803 200e 	strb.w	r2, [r3, lr]
     79c:	e008      	b.n	7b0 <gpio_msp432::gpioWrite(unsigned short, bool)+0xb0>
     79e:	4926      	ldr	r1, [pc, #152]	; (838 <gpio_msp432::gpioWrite(unsigned short, bool)+0x138>)
     7a0:	f851 1023 	ldr.w	r1, [r1, r3, lsl #2]
     7a4:	ea4f 038e 	mov.w	r3, lr, lsl #2
     7a8:	3380      	adds	r3, #128	; 0x80
     7aa:	f082 0201 	eor.w	r2, r2, #1
     7ae:	54ca      	strb	r2, [r1, r3]
     7b0:	bd10      	pop	{r4, pc}
     7b2:	eb00 0c03 	add.w	ip, r0, r3
     7b6:	f89c c3f4 	ldrb.w	ip, [ip, #1012]	; 0x3f4
     7ba:	fa4c fc01 	asr.w	ip, ip, r1
     7be:	f01c 0f01 	tst.w	ip, #1
     7c2:	d030      	beq.n	826 <gpio_msp432::gpioWrite(unsigned short, bool)+0x126>
     7c4:	4418      	add	r0, r3
     7c6:	f890 0412 	ldrb.w	r0, [r0, #1042]	; 0x412
     7ca:	fa40 f101 	asr.w	r1, r0, r1
     7ce:	f011 0f01 	tst.w	r1, #1
     7d2:	d020      	beq.n	816 <gpio_msp432::gpioWrite(unsigned short, bool)+0x116>
     7d4:	b17a      	cbz	r2, 7f6 <gpio_msp432::gpioWrite(unsigned short, bool)+0xf6>
     7d6:	4918      	ldr	r1, [pc, #96]	; (838 <gpio_msp432::gpioWrite(unsigned short, bool)+0x138>)
     7d8:	ea4f 0e8e 	mov.w	lr, lr, lsl #2
     7dc:	f10e 0040 	add.w	r0, lr, #64	; 0x40
     7e0:	2201      	movs	r2, #1
     7e2:	f851 4023 	ldr.w	r4, [r1, r3, lsl #2]
     7e6:	5422      	strb	r2, [r4, r0]
     7e8:	f851 3023 	ldr.w	r3, [r1, r3, lsl #2]
     7ec:	f10e 0e80 	add.w	lr, lr, #128	; 0x80
     7f0:	f803 200e 	strb.w	r2, [r3, lr]
     7f4:	e7dc      	b.n	7b0 <gpio_msp432::gpioWrite(unsigned short, bool)+0xb0>
     7f6:	4910      	ldr	r1, [pc, #64]	; (838 <gpio_msp432::gpioWrite(unsigned short, bool)+0x138>)
     7f8:	ea4f 0e8e 	mov.w	lr, lr, lsl #2
     7fc:	f10e 0080 	add.w	r0, lr, #128	; 0x80
     800:	2200      	movs	r2, #0
     802:	f851 4023 	ldr.w	r4, [r1, r3, lsl #2]
     806:	5422      	strb	r2, [r4, r0]
     808:	f851 3023 	ldr.w	r3, [r1, r3, lsl #2]
     80c:	f10e 0e40 	add.w	lr, lr, #64	; 0x40
     810:	f803 200e 	strb.w	r2, [r3, lr]
     814:	e7cc      	b.n	7b0 <gpio_msp432::gpioWrite(unsigned short, bool)+0xb0>
     816:	4908      	ldr	r1, [pc, #32]	; (838 <gpio_msp432::gpioWrite(unsigned short, bool)+0x138>)
     818:	f851 1023 	ldr.w	r1, [r1, r3, lsl #2]
     81c:	ea4f 038e 	mov.w	r3, lr, lsl #2
     820:	3380      	adds	r3, #128	; 0x80
     822:	54ca      	strb	r2, [r1, r3]
     824:	e7c4      	b.n	7b0 <gpio_msp432::gpioWrite(unsigned short, bool)+0xb0>
     826:	4904      	ldr	r1, [pc, #16]	; (838 <gpio_msp432::gpioWrite(unsigned short, bool)+0x138>)
     828:	f851 1023 	ldr.w	r1, [r1, r3, lsl #2]
     82c:	ea4f 038e 	mov.w	r3, lr, lsl #2
     830:	3340      	adds	r3, #64	; 0x40
     832:	54ca      	strb	r2, [r1, r3]
     834:	e7bc      	b.n	7b0 <gpio_msp432::gpioWrite(unsigned short, bool)+0xb0>
     836:	bf00      	nop
     838:	20000004 	.word	0x20000004
     83c:	20000708 	.word	0x20000708
     840:	00013dd0 	.word	0x00013dd0
     844:	2000071c 	.word	0x2000071c

00000848 <gpio_msp432::gpioToggle(unsigned short)>:
     848:	b508      	push	{r3, lr}
     84a:	0a0b      	lsrs	r3, r1, #8
     84c:	1e5a      	subs	r2, r3, #1
     84e:	b2d2      	uxtb	r2, r2
     850:	2a09      	cmp	r2, #9
     852:	d811      	bhi.n	878 <gpio_msp432::gpioToggle(unsigned short)+0x30>
     854:	fa5f fc81 	uxtb.w	ip, r1
     858:	f1bc 0f07 	cmp.w	ip, #7
     85c:	d80c      	bhi.n	878 <gpio_msp432::gpioToggle(unsigned short)+0x30>
     85e:	3b01      	subs	r3, #1
     860:	4a09      	ldr	r2, [pc, #36]	; (888 <gpio_msp432::gpioToggle(unsigned short)+0x40>)
     862:	f852 3023 	ldr.w	r3, [r2, r3, lsl #2]
     866:	f813 202c 	ldrb.w	r2, [r3, ip, lsl #2]
     86a:	6803      	ldr	r3, [r0, #0]
     86c:	689b      	ldr	r3, [r3, #8]
     86e:	fab2 f282 	clz	r2, r2
     872:	0952      	lsrs	r2, r2, #5
     874:	4798      	blx	r3
     876:	bd08      	pop	{r3, pc}
     878:	4b04      	ldr	r3, [pc, #16]	; (88c <gpio_msp432::gpioToggle(unsigned short)+0x44>)
     87a:	4a05      	ldr	r2, [pc, #20]	; (890 <gpio_msp432::gpioToggle(unsigned short)+0x48>)
     87c:	601a      	str	r2, [r3, #0]
     87e:	4b05      	ldr	r3, [pc, #20]	; (894 <gpio_msp432::gpioToggle(unsigned short)+0x4c>)
     880:	225e      	movs	r2, #94	; 0x5e
     882:	601a      	str	r2, [r3, #0]
     884:	f7ff ff16 	bl	6b4 <yahal_assert_func()>
     888:	20000004 	.word	0x20000004
     88c:	20000708 	.word	0x20000708
     890:	00013dd0 	.word	0x00013dd0
     894:	2000071c 	.word	0x2000071c

00000898 <gpio_msp432::gpioEnableIrq(unsigned short)>:
     898:	b510      	push	{r4, lr}
     89a:	0a08      	lsrs	r0, r1, #8
     89c:	1e43      	subs	r3, r0, #1
     89e:	b2db      	uxtb	r3, r3
     8a0:	2b05      	cmp	r3, #5
     8a2:	d818      	bhi.n	8d6 <gpio_msp432::gpioEnableIrq(unsigned short)+0x3e>
     8a4:	b2c9      	uxtb	r1, r1
     8a6:	2907      	cmp	r1, #7
     8a8:	d815      	bhi.n	8d6 <gpio_msp432::gpioEnableIrq(unsigned short)+0x3e>
     8aa:	1e42      	subs	r2, r0, #1
     8ac:	4b0e      	ldr	r3, [pc, #56]	; (8e8 <gpio_msp432::gpioEnableIrq(unsigned short)+0x50>)
     8ae:	0089      	lsls	r1, r1, #2
     8b0:	f501 7c60 	add.w	ip, r1, #896	; 0x380
     8b4:	f04f 0e00 	mov.w	lr, #0
     8b8:	f853 4022 	ldr.w	r4, [r3, r2, lsl #2]
     8bc:	f804 e00c 	strb.w	lr, [r4, ip]
     8c0:	f853 3022 	ldr.w	r3, [r3, r2, lsl #2]
     8c4:	f501 7150 	add.w	r1, r1, #832	; 0x340
     8c8:	2201      	movs	r2, #1
     8ca:	545a      	strb	r2, [r3, r1]
     8cc:	3022      	adds	r0, #34	; 0x22
     8ce:	b240      	sxtb	r0, r0
     8d0:	f7ff fee2 	bl	698 <__NVIC_EnableIRQ>
     8d4:	bd10      	pop	{r4, pc}
     8d6:	4b05      	ldr	r3, [pc, #20]	; (8ec <gpio_msp432::gpioEnableIrq(unsigned short)+0x54>)
     8d8:	4a05      	ldr	r2, [pc, #20]	; (8f0 <gpio_msp432::gpioEnableIrq(unsigned short)+0x58>)
     8da:	601a      	str	r2, [r3, #0]
     8dc:	4b05      	ldr	r3, [pc, #20]	; (8f4 <gpio_msp432::gpioEnableIrq(unsigned short)+0x5c>)
     8de:	2290      	movs	r2, #144	; 0x90
     8e0:	601a      	str	r2, [r3, #0]
     8e2:	f7ff fee7 	bl	6b4 <yahal_assert_func()>
     8e6:	bf00      	nop
     8e8:	20000004 	.word	0x20000004
     8ec:	20000708 	.word	0x20000708
     8f0:	00013dd0 	.word	0x00013dd0
     8f4:	2000071c 	.word	0x2000071c

000008f8 <gpio_msp432::gpioDisableIrq(unsigned short)>:
     8f8:	b508      	push	{r3, lr}
     8fa:	0a0b      	lsrs	r3, r1, #8
     8fc:	1e5a      	subs	r2, r3, #1
     8fe:	b2d2      	uxtb	r2, r2
     900:	2a05      	cmp	r2, #5
     902:	d80c      	bhi.n	91e <gpio_msp432::gpioDisableIrq(unsigned short)+0x26>
     904:	b2c9      	uxtb	r1, r1
     906:	2907      	cmp	r1, #7
     908:	d809      	bhi.n	91e <gpio_msp432::gpioDisableIrq(unsigned short)+0x26>
     90a:	3b01      	subs	r3, #1
     90c:	4a08      	ldr	r2, [pc, #32]	; (930 <gpio_msp432::gpioDisableIrq(unsigned short)+0x38>)
     90e:	f852 3023 	ldr.w	r3, [r2, r3, lsl #2]
     912:	0089      	lsls	r1, r1, #2
     914:	f501 7150 	add.w	r1, r1, #832	; 0x340
     918:	2200      	movs	r2, #0
     91a:	545a      	strb	r2, [r3, r1]
     91c:	bd08      	pop	{r3, pc}
     91e:	4b05      	ldr	r3, [pc, #20]	; (934 <gpio_msp432::gpioDisableIrq(unsigned short)+0x3c>)
     920:	4a05      	ldr	r2, [pc, #20]	; (938 <gpio_msp432::gpioDisableIrq(unsigned short)+0x40>)
     922:	601a      	str	r2, [r3, #0]
     924:	4b05      	ldr	r3, [pc, #20]	; (93c <gpio_msp432::gpioDisableIrq(unsigned short)+0x44>)
     926:	229a      	movs	r2, #154	; 0x9a
     928:	601a      	str	r2, [r3, #0]
     92a:	f7ff fec3 	bl	6b4 <yahal_assert_func()>
     92e:	bf00      	nop
     930:	20000004 	.word	0x20000004
     934:	20000708 	.word	0x20000708
     938:	00013dd0 	.word	0x00013dd0
     93c:	2000071c 	.word	0x2000071c

00000940 <std::_Function_base::~_Function_base()>:
     940:	b510      	push	{r4, lr}
     942:	4604      	mov	r4, r0
     944:	6883      	ldr	r3, [r0, #8]
     946:	b113      	cbz	r3, 94e <std::_Function_base::~_Function_base()+0xe>
     948:	2203      	movs	r2, #3
     94a:	4601      	mov	r1, r0
     94c:	4798      	blx	r3
     94e:	4620      	mov	r0, r4
     950:	bd10      	pop	{r4, pc}
	...

00000954 <gpio_msp432::~gpio_msp432()>:
     954:	b570      	push	{r4, r5, r6, lr}
     956:	4606      	mov	r6, r0
     958:	4605      	mov	r5, r0
     95a:	4b08      	ldr	r3, [pc, #32]	; (97c <gpio_msp432::~gpio_msp432()+0x28>)
     95c:	f845 3b04 	str.w	r3, [r5], #4
     960:	f500 7441 	add.w	r4, r0, #772	; 0x304
     964:	e003      	b.n	96e <gpio_msp432::~gpio_msp432()+0x1a>
     966:	3c10      	subs	r4, #16
     968:	4620      	mov	r0, r4
     96a:	f7ff ffe9 	bl	940 <std::_Function_base::~_Function_base()>
     96e:	42a5      	cmp	r5, r4
     970:	d1f9      	bne.n	966 <gpio_msp432::~gpio_msp432()+0x12>
     972:	4b03      	ldr	r3, [pc, #12]	; (980 <gpio_msp432::~gpio_msp432()+0x2c>)
     974:	6033      	str	r3, [r6, #0]
     976:	4630      	mov	r0, r6
     978:	bd70      	pop	{r4, r5, r6, pc}
     97a:	bf00      	nop
     97c:	00013e5c 	.word	0x00013e5c
     980:	00013e2c 	.word	0x00013e2c

00000984 <gpio_msp432::~gpio_msp432()>:
     984:	b510      	push	{r4, lr}
     986:	4604      	mov	r4, r0
     988:	f7ff ffe4 	bl	954 <gpio_msp432::~gpio_msp432()>
     98c:	f240 411c 	movw	r1, #1052	; 0x41c
     990:	4620      	mov	r0, r4
     992:	f001 fb97 	bl	20c4 <operator delete(void*, unsigned int)>
     996:	4620      	mov	r0, r4
     998:	bd10      	pop	{r4, pc}
	...

0000099c <gpio_msp432::gpio_msp432()>:
     99c:	b500      	push	{lr}
     99e:	4b0f      	ldr	r3, [pc, #60]	; (9dc <gpio_msp432::gpio_msp432()+0x40>)
     9a0:	6003      	str	r3, [r0, #0]
     9a2:	4684      	mov	ip, r0
     9a4:	4b0e      	ldr	r3, [pc, #56]	; (9e0 <gpio_msp432::gpio_msp432()+0x44>)
     9a6:	f84c 3b04 	str.w	r3, [ip], #4
     9aa:	f04f 0e05 	mov.w	lr, #5
     9ae:	e00c      	b.n	9ca <gpio_msp432::gpio_msp432()+0x2e>
     9b0:	2200      	movs	r2, #0
     9b2:	601a      	str	r2, [r3, #0]
     9b4:	605a      	str	r2, [r3, #4]
     9b6:	609a      	str	r2, [r3, #8]
     9b8:	60da      	str	r2, [r3, #12]
     9ba:	3901      	subs	r1, #1
     9bc:	3310      	adds	r3, #16
     9be:	2900      	cmp	r1, #0
     9c0:	daf6      	bge.n	9b0 <gpio_msp432::gpio_msp432()+0x14>
     9c2:	f10e 3eff 	add.w	lr, lr, #4294967295
     9c6:	f10c 0c80 	add.w	ip, ip, #128	; 0x80
     9ca:	f1be 0f00 	cmp.w	lr, #0
     9ce:	db02      	blt.n	9d6 <gpio_msp432::gpio_msp432()+0x3a>
     9d0:	4663      	mov	r3, ip
     9d2:	2107      	movs	r1, #7
     9d4:	e7f3      	b.n	9be <gpio_msp432::gpio_msp432()+0x22>
     9d6:	f85d fb04 	ldr.w	pc, [sp], #4
     9da:	bf00      	nop
     9dc:	00013e2c 	.word	0x00013e2c
     9e0:	00013e5c 	.word	0x00013e5c

000009e4 <__static_initialization_and_destruction_0(int, int)>:
     9e4:	2801      	cmp	r0, #1
     9e6:	d000      	beq.n	9ea <__static_initialization_and_destruction_0(int, int)+0x6>
     9e8:	4770      	bx	lr
     9ea:	f64f 73ff 	movw	r3, #65535	; 0xffff
     9ee:	4299      	cmp	r1, r3
     9f0:	d1fa      	bne.n	9e8 <__static_initialization_and_destruction_0(int, int)+0x4>
     9f2:	b510      	push	{r4, lr}
     9f4:	4c04      	ldr	r4, [pc, #16]	; (a08 <__static_initialization_and_destruction_0(int, int)+0x24>)
     9f6:	4620      	mov	r0, r4
     9f8:	f7ff ffd0 	bl	99c <gpio_msp432::gpio_msp432()>
     9fc:	4a03      	ldr	r2, [pc, #12]	; (a0c <__static_initialization_and_destruction_0(int, int)+0x28>)
     9fe:	4904      	ldr	r1, [pc, #16]	; (a10 <__static_initialization_and_destruction_0(int, int)+0x2c>)
     a00:	4620      	mov	r0, r4
     a02:	f001 fb59 	bl	20b8 <__aeabi_atexit>
     a06:	bd10      	pop	{r4, pc}
     a08:	20000730 	.word	0x20000730
     a0c:	20000000 	.word	0x20000000
     a10:	00000955 	.word	0x00000955

00000a14 <gpio_msp432::setSEL(unsigned short, unsigned char)>:
     a14:	b510      	push	{r4, lr}
     a16:	0a0b      	lsrs	r3, r1, #8
     a18:	1e58      	subs	r0, r3, #1
     a1a:	b2c0      	uxtb	r0, r0
     a1c:	2809      	cmp	r0, #9
     a1e:	d815      	bhi.n	a4c <gpio_msp432::setSEL(unsigned short, unsigned char)+0x38>
     a20:	b2c9      	uxtb	r1, r1
     a22:	2907      	cmp	r1, #7
     a24:	d812      	bhi.n	a4c <gpio_msp432::setSEL(unsigned short, unsigned char)+0x38>
     a26:	3b01      	subs	r3, #1
     a28:	480c      	ldr	r0, [pc, #48]	; (a5c <gpio_msp432::setSEL(unsigned short, unsigned char)+0x48>)
     a2a:	0089      	lsls	r1, r1, #2
     a2c:	f501 7ca0 	add.w	ip, r1, #320	; 0x140
     a30:	f002 0e01 	and.w	lr, r2, #1
     a34:	f850 4023 	ldr.w	r4, [r0, r3, lsl #2]
     a38:	f804 e00c 	strb.w	lr, [r4, ip]
     a3c:	f850 3023 	ldr.w	r3, [r0, r3, lsl #2]
     a40:	f501 71c0 	add.w	r1, r1, #384	; 0x180
     a44:	f3c2 0240 	ubfx	r2, r2, #1, #1
     a48:	545a      	strb	r2, [r3, r1]
     a4a:	bd10      	pop	{r4, pc}
     a4c:	4b04      	ldr	r3, [pc, #16]	; (a60 <gpio_msp432::setSEL(unsigned short, unsigned char)+0x4c>)
     a4e:	4a05      	ldr	r2, [pc, #20]	; (a64 <gpio_msp432::setSEL(unsigned short, unsigned char)+0x50>)
     a50:	601a      	str	r2, [r3, #0]
     a52:	4b05      	ldr	r3, [pc, #20]	; (a68 <gpio_msp432::setSEL(unsigned short, unsigned char)+0x54>)
     a54:	22aa      	movs	r2, #170	; 0xaa
     a56:	601a      	str	r2, [r3, #0]
     a58:	f7ff fe2c 	bl	6b4 <yahal_assert_func()>
     a5c:	20000004 	.word	0x20000004
     a60:	20000708 	.word	0x20000708
     a64:	00013dd0 	.word	0x00013dd0
     a68:	2000071c 	.word	0x2000071c

00000a6c <gpio_msp432::setMode(unsigned short, unsigned short)>:
     a6c:	e92d 43f8 	stmdb	sp!, {r3, r4, r5, r6, r7, r8, r9, lr}
     a70:	460e      	mov	r6, r1
     a72:	4614      	mov	r4, r2
     a74:	0a0b      	lsrs	r3, r1, #8
     a76:	b2ca      	uxtb	r2, r1
     a78:	1e59      	subs	r1, r3, #1
     a7a:	b2c9      	uxtb	r1, r1
     a7c:	2909      	cmp	r1, #9
     a7e:	f200 8090 	bhi.w	ba2 <gpio_msp432::setMode(unsigned short, unsigned short)+0x136>
     a82:	4605      	mov	r5, r0
     a84:	2a07      	cmp	r2, #7
     a86:	f200 808c 	bhi.w	ba2 <gpio_msp432::setMode(unsigned short, unsigned short)+0x136>
     a8a:	3b01      	subs	r3, #1
     a8c:	eb00 0c03 	add.w	ip, r0, r3
     a90:	f89c 03fe 	ldrb.w	r0, [ip, #1022]	; 0x3fe
     a94:	2101      	movs	r1, #1
     a96:	40b1      	lsls	r1, r6
     a98:	ea20 0001 	bic.w	r0, r0, r1
     a9c:	f88c 03fe 	strb.w	r0, [ip, #1022]	; 0x3fe
     aa0:	f89c 03f4 	ldrb.w	r0, [ip, #1012]	; 0x3f4
     aa4:	ea20 0001 	bic.w	r0, r0, r1
     aa8:	f88c 03f4 	strb.w	r0, [ip, #1012]	; 0x3f4
     aac:	f89c 0408 	ldrb.w	r0, [ip, #1032]	; 0x408
     ab0:	ea20 0001 	bic.w	r0, r0, r1
     ab4:	f88c 0408 	strb.w	r0, [ip, #1032]	; 0x408
     ab8:	f89c 0412 	ldrb.w	r0, [ip, #1042]	; 0x412
     abc:	ea20 0001 	bic.w	r0, r0, r1
     ac0:	f88c 0412 	strb.w	r0, [ip, #1042]	; 0x412
     ac4:	4f3f      	ldr	r7, [pc, #252]	; (bc4 <gpio_msp432::setMode(unsigned short, unsigned short)+0x158>)
     ac6:	f857 0023 	ldr.w	r0, [r7, r3, lsl #2]
     aca:	0092      	lsls	r2, r2, #2
     acc:	f102 0880 	add.w	r8, r2, #128	; 0x80
     ad0:	f04f 0c00 	mov.w	ip, #0
     ad4:	f800 c008 	strb.w	ip, [r0, r8]
     ad8:	f857 0023 	ldr.w	r0, [r7, r3, lsl #2]
     adc:	f102 0ec0 	add.w	lr, r2, #192	; 0xc0
     ae0:	f800 c00e 	strb.w	ip, [r0, lr]
     ae4:	f857 0023 	ldr.w	r0, [r7, r3, lsl #2]
     ae8:	f102 0940 	add.w	r9, r2, #64	; 0x40
     aec:	f800 c009 	strb.w	ip, [r0, r9]
     af0:	f014 0f02 	tst.w	r4, #2
     af4:	d004      	beq.n	b00 <gpio_msp432::setMode(unsigned short, unsigned short)+0x94>
     af6:	f857 0023 	ldr.w	r0, [r7, r3, lsl #2]
     afa:	2701      	movs	r7, #1
     afc:	f800 7008 	strb.w	r7, [r0, r8]
     b00:	f014 0f04 	tst.w	r4, #4
     b04:	d005      	beq.n	b12 <gpio_msp432::setMode(unsigned short, unsigned short)+0xa6>
     b06:	18ef      	adds	r7, r5, r3
     b08:	f897 03fe 	ldrb.w	r0, [r7, #1022]	; 0x3fe
     b0c:	4308      	orrs	r0, r1
     b0e:	f887 03fe 	strb.w	r0, [r7, #1022]	; 0x3fe
     b12:	f014 0f08 	tst.w	r4, #8
     b16:	d00b      	beq.n	b30 <gpio_msp432::setMode(unsigned short, unsigned short)+0xc4>
     b18:	18ef      	adds	r7, r5, r3
     b1a:	f897 03f4 	ldrb.w	r0, [r7, #1012]	; 0x3f4
     b1e:	4308      	orrs	r0, r1
     b20:	f887 03f4 	strb.w	r0, [r7, #1012]	; 0x3f4
     b24:	4827      	ldr	r0, [pc, #156]	; (bc4 <gpio_msp432::setMode(unsigned short, unsigned short)+0x158>)
     b26:	f850 0023 	ldr.w	r0, [r0, r3, lsl #2]
     b2a:	2701      	movs	r7, #1
     b2c:	f800 7009 	strb.w	r7, [r0, r9]
     b30:	f014 0f10 	tst.w	r4, #16
     b34:	d00f      	beq.n	b56 <gpio_msp432::setMode(unsigned short, unsigned short)+0xea>
     b36:	18ef      	adds	r7, r5, r3
     b38:	f897 0408 	ldrb.w	r0, [r7, #1032]	; 0x408
     b3c:	4308      	orrs	r0, r1
     b3e:	f887 0408 	strb.w	r0, [r7, #1032]	; 0x408
     b42:	4820      	ldr	r0, [pc, #128]	; (bc4 <gpio_msp432::setMode(unsigned short, unsigned short)+0x158>)
     b44:	2701      	movs	r7, #1
     b46:	f850 2023 	ldr.w	r2, [r0, r3, lsl #2]
     b4a:	f802 700e 	strb.w	r7, [r2, lr]
     b4e:	f850 0023 	ldr.w	r0, [r0, r3, lsl #2]
     b52:	f800 7009 	strb.w	r7, [r0, r9]
     b56:	f014 0f20 	tst.w	r4, #32
     b5a:	d00b      	beq.n	b74 <gpio_msp432::setMode(unsigned short, unsigned short)+0x108>
     b5c:	18e8      	adds	r0, r5, r3
     b5e:	f890 2412 	ldrb.w	r2, [r0, #1042]	; 0x412
     b62:	430a      	orrs	r2, r1
     b64:	f880 2412 	strb.w	r2, [r0, #1042]	; 0x412
     b68:	4a16      	ldr	r2, [pc, #88]	; (bc4 <gpio_msp432::setMode(unsigned short, unsigned short)+0x158>)
     b6a:	f852 3023 	ldr.w	r3, [r2, r3, lsl #2]
     b6e:	2201      	movs	r2, #1
     b70:	f803 200e 	strb.w	r2, [r3, lr]
     b74:	f014 0fc0 	tst.w	r4, #192	; 0xc0
     b78:	d11b      	bne.n	bb2 <gpio_msp432::setMode(unsigned short, unsigned short)+0x146>
     b7a:	f414 7f80 	tst.w	r4, #256	; 0x100
     b7e:	d005      	beq.n	b8c <gpio_msp432::setMode(unsigned short, unsigned short)+0x120>
     b80:	682b      	ldr	r3, [r5, #0]
     b82:	689b      	ldr	r3, [r3, #8]
     b84:	2201      	movs	r2, #1
     b86:	4631      	mov	r1, r6
     b88:	4628      	mov	r0, r5
     b8a:	4798      	blx	r3
     b8c:	f414 7f00 	tst.w	r4, #512	; 0x200
     b90:	d005      	beq.n	b9e <gpio_msp432::setMode(unsigned short, unsigned short)+0x132>
     b92:	682b      	ldr	r3, [r5, #0]
     b94:	689b      	ldr	r3, [r3, #8]
     b96:	2200      	movs	r2, #0
     b98:	4631      	mov	r1, r6
     b9a:	4628      	mov	r0, r5
     b9c:	4798      	blx	r3
     b9e:	e8bd 83f8 	ldmia.w	sp!, {r3, r4, r5, r6, r7, r8, r9, pc}
     ba2:	4b09      	ldr	r3, [pc, #36]	; (bc8 <gpio_msp432::setMode(unsigned short, unsigned short)+0x15c>)
     ba4:	4a09      	ldr	r2, [pc, #36]	; (bcc <gpio_msp432::setMode(unsigned short, unsigned short)+0x160>)
     ba6:	601a      	str	r2, [r3, #0]
     ba8:	4b09      	ldr	r3, [pc, #36]	; (bd0 <gpio_msp432::setMode(unsigned short, unsigned short)+0x164>)
     baa:	22b2      	movs	r2, #178	; 0xb2
     bac:	601a      	str	r2, [r3, #0]
     bae:	f7ff fd81 	bl	6b4 <yahal_assert_func()>
     bb2:	4b05      	ldr	r3, [pc, #20]	; (bc8 <gpio_msp432::setMode(unsigned short, unsigned short)+0x15c>)
     bb4:	4a05      	ldr	r2, [pc, #20]	; (bcc <gpio_msp432::setMode(unsigned short, unsigned short)+0x160>)
     bb6:	601a      	str	r2, [r3, #0]
     bb8:	4b05      	ldr	r3, [pc, #20]	; (bd0 <gpio_msp432::setMode(unsigned short, unsigned short)+0x164>)
     bba:	22d4      	movs	r2, #212	; 0xd4
     bbc:	601a      	str	r2, [r3, #0]
     bbe:	f7ff fd79 	bl	6b4 <yahal_assert_func()>
     bc2:	bf00      	nop
     bc4:	20000004 	.word	0x20000004
     bc8:	20000708 	.word	0x20000708
     bcc:	00013dd0 	.word	0x00013dd0
     bd0:	2000071c 	.word	0x2000071c

00000bd4 <gpio_msp432::gpioMode(unsigned short, unsigned short)>:
     bd4:	b570      	push	{r4, r5, r6, lr}
     bd6:	4604      	mov	r4, r0
     bd8:	460d      	mov	r5, r1
     bda:	4616      	mov	r6, r2
     bdc:	2200      	movs	r2, #0
     bde:	f7ff ff19 	bl	a14 <gpio_msp432::setSEL(unsigned short, unsigned char)>
     be2:	4632      	mov	r2, r6
     be4:	4629      	mov	r1, r5
     be6:	4620      	mov	r0, r4
     be8:	f7ff ff40 	bl	a6c <gpio_msp432::setMode(unsigned short, unsigned short)>
     bec:	bd70      	pop	{r4, r5, r6, pc}

00000bee <std::function<void ()>::function(std::function<void ()> const&)>:
     bee:	b538      	push	{r3, r4, r5, lr}
     bf0:	4604      	mov	r4, r0
     bf2:	2300      	movs	r3, #0
     bf4:	6003      	str	r3, [r0, #0]
     bf6:	6043      	str	r3, [r0, #4]
     bf8:	6083      	str	r3, [r0, #8]
     bfa:	60c3      	str	r3, [r0, #12]
     bfc:	688b      	ldr	r3, [r1, #8]
     bfe:	b133      	cbz	r3, c0e <std::function<void ()>::function(std::function<void ()> const&)+0x20>
     c00:	460d      	mov	r5, r1
     c02:	2202      	movs	r2, #2
     c04:	4798      	blx	r3
     c06:	68eb      	ldr	r3, [r5, #12]
     c08:	60e3      	str	r3, [r4, #12]
     c0a:	68ab      	ldr	r3, [r5, #8]
     c0c:	60a3      	str	r3, [r4, #8]
     c0e:	4620      	mov	r0, r4
     c10:	bd38      	pop	{r3, r4, r5, pc}

00000c12 <std::function<void ()>::operator=(decltype(nullptr))>:
     c12:	b510      	push	{r4, lr}
     c14:	4604      	mov	r4, r0
     c16:	6883      	ldr	r3, [r0, #8]
     c18:	b12b      	cbz	r3, c26 <std::function<void ()>::operator=(decltype(nullptr))+0x14>
     c1a:	2203      	movs	r2, #3
     c1c:	4601      	mov	r1, r0
     c1e:	4798      	blx	r3
     c20:	2300      	movs	r3, #0
     c22:	60a3      	str	r3, [r4, #8]
     c24:	60e3      	str	r3, [r4, #12]
     c26:	4620      	mov	r0, r4
     c28:	bd10      	pop	{r4, pc}
	...

00000c2c <gpio_msp432::gpioDetachIrq(unsigned short)>:
     c2c:	b570      	push	{r4, r5, r6, lr}
     c2e:	0a0d      	lsrs	r5, r1, #8
     c30:	1e6b      	subs	r3, r5, #1
     c32:	b2db      	uxtb	r3, r3
     c34:	2b05      	cmp	r3, #5
     c36:	d810      	bhi.n	c5a <gpio_msp432::gpioDetachIrq(unsigned short)+0x2e>
     c38:	4604      	mov	r4, r0
     c3a:	b2ce      	uxtb	r6, r1
     c3c:	2e07      	cmp	r6, #7
     c3e:	d80c      	bhi.n	c5a <gpio_msp432::gpioDetachIrq(unsigned short)+0x2e>
     c40:	6803      	ldr	r3, [r0, #0]
     c42:	69db      	ldr	r3, [r3, #28]
     c44:	4798      	blx	r3
     c46:	3d01      	subs	r5, #1
     c48:	eb06 06c5 	add.w	r6, r6, r5, lsl #3
     c4c:	eb04 1006 	add.w	r0, r4, r6, lsl #4
     c50:	2100      	movs	r1, #0
     c52:	3004      	adds	r0, #4
     c54:	f7ff ffdd 	bl	c12 <std::function<void ()>::operator=(decltype(nullptr))>
     c58:	bd70      	pop	{r4, r5, r6, pc}
     c5a:	4b04      	ldr	r3, [pc, #16]	; (c6c <gpio_msp432::gpioDetachIrq(unsigned short)+0x40>)
     c5c:	4a04      	ldr	r2, [pc, #16]	; (c70 <gpio_msp432::gpioDetachIrq(unsigned short)+0x44>)
     c5e:	601a      	str	r2, [r3, #0]
     c60:	4b04      	ldr	r3, [pc, #16]	; (c74 <gpio_msp432::gpioDetachIrq(unsigned short)+0x48>)
     c62:	2288      	movs	r2, #136	; 0x88
     c64:	601a      	str	r2, [r3, #0]
     c66:	f7ff fd25 	bl	6b4 <yahal_assert_func()>
     c6a:	bf00      	nop
     c6c:	20000708 	.word	0x20000708
     c70:	00013dd0 	.word	0x00013dd0
     c74:	2000071c 	.word	0x2000071c

00000c78 <std::function<void ()>::operator()() const>:
     c78:	b508      	push	{r3, lr}
     c7a:	6883      	ldr	r3, [r0, #8]
     c7c:	b113      	cbz	r3, c84 <std::function<void ()>::operator()() const+0xc>
     c7e:	68c3      	ldr	r3, [r0, #12]
     c80:	4798      	blx	r3
     c82:	bd08      	pop	{r3, pc}
     c84:	f000 ff18 	bl	1ab8 <__yahal_bad_function_call>

00000c88 <gpio_msp432::handleIrq(unsigned char, unsigned char)>:
     c88:	b5f8      	push	{r3, r4, r5, r6, r7, lr}
     c8a:	4604      	mov	r4, r0
     c8c:	4616      	mov	r6, r2
     c8e:	1e4d      	subs	r5, r1, #1
     c90:	00ef      	lsls	r7, r5, #3
     c92:	eb02 00c5 	add.w	r0, r2, r5, lsl #3
     c96:	eb04 1000 	add.w	r0, r4, r0, lsl #4
     c9a:	3004      	adds	r0, #4
     c9c:	f7ff ffec 	bl	c78 <std::function<void ()>::operator()() const>
     ca0:	443c      	add	r4, r7
     ca2:	4434      	add	r4, r6
     ca4:	f894 33c4 	ldrb.w	r3, [r4, #964]	; 0x3c4
     ca8:	b17b      	cbz	r3, cca <gpio_msp432::handleIrq(unsigned char, unsigned char)+0x42>
     caa:	4908      	ldr	r1, [pc, #32]	; (ccc <gpio_msp432::handleIrq(unsigned char, unsigned char)+0x44>)
     cac:	f851 0025 	ldr.w	r0, [r1, r5, lsl #2]
     cb0:	00b3      	lsls	r3, r6, #2
     cb2:	f503 7440 	add.w	r4, r3, #768	; 0x300
     cb6:	f810 2026 	ldrb.w	r2, [r0, r6, lsl #2]
     cba:	b2d2      	uxtb	r2, r2
     cbc:	5502      	strb	r2, [r0, r4]
     cbe:	f851 2025 	ldr.w	r2, [r1, r5, lsl #2]
     cc2:	f503 7360 	add.w	r3, r3, #896	; 0x380
     cc6:	2100      	movs	r1, #0
     cc8:	54d1      	strb	r1, [r2, r3]
     cca:	bdf8      	pop	{r3, r4, r5, r6, r7, pc}
     ccc:	20000004 	.word	0x20000004

00000cd0 <PORT1_IRQHandler>:
     cd0:	b508      	push	{r3, lr}
     cd2:	4b06      	ldr	r3, [pc, #24]	; (cec <PORT1_IRQHandler+0x1c>)
     cd4:	89db      	ldrh	r3, [r3, #14]
     cd6:	f3c3 034e 	ubfx	r3, r3, #1, #15
     cda:	b903      	cbnz	r3, cde <PORT1_IRQHandler+0xe>
     cdc:	bd08      	pop	{r3, pc}
     cde:	1e5a      	subs	r2, r3, #1
     ce0:	b2d2      	uxtb	r2, r2
     ce2:	2101      	movs	r1, #1
     ce4:	4802      	ldr	r0, [pc, #8]	; (cf0 <PORT1_IRQHandler+0x20>)
     ce6:	f7ff ffcf 	bl	c88 <gpio_msp432::handleIrq(unsigned char, unsigned char)>
     cea:	e7f7      	b.n	cdc <PORT1_IRQHandler+0xc>
     cec:	40004c00 	.word	0x40004c00
     cf0:	20000730 	.word	0x20000730

00000cf4 <PORT2_IRQHandler>:
     cf4:	b508      	push	{r3, lr}
     cf6:	4b06      	ldr	r3, [pc, #24]	; (d10 <PORT2_IRQHandler+0x1c>)
     cf8:	8bdb      	ldrh	r3, [r3, #30]
     cfa:	f3c3 034e 	ubfx	r3, r3, #1, #15
     cfe:	b903      	cbnz	r3, d02 <PORT2_IRQHandler+0xe>
     d00:	bd08      	pop	{r3, pc}
     d02:	1e5a      	subs	r2, r3, #1
     d04:	b2d2      	uxtb	r2, r2
     d06:	2102      	movs	r1, #2
     d08:	4802      	ldr	r0, [pc, #8]	; (d14 <PORT2_IRQHandler+0x20>)
     d0a:	f7ff ffbd 	bl	c88 <gpio_msp432::handleIrq(unsigned char, unsigned char)>
     d0e:	e7f7      	b.n	d00 <PORT2_IRQHandler+0xc>
     d10:	40004c00 	.word	0x40004c00
     d14:	20000730 	.word	0x20000730

00000d18 <PORT3_IRQHandler>:
     d18:	b508      	push	{r3, lr}
     d1a:	4b06      	ldr	r3, [pc, #24]	; (d34 <PORT3_IRQHandler+0x1c>)
     d1c:	8ddb      	ldrh	r3, [r3, #46]	; 0x2e
     d1e:	f3c3 034e 	ubfx	r3, r3, #1, #15
     d22:	b903      	cbnz	r3, d26 <PORT3_IRQHandler+0xe>
     d24:	bd08      	pop	{r3, pc}
     d26:	1e5a      	subs	r2, r3, #1
     d28:	b2d2      	uxtb	r2, r2
     d2a:	2103      	movs	r1, #3
     d2c:	4802      	ldr	r0, [pc, #8]	; (d38 <PORT3_IRQHandler+0x20>)
     d2e:	f7ff ffab 	bl	c88 <gpio_msp432::handleIrq(unsigned char, unsigned char)>
     d32:	e7f7      	b.n	d24 <PORT3_IRQHandler+0xc>
     d34:	40004c00 	.word	0x40004c00
     d38:	20000730 	.word	0x20000730

00000d3c <PORT4_IRQHandler>:
     d3c:	b508      	push	{r3, lr}
     d3e:	4b06      	ldr	r3, [pc, #24]	; (d58 <PORT4_IRQHandler+0x1c>)
     d40:	8fdb      	ldrh	r3, [r3, #62]	; 0x3e
     d42:	f3c3 034e 	ubfx	r3, r3, #1, #15
     d46:	b903      	cbnz	r3, d4a <PORT4_IRQHandler+0xe>
     d48:	bd08      	pop	{r3, pc}
     d4a:	1e5a      	subs	r2, r3, #1
     d4c:	b2d2      	uxtb	r2, r2
     d4e:	2104      	movs	r1, #4
     d50:	4802      	ldr	r0, [pc, #8]	; (d5c <PORT4_IRQHandler+0x20>)
     d52:	f7ff ff99 	bl	c88 <gpio_msp432::handleIrq(unsigned char, unsigned char)>
     d56:	e7f7      	b.n	d48 <PORT4_IRQHandler+0xc>
     d58:	40004c00 	.word	0x40004c00
     d5c:	20000730 	.word	0x20000730

00000d60 <PORT5_IRQHandler>:
     d60:	b508      	push	{r3, lr}
     d62:	4b07      	ldr	r3, [pc, #28]	; (d80 <PORT5_IRQHandler+0x20>)
     d64:	f8b3 304e 	ldrh.w	r3, [r3, #78]	; 0x4e
     d68:	f3c3 034e 	ubfx	r3, r3, #1, #15
     d6c:	b903      	cbnz	r3, d70 <PORT5_IRQHandler+0x10>
     d6e:	bd08      	pop	{r3, pc}
     d70:	1e5a      	subs	r2, r3, #1
     d72:	b2d2      	uxtb	r2, r2
     d74:	2105      	movs	r1, #5
     d76:	4803      	ldr	r0, [pc, #12]	; (d84 <PORT5_IRQHandler+0x24>)
     d78:	f7ff ff86 	bl	c88 <gpio_msp432::handleIrq(unsigned char, unsigned char)>
     d7c:	e7f7      	b.n	d6e <PORT5_IRQHandler+0xe>
     d7e:	bf00      	nop
     d80:	40004c00 	.word	0x40004c00
     d84:	20000730 	.word	0x20000730

00000d88 <PORT6_IRQHandler>:
     d88:	b508      	push	{r3, lr}
     d8a:	4b07      	ldr	r3, [pc, #28]	; (da8 <PORT6_IRQHandler+0x20>)
     d8c:	f8b3 305e 	ldrh.w	r3, [r3, #94]	; 0x5e
     d90:	f3c3 034e 	ubfx	r3, r3, #1, #15
     d94:	b903      	cbnz	r3, d98 <PORT6_IRQHandler+0x10>
     d96:	bd08      	pop	{r3, pc}
     d98:	1e5a      	subs	r2, r3, #1
     d9a:	b2d2      	uxtb	r2, r2
     d9c:	2106      	movs	r1, #6
     d9e:	4803      	ldr	r0, [pc, #12]	; (dac <PORT6_IRQHandler+0x24>)
     da0:	f7ff ff72 	bl	c88 <gpio_msp432::handleIrq(unsigned char, unsigned char)>
     da4:	e7f7      	b.n	d96 <PORT6_IRQHandler+0xe>
     da6:	bf00      	nop
     da8:	40004c00 	.word	0x40004c00
     dac:	20000730 	.word	0x20000730

00000db0 <std::enable_if<std::__and_<std::__not_<std::__is_tuple_like<std::_Any_data> >, std::is_move_constructible<std::_Any_data>, std::is_move_assignable<std::_Any_data> >::value, void>::type std::swap<std::_Any_data>(std::_Any_data&, std::_Any_data&)>:
     db0:	b082      	sub	sp, #8
     db2:	4602      	mov	r2, r0
     db4:	460b      	mov	r3, r1
     db6:	46ec      	mov	ip, sp
     db8:	e9d0 0100 	ldrd	r0, r1, [r0]
     dbc:	e88c 0003 	stmia.w	ip, {r0, r1}
     dc0:	e893 0003 	ldmia.w	r3, {r0, r1}
     dc4:	e882 0003 	stmia.w	r2, {r0, r1}
     dc8:	e89c 0003 	ldmia.w	ip, {r0, r1}
     dcc:	e883 0003 	stmia.w	r3, {r0, r1}
     dd0:	b002      	add	sp, #8
     dd2:	4770      	bx	lr

00000dd4 <std::function<void ()>::swap(std::function<void ()>&)>:
     dd4:	b538      	push	{r3, r4, r5, lr}
     dd6:	4605      	mov	r5, r0
     dd8:	460c      	mov	r4, r1
     dda:	f7ff ffe9 	bl	db0 <std::enable_if<std::__and_<std::__not_<std::__is_tuple_like<std::_Any_data> >, std::is_move_constructible<std::_Any_data>, std::is_move_assignable<std::_Any_data> >::value, void>::type std::swap<std::_Any_data>(std::_Any_data&, std::_Any_data&)>
     dde:	68ab      	ldr	r3, [r5, #8]
     de0:	68a2      	ldr	r2, [r4, #8]
     de2:	60aa      	str	r2, [r5, #8]
     de4:	60a3      	str	r3, [r4, #8]
     de6:	68eb      	ldr	r3, [r5, #12]
     de8:	68e2      	ldr	r2, [r4, #12]
     dea:	60ea      	str	r2, [r5, #12]
     dec:	60e3      	str	r3, [r4, #12]
     dee:	bd38      	pop	{r3, r4, r5, pc}

00000df0 <std::function<void ()>::operator=(std::function<void ()> const&)>:
     df0:	b510      	push	{r4, lr}
     df2:	b084      	sub	sp, #16
     df4:	4604      	mov	r4, r0
     df6:	4668      	mov	r0, sp
     df8:	f7ff fef9 	bl	bee <std::function<void ()>::function(std::function<void ()> const&)>
     dfc:	4621      	mov	r1, r4
     dfe:	4668      	mov	r0, sp
     e00:	f7ff ffe8 	bl	dd4 <std::function<void ()>::swap(std::function<void ()>&)>
     e04:	4668      	mov	r0, sp
     e06:	f7ff fd9b 	bl	940 <std::_Function_base::~_Function_base()>
     e0a:	4620      	mov	r0, r4
     e0c:	b004      	add	sp, #16
     e0e:	bd10      	pop	{r4, pc}

00000e10 <gpio_msp432::gpioAttachIrq(unsigned short, unsigned short, std::function<void ()>)>:
     e10:	b5f8      	push	{r3, r4, r5, r6, r7, lr}
     e12:	460f      	mov	r7, r1
     e14:	4619      	mov	r1, r3
     e16:	0a3d      	lsrs	r5, r7, #8
     e18:	1e6b      	subs	r3, r5, #1
     e1a:	b2db      	uxtb	r3, r3
     e1c:	2b05      	cmp	r3, #5
     e1e:	d811      	bhi.n	e44 <gpio_msp432::gpioAttachIrq(unsigned short, unsigned short, std::function<void ()>)+0x34>
     e20:	4606      	mov	r6, r0
     e22:	b2f8      	uxtb	r0, r7
     e24:	2807      	cmp	r0, #7
     e26:	d80d      	bhi.n	e44 <gpio_msp432::gpioAttachIrq(unsigned short, unsigned short, std::function<void ()>)+0x34>
     e28:	2a02      	cmp	r2, #2
     e2a:	d02c      	beq.n	e86 <gpio_msp432::gpioAttachIrq(unsigned short, unsigned short, std::function<void ()>)+0x76>
     e2c:	2a03      	cmp	r2, #3
     e2e:	d03c      	beq.n	eaa <gpio_msp432::gpioAttachIrq(unsigned short, unsigned short, std::function<void ()>)+0x9a>
     e30:	2a01      	cmp	r2, #1
     e32:	d00f      	beq.n	e54 <gpio_msp432::gpioAttachIrq(unsigned short, unsigned short, std::function<void ()>)+0x44>
     e34:	4b30      	ldr	r3, [pc, #192]	; (ef8 <gpio_msp432::gpioAttachIrq(unsigned short, unsigned short, std::function<void ()>)+0xe8>)
     e36:	4a31      	ldr	r2, [pc, #196]	; (efc <gpio_msp432::gpioAttachIrq(unsigned short, unsigned short, std::function<void ()>)+0xec>)
     e38:	601a      	str	r2, [r3, #0]
     e3a:	4b31      	ldr	r3, [pc, #196]	; (f00 <gpio_msp432::gpioAttachIrq(unsigned short, unsigned short, std::function<void ()>)+0xf0>)
     e3c:	2279      	movs	r2, #121	; 0x79
     e3e:	601a      	str	r2, [r3, #0]
     e40:	f7ff fc38 	bl	6b4 <yahal_assert_func()>
     e44:	4b2c      	ldr	r3, [pc, #176]	; (ef8 <gpio_msp432::gpioAttachIrq(unsigned short, unsigned short, std::function<void ()>)+0xe8>)
     e46:	4a2d      	ldr	r2, [pc, #180]	; (efc <gpio_msp432::gpioAttachIrq(unsigned short, unsigned short, std::function<void ()>)+0xec>)
     e48:	601a      	str	r2, [r3, #0]
     e4a:	4b2d      	ldr	r3, [pc, #180]	; (f00 <gpio_msp432::gpioAttachIrq(unsigned short, unsigned short, std::function<void ()>)+0xf0>)
     e4c:	2267      	movs	r2, #103	; 0x67
     e4e:	601a      	str	r2, [r3, #0]
     e50:	f7ff fc30 	bl	6b4 <yahal_assert_func()>
     e54:	1e6b      	subs	r3, r5, #1
     e56:	4a2b      	ldr	r2, [pc, #172]	; (f04 <gpio_msp432::gpioAttachIrq(unsigned short, unsigned short, std::function<void ()>)+0xf4>)
     e58:	f852 c023 	ldr.w	ip, [r2, r3, lsl #2]
     e5c:	0082      	lsls	r2, r0, #2
     e5e:	f502 7240 	add.w	r2, r2, #768	; 0x300
     e62:	2400      	movs	r4, #0
     e64:	f80c 4002 	strb.w	r4, [ip, r2]
     e68:	eb06 03c3 	add.w	r3, r6, r3, lsl #3
     e6c:	4403      	add	r3, r0
     e6e:	f883 43c4 	strb.w	r4, [r3, #964]	; 0x3c4
     e72:	3d01      	subs	r5, #1
     e74:	eb00 00c5 	add.w	r0, r0, r5, lsl #3
     e78:	eb06 1000 	add.w	r0, r6, r0, lsl #4
     e7c:	3004      	adds	r0, #4
     e7e:	f7ff ffb7 	bl	df0 <std::function<void ()>::operator=(std::function<void ()> const&)>
     e82:	2300      	movs	r3, #0
     e84:	e02f      	b.n	ee6 <gpio_msp432::gpioAttachIrq(unsigned short, unsigned short, std::function<void ()>)+0xd6>
     e86:	1e6b      	subs	r3, r5, #1
     e88:	4a1e      	ldr	r2, [pc, #120]	; (f04 <gpio_msp432::gpioAttachIrq(unsigned short, unsigned short, std::function<void ()>)+0xf4>)
     e8a:	f852 4023 	ldr.w	r4, [r2, r3, lsl #2]
     e8e:	0082      	lsls	r2, r0, #2
     e90:	f502 7240 	add.w	r2, r2, #768	; 0x300
     e94:	f04f 0c01 	mov.w	ip, #1
     e98:	f804 c002 	strb.w	ip, [r4, r2]
     e9c:	eb06 03c3 	add.w	r3, r6, r3, lsl #3
     ea0:	4403      	add	r3, r0
     ea2:	2200      	movs	r2, #0
     ea4:	f883 23c4 	strb.w	r2, [r3, #964]	; 0x3c4
     ea8:	e7e3      	b.n	e72 <gpio_msp432::gpioAttachIrq(unsigned short, unsigned short, std::function<void ()>)+0x62>
     eaa:	1e6b      	subs	r3, r5, #1
     eac:	4a15      	ldr	r2, [pc, #84]	; (f04 <gpio_msp432::gpioAttachIrq(unsigned short, unsigned short, std::function<void ()>)+0xf4>)
     eae:	f852 c023 	ldr.w	ip, [r2, r3, lsl #2]
     eb2:	0082      	lsls	r2, r0, #2
     eb4:	f502 7240 	add.w	r2, r2, #768	; 0x300
     eb8:	f81c 4020 	ldrb.w	r4, [ip, r0, lsl #2]
     ebc:	b2e4      	uxtb	r4, r4
     ebe:	f80c 4002 	strb.w	r4, [ip, r2]
     ec2:	eb06 03c3 	add.w	r3, r6, r3, lsl #3
     ec6:	4403      	add	r3, r0
     ec8:	2201      	movs	r2, #1
     eca:	f883 23c4 	strb.w	r2, [r3, #964]	; 0x3c4
     ece:	e7d0      	b.n	e72 <gpio_msp432::gpioAttachIrq(unsigned short, unsigned short, std::function<void ()>)+0x62>
     ed0:	4a0c      	ldr	r2, [pc, #48]	; (f04 <gpio_msp432::gpioAttachIrq(unsigned short, unsigned short, std::function<void ()>)+0xf4>)
     ed2:	f852 4025 	ldr.w	r4, [r2, r5, lsl #2]
     ed6:	009a      	lsls	r2, r3, #2
     ed8:	f502 7260 	add.w	r2, r2, #896	; 0x380
     edc:	f04f 0c00 	mov.w	ip, #0
     ee0:	f804 c002 	strb.w	ip, [r4, r2]
     ee4:	3301      	adds	r3, #1
     ee6:	2b07      	cmp	r3, #7
     ee8:	d9f2      	bls.n	ed0 <gpio_msp432::gpioAttachIrq(unsigned short, unsigned short, std::function<void ()>)+0xc0>
     eea:	6833      	ldr	r3, [r6, #0]
     eec:	699b      	ldr	r3, [r3, #24]
     eee:	4639      	mov	r1, r7
     ef0:	4630      	mov	r0, r6
     ef2:	4798      	blx	r3
     ef4:	bdf8      	pop	{r3, r4, r5, r6, r7, pc}
     ef6:	bf00      	nop
     ef8:	20000708 	.word	0x20000708
     efc:	00013dd0 	.word	0x00013dd0
     f00:	2000071c 	.word	0x2000071c
     f04:	20000004 	.word	0x20000004

00000f08 <_GLOBAL__sub_I_port_base>:
     f08:	b508      	push	{r3, lr}
     f0a:	f64f 71ff 	movw	r1, #65535	; 0xffff
     f0e:	2001      	movs	r0, #1
     f10:	f7ff fd68 	bl	9e4 <__static_initialization_and_destruction_0(int, int)>
     f14:	bd08      	pop	{r3, pc}

00000f16 <AES256_IRQHandler>:
     f16:	e7fe      	b.n	f16 <AES256_IRQHandler>

00000f18 <Reset_Handler>:
     f18:	b508      	push	{r3, lr}
     f1a:	f000 fbc1 	bl	16a0 <SystemInit>
     f1e:	4a12      	ldr	r2, [pc, #72]	; (f68 <Reset_Handler+0x50>)
     f20:	e00a      	b.n	f38 <Reset_Handler+0x20>
     f22:	6810      	ldr	r0, [r2, #0]
     f24:	6851      	ldr	r1, [r2, #4]
     f26:	f850 0023 	ldr.w	r0, [r0, r3, lsl #2]
     f2a:	f841 0023 	str.w	r0, [r1, r3, lsl #2]
     f2e:	3301      	adds	r3, #1
     f30:	6891      	ldr	r1, [r2, #8]
     f32:	428b      	cmp	r3, r1
     f34:	d3f5      	bcc.n	f22 <Reset_Handler+0xa>
     f36:	320c      	adds	r2, #12
     f38:	4b0c      	ldr	r3, [pc, #48]	; (f6c <Reset_Handler+0x54>)
     f3a:	429a      	cmp	r2, r3
     f3c:	d201      	bcs.n	f42 <Reset_Handler+0x2a>
     f3e:	2300      	movs	r3, #0
     f40:	e7f6      	b.n	f30 <Reset_Handler+0x18>
     f42:	4a0b      	ldr	r2, [pc, #44]	; (f70 <Reset_Handler+0x58>)
     f44:	e008      	b.n	f58 <Reset_Handler+0x40>
     f46:	6811      	ldr	r1, [r2, #0]
     f48:	2000      	movs	r0, #0
     f4a:	f841 0023 	str.w	r0, [r1, r3, lsl #2]
     f4e:	3301      	adds	r3, #1
     f50:	6851      	ldr	r1, [r2, #4]
     f52:	428b      	cmp	r3, r1
     f54:	d3f7      	bcc.n	f46 <Reset_Handler+0x2e>
     f56:	3208      	adds	r2, #8
     f58:	4b06      	ldr	r3, [pc, #24]	; (f74 <Reset_Handler+0x5c>)
     f5a:	429a      	cmp	r2, r3
     f5c:	d201      	bcs.n	f62 <Reset_Handler+0x4a>
     f5e:	2300      	movs	r3, #0
     f60:	e7f6      	b.n	f50 <Reset_Handler+0x38>
     f62:	f011 fccb 	bl	128fc <_mainCRTStartup>
     f66:	bf00      	nop
     f68:	000156d0 	.word	0x000156d0
     f6c:	000156dc 	.word	0x000156dc
     f70:	000156e0 	.word	0x000156e0
     f74:	000156e8 	.word	0x000156e8

00000f78 <__NVIC_EnableIRQ>:
     f78:	2800      	cmp	r0, #0
     f7a:	db07      	blt.n	f8c <__NVIC_EnableIRQ+0x14>
     f7c:	f000 021f 	and.w	r2, r0, #31
     f80:	0940      	lsrs	r0, r0, #5
     f82:	2301      	movs	r3, #1
     f84:	4093      	lsls	r3, r2
     f86:	4a02      	ldr	r2, [pc, #8]	; (f90 <__NVIC_EnableIRQ+0x18>)
     f88:	f842 3020 	str.w	r3, [r2, r0, lsl #2]
     f8c:	4770      	bx	lr
     f8e:	bf00      	nop
     f90:	e000e100 	.word	0xe000e100

00000f94 <__NVIC_DisableIRQ>:
     f94:	2800      	cmp	r0, #0
     f96:	db0c      	blt.n	fb2 <__NVIC_DisableIRQ+0x1e>
     f98:	f000 021f 	and.w	r2, r0, #31
     f9c:	0940      	lsrs	r0, r0, #5
     f9e:	2301      	movs	r3, #1
     fa0:	4093      	lsls	r3, r2
     fa2:	3020      	adds	r0, #32
     fa4:	4a03      	ldr	r2, [pc, #12]	; (fb4 <__NVIC_DisableIRQ+0x20>)
     fa6:	f842 3020 	str.w	r3, [r2, r0, lsl #2]
     faa:	f3bf 8f4f 	dsb	sy
     fae:	f3bf 8f6f 	isb	sy
     fb2:	4770      	bx	lr
     fb4:	e000e100 	.word	0xe000e100

00000fb8 <yahal_assert_func()>:
     fb8:	e7fe      	b.n	fb8 <yahal_assert_func()>

00000fba <uart_msp432::uartMode(unsigned short)>:
     fba:	8201      	strh	r1, [r0, #16]
     fbc:	6882      	ldr	r2, [r0, #8]
     fbe:	8813      	ldrh	r3, [r2, #0]
     fc0:	b29b      	uxth	r3, r3
     fc2:	f043 0301 	orr.w	r3, r3, #1
     fc6:	8013      	strh	r3, [r2, #0]
     fc8:	f011 0f01 	tst.w	r1, #1
     fcc:	d005      	beq.n	fda <uart_msp432::uartMode(unsigned short)+0x20>
     fce:	6882      	ldr	r2, [r0, #8]
     fd0:	8813      	ldrh	r3, [r2, #0]
     fd2:	b29b      	uxth	r3, r3
     fd4:	f443 5380 	orr.w	r3, r3, #4096	; 0x1000
     fd8:	8013      	strh	r3, [r2, #0]
     fda:	f011 0f02 	tst.w	r1, #2
     fde:	d006      	beq.n	fee <uart_msp432::uartMode(unsigned short)+0x34>
     fe0:	6882      	ldr	r2, [r0, #8]
     fe2:	8813      	ldrh	r3, [r2, #0]
     fe4:	b29b      	uxth	r3, r3
     fe6:	f423 5380 	bic.w	r3, r3, #4096	; 0x1000
     fea:	b29b      	uxth	r3, r3
     fec:	8013      	strh	r3, [r2, #0]
     fee:	f011 0f04 	tst.w	r1, #4
     ff2:	d004      	beq.n	ffe <uart_msp432::uartMode(unsigned short)+0x44>
     ff4:	6882      	ldr	r2, [r0, #8]
     ff6:	8813      	ldrh	r3, [r2, #0]
     ff8:	f3c3 030e 	ubfx	r3, r3, #0, #15
     ffc:	8013      	strh	r3, [r2, #0]
     ffe:	f011 0f08 	tst.w	r1, #8
    1002:	d00d      	beq.n	1020 <uart_msp432::uartMode(unsigned short)+0x66>
    1004:	6882      	ldr	r2, [r0, #8]
    1006:	8813      	ldrh	r3, [r2, #0]
    1008:	ea6f 4343 	mvn.w	r3, r3, lsl #17
    100c:	ea6f 4353 	mvn.w	r3, r3, lsr #17
    1010:	b29b      	uxth	r3, r3
    1012:	8013      	strh	r3, [r2, #0]
    1014:	6882      	ldr	r2, [r0, #8]
    1016:	8813      	ldrh	r3, [r2, #0]
    1018:	b29b      	uxth	r3, r3
    101a:	f443 4380 	orr.w	r3, r3, #16384	; 0x4000
    101e:	8013      	strh	r3, [r2, #0]
    1020:	f011 0f10 	tst.w	r1, #16
    1024:	d00e      	beq.n	1044 <uart_msp432::uartMode(unsigned short)+0x8a>
    1026:	6882      	ldr	r2, [r0, #8]
    1028:	8813      	ldrh	r3, [r2, #0]
    102a:	ea6f 4343 	mvn.w	r3, r3, lsl #17
    102e:	ea6f 4353 	mvn.w	r3, r3, lsr #17
    1032:	b29b      	uxth	r3, r3
    1034:	8013      	strh	r3, [r2, #0]
    1036:	6882      	ldr	r2, [r0, #8]
    1038:	8813      	ldrh	r3, [r2, #0]
    103a:	b29b      	uxth	r3, r3
    103c:	f423 4380 	bic.w	r3, r3, #16384	; 0x4000
    1040:	b29b      	uxth	r3, r3
    1042:	8013      	strh	r3, [r2, #0]
    1044:	f011 0f20 	tst.w	r1, #32
    1048:	d006      	beq.n	1058 <uart_msp432::uartMode(unsigned short)+0x9e>
    104a:	6882      	ldr	r2, [r0, #8]
    104c:	8813      	ldrh	r3, [r2, #0]
    104e:	b29b      	uxth	r3, r3
    1050:	f423 6300 	bic.w	r3, r3, #2048	; 0x800
    1054:	b29b      	uxth	r3, r3
    1056:	8013      	strh	r3, [r2, #0]
    1058:	f011 0f40 	tst.w	r1, #64	; 0x40
    105c:	d005      	beq.n	106a <uart_msp432::uartMode(unsigned short)+0xb0>
    105e:	6882      	ldr	r2, [r0, #8]
    1060:	8813      	ldrh	r3, [r2, #0]
    1062:	b29b      	uxth	r3, r3
    1064:	f443 6300 	orr.w	r3, r3, #2048	; 0x800
    1068:	8013      	strh	r3, [r2, #0]
    106a:	6882      	ldr	r2, [r0, #8]
    106c:	8813      	ldrh	r3, [r2, #0]
    106e:	b29b      	uxth	r3, r3
    1070:	f023 0301 	bic.w	r3, r3, #1
    1074:	b29b      	uxth	r3, r3
    1076:	8013      	strh	r3, [r2, #0]
    1078:	4770      	bx	lr
	...

0000107c <uart_msp432::setBaudrate(unsigned long)>:
    107c:	60c1      	str	r1, [r0, #12]
    107e:	4b04      	ldr	r3, [pc, #16]	; (1090 <uart_msp432::setBaudrate(unsigned long)+0x14>)
    1080:	681b      	ldr	r3, [r3, #0]
    1082:	fbb3 f1f1 	udiv	r1, r3, r1
    1086:	6883      	ldr	r3, [r0, #8]
    1088:	b289      	uxth	r1, r1
    108a:	80d9      	strh	r1, [r3, #6]
    108c:	4770      	bx	lr
    108e:	bf00      	nop
    1090:	2000002c 	.word	0x2000002c

00001094 <uart_msp432::uartEnableIrq()>:
    1094:	6883      	ldr	r3, [r0, #8]
    1096:	2201      	movs	r2, #1
    1098:	835a      	strh	r2, [r3, #26]
    109a:	4770      	bx	lr

0000109c <uart_msp432::uartDisableIrq()>:
    109c:	6883      	ldr	r3, [r0, #8]
    109e:	2200      	movs	r2, #0
    10a0:	835a      	strh	r2, [r3, #26]
    10a2:	4770      	bx	lr

000010a4 <uart_msp432::~uart_msp432()>:
    10a4:	b538      	push	{r3, r4, r5, lr}
    10a6:	4604      	mov	r4, r0
    10a8:	4b11      	ldr	r3, [pc, #68]	; (10f0 <uart_msp432::~uart_msp432()+0x4c>)
    10aa:	6003      	str	r3, [r0, #0]
    10ac:	7903      	ldrb	r3, [r0, #4]
    10ae:	b1db      	cbz	r3, 10e8 <uart_msp432::~uart_msp432()+0x44>
    10b0:	68a3      	ldr	r3, [r4, #8]
    10b2:	895a      	ldrh	r2, [r3, #10]
    10b4:	f012 0f01 	tst.w	r2, #1
    10b8:	d1fa      	bne.n	10b0 <uart_msp432::~uart_msp432()+0xc>
    10ba:	2201      	movs	r2, #1
    10bc:	801a      	strh	r2, [r3, #0]
    10be:	7ca1      	ldrb	r1, [r4, #18]
    10c0:	7ce3      	ldrb	r3, [r4, #19]
    10c2:	4d0c      	ldr	r5, [pc, #48]	; (10f4 <uart_msp432::~uart_msp432()+0x50>)
    10c4:	2200      	movs	r2, #0
    10c6:	ea43 2101 	orr.w	r1, r3, r1, lsl #8
    10ca:	4628      	mov	r0, r5
    10cc:	f7ff fca2 	bl	a14 <gpio_msp432::setSEL(unsigned short, unsigned char)>
    10d0:	7ca1      	ldrb	r1, [r4, #18]
    10d2:	7d23      	ldrb	r3, [r4, #20]
    10d4:	2200      	movs	r2, #0
    10d6:	ea43 2101 	orr.w	r1, r3, r1, lsl #8
    10da:	4628      	mov	r0, r5
    10dc:	f7ff fc9a 	bl	a14 <gpio_msp432::setSEL(unsigned short, unsigned char)>
    10e0:	4b05      	ldr	r3, [pc, #20]	; (10f8 <uart_msp432::~uart_msp432()+0x54>)
    10e2:	6023      	str	r3, [r4, #0]
    10e4:	4620      	mov	r0, r4
    10e6:	bd38      	pop	{r3, r4, r5, pc}
    10e8:	4b03      	ldr	r3, [pc, #12]	; (10f8 <uart_msp432::~uart_msp432()+0x54>)
    10ea:	6003      	str	r3, [r0, #0]
    10ec:	e7fa      	b.n	10e4 <uart_msp432::~uart_msp432()+0x40>
    10ee:	bf00      	nop
    10f0:	00013f14 	.word	0x00013f14
    10f4:	20000730 	.word	0x20000730
    10f8:	00013ee0 	.word	0x00013ee0

000010fc <uart_msp432::~uart_msp432()>:
    10fc:	b510      	push	{r4, lr}
    10fe:	4604      	mov	r4, r0
    1100:	f7ff ffd0 	bl	10a4 <uart_msp432::~uart_msp432()>
    1104:	2118      	movs	r1, #24
    1106:	4620      	mov	r0, r4
    1108:	f000 ffdc 	bl	20c4 <operator delete(void*, unsigned int)>
    110c:	4620      	mov	r0, r4
    110e:	bd10      	pop	{r4, pc}

00001110 <__static_initialization_and_destruction_0(int, int)>:
    1110:	2801      	cmp	r0, #1
    1112:	d000      	beq.n	1116 <__static_initialization_and_destruction_0(int, int)+0x6>
    1114:	4770      	bx	lr
    1116:	b508      	push	{r3, lr}
    1118:	f64f 73ff 	movw	r3, #65535	; 0xffff
    111c:	4299      	cmp	r1, r3
    111e:	d000      	beq.n	1122 <__static_initialization_and_destruction_0(int, int)+0x12>
    1120:	bd08      	pop	{r3, pc}
    1122:	4b0d      	ldr	r3, [pc, #52]	; (1158 <__static_initialization_and_destruction_0(int, int)+0x48>)
    1124:	681a      	ldr	r2, [r3, #0]
    1126:	4b0d      	ldr	r3, [pc, #52]	; (115c <__static_initialization_and_destruction_0(int, int)+0x4c>)
    1128:	601a      	str	r2, [r3, #0]
    112a:	4b0d      	ldr	r3, [pc, #52]	; (1160 <__static_initialization_and_destruction_0(int, int)+0x50>)
    112c:	2000      	movs	r0, #0
    112e:	6018      	str	r0, [r3, #0]
    1130:	6058      	str	r0, [r3, #4]
    1132:	6098      	str	r0, [r3, #8]
    1134:	60d8      	str	r0, [r3, #12]
    1136:	6118      	str	r0, [r3, #16]
    1138:	6158      	str	r0, [r3, #20]
    113a:	6198      	str	r0, [r3, #24]
    113c:	61d8      	str	r0, [r3, #28]
    113e:	6218      	str	r0, [r3, #32]
    1140:	6258      	str	r0, [r3, #36]	; 0x24
    1142:	6298      	str	r0, [r3, #40]	; 0x28
    1144:	62d8      	str	r0, [r3, #44]	; 0x2c
    1146:	6318      	str	r0, [r3, #48]	; 0x30
    1148:	6358      	str	r0, [r3, #52]	; 0x34
    114a:	6398      	str	r0, [r3, #56]	; 0x38
    114c:	63d8      	str	r0, [r3, #60]	; 0x3c
    114e:	4a05      	ldr	r2, [pc, #20]	; (1164 <__static_initialization_and_destruction_0(int, int)+0x54>)
    1150:	4905      	ldr	r1, [pc, #20]	; (1168 <__static_initialization_and_destruction_0(int, int)+0x58>)
    1152:	f000 ffb1 	bl	20b8 <__aeabi_atexit>
    1156:	e7e3      	b.n	1120 <__static_initialization_and_destruction_0(int, int)+0x10>
    1158:	20000030 	.word	0x20000030
    115c:	20000700 	.word	0x20000700
    1160:	20000b4c 	.word	0x20000b4c
    1164:	20000000 	.word	0x20000000
    1168:	0000116d 	.word	0x0000116d

0000116c <__tcf_0>:
    116c:	b510      	push	{r4, lr}
    116e:	4c05      	ldr	r4, [pc, #20]	; (1184 <__tcf_0+0x18>)
    1170:	e003      	b.n	117a <__tcf_0+0xe>
    1172:	3c10      	subs	r4, #16
    1174:	4620      	mov	r0, r4
    1176:	f7ff fbe3 	bl	940 <std::_Function_base::~_Function_base()>
    117a:	4b03      	ldr	r3, [pc, #12]	; (1188 <__tcf_0+0x1c>)
    117c:	429c      	cmp	r4, r3
    117e:	d1f8      	bne.n	1172 <__tcf_0+0x6>
    1180:	bd10      	pop	{r4, pc}
    1182:	bf00      	nop
    1184:	20000b8c 	.word	0x20000b8c
    1188:	20000b4c 	.word	0x20000b4c

0000118c <uart_msp432::uart_msp432(EUSCI_A_Type*, unsigned long, unsigned short)>:
    118c:	b510      	push	{r4, lr}
    118e:	4604      	mov	r4, r0
    1190:	4807      	ldr	r0, [pc, #28]	; (11b0 <uart_msp432::uart_msp432(EUSCI_A_Type*, unsigned long, unsigned short)+0x24>)
    1192:	6020      	str	r0, [r4, #0]
    1194:	4807      	ldr	r0, [pc, #28]	; (11b4 <uart_msp432::uart_msp432(EUSCI_A_Type*, unsigned long, unsigned short)+0x28>)
    1196:	6020      	str	r0, [r4, #0]
    1198:	2000      	movs	r0, #0
    119a:	7120      	strb	r0, [r4, #4]
    119c:	60a1      	str	r1, [r4, #8]
    119e:	60e2      	str	r2, [r4, #12]
    11a0:	8223      	strh	r3, [r4, #16]
    11a2:	74a0      	strb	r0, [r4, #18]
    11a4:	74e0      	strb	r0, [r4, #19]
    11a6:	7520      	strb	r0, [r4, #20]
    11a8:	f000 fdc3 	bl	1d32 <irq_dispatcher::link_in()>
    11ac:	4620      	mov	r0, r4
    11ae:	bd10      	pop	{r4, pc}
    11b0:	00013ee0 	.word	0x00013ee0
    11b4:	00013f14 	.word	0x00013f14

000011b8 <uart_msp432::init()>:
    11b8:	b538      	push	{r3, r4, r5, lr}
    11ba:	4604      	mov	r4, r0
    11bc:	6883      	ldr	r3, [r0, #8]
    11be:	4a2f      	ldr	r2, [pc, #188]	; (127c <uart_msp432::init()+0xc4>)
    11c0:	4293      	cmp	r3, r2
    11c2:	d040      	beq.n	1246 <uart_msp432::init()+0x8e>
    11c4:	4a2e      	ldr	r2, [pc, #184]	; (1280 <uart_msp432::init()+0xc8>)
    11c6:	4293      	cmp	r3, r2
    11c8:	d044      	beq.n	1254 <uart_msp432::init()+0x9c>
    11ca:	4a2e      	ldr	r2, [pc, #184]	; (1284 <uart_msp432::init()+0xcc>)
    11cc:	4293      	cmp	r3, r2
    11ce:	d047      	beq.n	1260 <uart_msp432::init()+0xa8>
    11d0:	4a2d      	ldr	r2, [pc, #180]	; (1288 <uart_msp432::init()+0xd0>)
    11d2:	4293      	cmp	r3, r2
    11d4:	d14a      	bne.n	126c <uart_msp432::init()+0xb4>
    11d6:	2309      	movs	r3, #9
    11d8:	7483      	strb	r3, [r0, #18]
    11da:	2306      	movs	r3, #6
    11dc:	74c3      	strb	r3, [r0, #19]
    11de:	2307      	movs	r3, #7
    11e0:	7503      	strb	r3, [r0, #20]
    11e2:	7ca1      	ldrb	r1, [r4, #18]
    11e4:	7ce3      	ldrb	r3, [r4, #19]
    11e6:	4d29      	ldr	r5, [pc, #164]	; (128c <uart_msp432::init()+0xd4>)
    11e8:	2201      	movs	r2, #1
    11ea:	ea43 2101 	orr.w	r1, r3, r1, lsl #8
    11ee:	4628      	mov	r0, r5
    11f0:	f7ff fc10 	bl	a14 <gpio_msp432::setSEL(unsigned short, unsigned char)>
    11f4:	7ca1      	ldrb	r1, [r4, #18]
    11f6:	7d23      	ldrb	r3, [r4, #20]
    11f8:	2201      	movs	r2, #1
    11fa:	ea43 2101 	orr.w	r1, r3, r1, lsl #8
    11fe:	4628      	mov	r0, r5
    1200:	f7ff fc08 	bl	a14 <gpio_msp432::setSEL(unsigned short, unsigned char)>
    1204:	68a3      	ldr	r3, [r4, #8]
    1206:	2501      	movs	r5, #1
    1208:	801d      	strh	r5, [r3, #0]
    120a:	68a2      	ldr	r2, [r4, #8]
    120c:	8813      	ldrh	r3, [r2, #0]
    120e:	b29b      	uxth	r3, r3
    1210:	f043 0380 	orr.w	r3, r3, #128	; 0x80
    1214:	8013      	strh	r3, [r2, #0]
    1216:	68a2      	ldr	r2, [r4, #8]
    1218:	8913      	ldrh	r3, [r2, #8]
    121a:	f003 030e 	and.w	r3, r3, #14
    121e:	8113      	strh	r3, [r2, #8]
    1220:	68a2      	ldr	r2, [r4, #8]
    1222:	8b53      	ldrh	r3, [r2, #26]
    1224:	b29b      	uxth	r3, r3
    1226:	f023 030f 	bic.w	r3, r3, #15
    122a:	b29b      	uxth	r3, r3
    122c:	8353      	strh	r3, [r2, #26]
    122e:	6823      	ldr	r3, [r4, #0]
    1230:	68db      	ldr	r3, [r3, #12]
    1232:	8a21      	ldrh	r1, [r4, #16]
    1234:	4620      	mov	r0, r4
    1236:	4798      	blx	r3
    1238:	6823      	ldr	r3, [r4, #0]
    123a:	691b      	ldr	r3, [r3, #16]
    123c:	68e1      	ldr	r1, [r4, #12]
    123e:	4620      	mov	r0, r4
    1240:	4798      	blx	r3
    1242:	7125      	strb	r5, [r4, #4]
    1244:	bd38      	pop	{r3, r4, r5, pc}
    1246:	2301      	movs	r3, #1
    1248:	7483      	strb	r3, [r0, #18]
    124a:	2302      	movs	r3, #2
    124c:	74c3      	strb	r3, [r0, #19]
    124e:	2303      	movs	r3, #3
    1250:	7503      	strb	r3, [r0, #20]
    1252:	e7c6      	b.n	11e2 <uart_msp432::init()+0x2a>
    1254:	2302      	movs	r3, #2
    1256:	7483      	strb	r3, [r0, #18]
    1258:	74c3      	strb	r3, [r0, #19]
    125a:	2303      	movs	r3, #3
    125c:	7503      	strb	r3, [r0, #20]
    125e:	e7c0      	b.n	11e2 <uart_msp432::init()+0x2a>
    1260:	2303      	movs	r3, #3
    1262:	7483      	strb	r3, [r0, #18]
    1264:	2202      	movs	r2, #2
    1266:	74c2      	strb	r2, [r0, #19]
    1268:	7503      	strb	r3, [r0, #20]
    126a:	e7ba      	b.n	11e2 <uart_msp432::init()+0x2a>
    126c:	4b08      	ldr	r3, [pc, #32]	; (1290 <uart_msp432::init()+0xd8>)
    126e:	4a09      	ldr	r2, [pc, #36]	; (1294 <uart_msp432::init()+0xdc>)
    1270:	601a      	str	r2, [r3, #0]
    1272:	4b09      	ldr	r3, [pc, #36]	; (1298 <uart_msp432::init()+0xe0>)
    1274:	2220      	movs	r2, #32
    1276:	601a      	str	r2, [r3, #0]
    1278:	f7ff fe9e 	bl	fb8 <yahal_assert_func()>
    127c:	40001000 	.word	0x40001000
    1280:	40001400 	.word	0x40001400
    1284:	40001800 	.word	0x40001800
    1288:	40001c00 	.word	0x40001c00
    128c:	20000730 	.word	0x20000730
    1290:	2000070c 	.word	0x2000070c
    1294:	00013e84 	.word	0x00013e84
    1298:	20000720 	.word	0x20000720

0000129c <uart_msp432::available()>:
    129c:	b510      	push	{r4, lr}
    129e:	4604      	mov	r4, r0
    12a0:	7903      	ldrb	r3, [r0, #4]
    12a2:	b123      	cbz	r3, 12ae <uart_msp432::available()+0x12>
    12a4:	68a3      	ldr	r3, [r4, #8]
    12a6:	8b98      	ldrh	r0, [r3, #28]
    12a8:	f000 0001 	and.w	r0, r0, #1
    12ac:	bd10      	pop	{r4, pc}
    12ae:	f7ff ff83 	bl	11b8 <uart_msp432::init()>
    12b2:	e7f7      	b.n	12a4 <uart_msp432::available()+0x8>

000012b4 <uart_msp432::getc()>:
    12b4:	b510      	push	{r4, lr}
    12b6:	4604      	mov	r4, r0
    12b8:	7903      	ldrb	r3, [r0, #4]
    12ba:	b13b      	cbz	r3, 12cc <uart_msp432::getc()+0x18>
    12bc:	68a3      	ldr	r3, [r4, #8]
    12be:	8b9a      	ldrh	r2, [r3, #28]
    12c0:	f012 0f01 	tst.w	r2, #1
    12c4:	d0fa      	beq.n	12bc <uart_msp432::getc()+0x8>
    12c6:	8998      	ldrh	r0, [r3, #12]
    12c8:	b2c0      	uxtb	r0, r0
    12ca:	bd10      	pop	{r4, pc}
    12cc:	f7ff ff74 	bl	11b8 <uart_msp432::init()>
    12d0:	e7f4      	b.n	12bc <uart_msp432::getc()+0x8>

000012d2 <uart_msp432::putc(char)>:
    12d2:	b538      	push	{r3, r4, r5, lr}
    12d4:	4604      	mov	r4, r0
    12d6:	460d      	mov	r5, r1
    12d8:	7903      	ldrb	r3, [r0, #4]
    12da:	b133      	cbz	r3, 12ea <uart_msp432::putc(char)+0x18>
    12dc:	68a3      	ldr	r3, [r4, #8]
    12de:	8b9a      	ldrh	r2, [r3, #28]
    12e0:	f012 0f02 	tst.w	r2, #2
    12e4:	d0fa      	beq.n	12dc <uart_msp432::putc(char)+0xa>
    12e6:	81dd      	strh	r5, [r3, #14]
    12e8:	bd38      	pop	{r3, r4, r5, pc}
    12ea:	f7ff ff65 	bl	11b8 <uart_msp432::init()>
    12ee:	e7f5      	b.n	12dc <uart_msp432::putc(char)+0xa>

000012f0 <std::function<void (char)>::operator=(decltype(nullptr))>:
    12f0:	b510      	push	{r4, lr}
    12f2:	4604      	mov	r4, r0
    12f4:	6883      	ldr	r3, [r0, #8]
    12f6:	b12b      	cbz	r3, 1304 <std::function<void (char)>::operator=(decltype(nullptr))+0x14>
    12f8:	2203      	movs	r2, #3
    12fa:	4601      	mov	r1, r0
    12fc:	4798      	blx	r3
    12fe:	2300      	movs	r3, #0
    1300:	60a3      	str	r3, [r4, #8]
    1302:	60e3      	str	r3, [r4, #12]
    1304:	4620      	mov	r0, r4
    1306:	bd10      	pop	{r4, pc}

00001308 <uart_msp432::uartDetachIrq()>:
    1308:	b538      	push	{r3, r4, r5, lr}
    130a:	4604      	mov	r4, r0
    130c:	7903      	ldrb	r3, [r0, #4]
    130e:	b17b      	cbz	r3, 1330 <uart_msp432::uartDetachIrq()+0x28>
    1310:	68a3      	ldr	r3, [r4, #8]
    1312:	f3c3 2481 	ubfx	r4, r3, #10, #2
    1316:	2500      	movs	r5, #0
    1318:	835d      	strh	r5, [r3, #26]
    131a:	f104 0010 	add.w	r0, r4, #16
    131e:	f7ff fe39 	bl	f94 <__NVIC_DisableIRQ>
    1322:	4629      	mov	r1, r5
    1324:	4804      	ldr	r0, [pc, #16]	; (1338 <uart_msp432::uartDetachIrq()+0x30>)
    1326:	eb00 1004 	add.w	r0, r0, r4, lsl #4
    132a:	f7ff ffe1 	bl	12f0 <std::function<void (char)>::operator=(decltype(nullptr))>
    132e:	bd38      	pop	{r3, r4, r5, pc}
    1330:	f7ff ff42 	bl	11b8 <uart_msp432::init()>
    1334:	e7ec      	b.n	1310 <uart_msp432::uartDetachIrq()+0x8>
    1336:	bf00      	nop
    1338:	20000b4c 	.word	0x20000b4c

0000133c <std::function<void (char)>::operator()(char) const>:
    133c:	b500      	push	{lr}
    133e:	b083      	sub	sp, #12
    1340:	f88d 1007 	strb.w	r1, [sp, #7]
    1344:	6883      	ldr	r3, [r0, #8]
    1346:	b133      	cbz	r3, 1356 <std::function<void (char)>::operator()(char) const+0x1a>
    1348:	68c3      	ldr	r3, [r0, #12]
    134a:	f10d 0107 	add.w	r1, sp, #7
    134e:	4798      	blx	r3
    1350:	b003      	add	sp, #12
    1352:	f85d fb04 	ldr.w	pc, [sp], #4
    1356:	f000 fbaf 	bl	1ab8 <__yahal_bad_function_call>
	...

0000135c <uart_msp432::handleIrq(EUSCI_A_Type*)>:
    135c:	b508      	push	{r3, lr}
    135e:	8981      	ldrh	r1, [r0, #12]
    1360:	f3c0 2081 	ubfx	r0, r0, #10, #2
    1364:	4b04      	ldr	r3, [pc, #16]	; (1378 <uart_msp432::handleIrq(EUSCI_A_Type*)+0x1c>)
    1366:	eb03 1000 	add.w	r0, r3, r0, lsl #4
    136a:	6883      	ldr	r3, [r0, #8]
    136c:	b113      	cbz	r3, 1374 <uart_msp432::handleIrq(EUSCI_A_Type*)+0x18>
    136e:	b2c9      	uxtb	r1, r1
    1370:	f7ff ffe4 	bl	133c <std::function<void (char)>::operator()(char) const>
    1374:	bd08      	pop	{r3, pc}
    1376:	bf00      	nop
    1378:	20000b4c 	.word	0x20000b4c

0000137c <EUSCIA0_UART_IRQHandler>:
    137c:	b508      	push	{r3, lr}
    137e:	4802      	ldr	r0, [pc, #8]	; (1388 <EUSCIA0_UART_IRQHandler+0xc>)
    1380:	f7ff ffec 	bl	135c <uart_msp432::handleIrq(EUSCI_A_Type*)>
    1384:	bd08      	pop	{r3, pc}
    1386:	bf00      	nop
    1388:	40001000 	.word	0x40001000

0000138c <EUSCIA1_UART_IRQHandler>:
    138c:	b508      	push	{r3, lr}
    138e:	4802      	ldr	r0, [pc, #8]	; (1398 <EUSCIA1_UART_IRQHandler+0xc>)
    1390:	f7ff ffe4 	bl	135c <uart_msp432::handleIrq(EUSCI_A_Type*)>
    1394:	bd08      	pop	{r3, pc}
    1396:	bf00      	nop
    1398:	40001400 	.word	0x40001400

0000139c <EUSCIA2_UART_IRQHandler>:
    139c:	b508      	push	{r3, lr}
    139e:	4802      	ldr	r0, [pc, #8]	; (13a8 <EUSCIA2_UART_IRQHandler+0xc>)
    13a0:	f7ff ffdc 	bl	135c <uart_msp432::handleIrq(EUSCI_A_Type*)>
    13a4:	bd08      	pop	{r3, pc}
    13a6:	bf00      	nop
    13a8:	40001800 	.word	0x40001800

000013ac <EUSCIA3_UART_IRQHandler>:
    13ac:	b508      	push	{r3, lr}
    13ae:	4802      	ldr	r0, [pc, #8]	; (13b8 <EUSCIA3_UART_IRQHandler+0xc>)
    13b0:	f7ff ffd4 	bl	135c <uart_msp432::handleIrq(EUSCI_A_Type*)>
    13b4:	bd08      	pop	{r3, pc}
    13b6:	bf00      	nop
    13b8:	40001c00 	.word	0x40001c00

000013bc <std::function<void (char)>::function(std::function<void (char)> const&)>:
    13bc:	b538      	push	{r3, r4, r5, lr}
    13be:	4604      	mov	r4, r0
    13c0:	2300      	movs	r3, #0
    13c2:	6003      	str	r3, [r0, #0]
    13c4:	6043      	str	r3, [r0, #4]
    13c6:	6083      	str	r3, [r0, #8]
    13c8:	60c3      	str	r3, [r0, #12]
    13ca:	688b      	ldr	r3, [r1, #8]
    13cc:	b133      	cbz	r3, 13dc <std::function<void (char)>::function(std::function<void (char)> const&)+0x20>
    13ce:	460d      	mov	r5, r1
    13d0:	2202      	movs	r2, #2
    13d2:	4798      	blx	r3
    13d4:	68eb      	ldr	r3, [r5, #12]
    13d6:	60e3      	str	r3, [r4, #12]
    13d8:	68ab      	ldr	r3, [r5, #8]
    13da:	60a3      	str	r3, [r4, #8]
    13dc:	4620      	mov	r0, r4
    13de:	bd38      	pop	{r3, r4, r5, pc}

000013e0 <std::function<void (char)>::swap(std::function<void (char)>&)>:
    13e0:	b538      	push	{r3, r4, r5, lr}
    13e2:	4605      	mov	r5, r0
    13e4:	460c      	mov	r4, r1
    13e6:	f7ff fce3 	bl	db0 <std::enable_if<std::__and_<std::__not_<std::__is_tuple_like<std::_Any_data> >, std::is_move_constructible<std::_Any_data>, std::is_move_assignable<std::_Any_data> >::value, void>::type std::swap<std::_Any_data>(std::_Any_data&, std::_Any_data&)>
    13ea:	68ab      	ldr	r3, [r5, #8]
    13ec:	68a2      	ldr	r2, [r4, #8]
    13ee:	60aa      	str	r2, [r5, #8]
    13f0:	60a3      	str	r3, [r4, #8]
    13f2:	68eb      	ldr	r3, [r5, #12]
    13f4:	68e2      	ldr	r2, [r4, #12]
    13f6:	60ea      	str	r2, [r5, #12]
    13f8:	60e3      	str	r3, [r4, #12]
    13fa:	bd38      	pop	{r3, r4, r5, pc}

000013fc <std::function<void (char)>::operator=(std::function<void (char)> const&)>:
    13fc:	b510      	push	{r4, lr}
    13fe:	b084      	sub	sp, #16
    1400:	4604      	mov	r4, r0
    1402:	4668      	mov	r0, sp
    1404:	f7ff ffda 	bl	13bc <std::function<void (char)>::function(std::function<void (char)> const&)>
    1408:	4621      	mov	r1, r4
    140a:	4668      	mov	r0, sp
    140c:	f7ff ffe8 	bl	13e0 <std::function<void (char)>::swap(std::function<void (char)>&)>
    1410:	4668      	mov	r0, sp
    1412:	f7ff fa95 	bl	940 <std::_Function_base::~_Function_base()>
    1416:	4620      	mov	r0, r4
    1418:	b004      	add	sp, #16
    141a:	bd10      	pop	{r4, pc}

0000141c <uart_msp432::uartAttachIrq(std::function<void (char)>)>:
    141c:	b570      	push	{r4, r5, r6, lr}
    141e:	4604      	mov	r4, r0
    1420:	460e      	mov	r6, r1
    1422:	7903      	ldrb	r3, [r0, #4]
    1424:	b183      	cbz	r3, 1448 <uart_msp432::uartAttachIrq(std::function<void (char)>)+0x2c>
    1426:	68a5      	ldr	r5, [r4, #8]
    1428:	f3c5 2581 	ubfx	r5, r5, #10, #2
    142c:	4631      	mov	r1, r6
    142e:	4808      	ldr	r0, [pc, #32]	; (1450 <uart_msp432::uartAttachIrq(std::function<void (char)>)+0x34>)
    1430:	eb00 1005 	add.w	r0, r0, r5, lsl #4
    1434:	f7ff ffe2 	bl	13fc <std::function<void (char)>::operator=(std::function<void (char)> const&)>
    1438:	68a3      	ldr	r3, [r4, #8]
    143a:	2201      	movs	r2, #1
    143c:	835a      	strh	r2, [r3, #26]
    143e:	f105 0010 	add.w	r0, r5, #16
    1442:	f7ff fd99 	bl	f78 <__NVIC_EnableIRQ>
    1446:	bd70      	pop	{r4, r5, r6, pc}
    1448:	f7ff feb6 	bl	11b8 <uart_msp432::init()>
    144c:	e7eb      	b.n	1426 <uart_msp432::uartAttachIrq(std::function<void (char)>)+0xa>
    144e:	bf00      	nop
    1450:	20000b4c 	.word	0x20000b4c

00001454 <_GLOBAL__sub_I_UART_CLK>:
    1454:	b508      	push	{r3, lr}
    1456:	f64f 71ff 	movw	r1, #65535	; 0xffff
    145a:	2001      	movs	r0, #1
    145c:	f7ff fe58 	bl	1110 <__static_initialization_and_destruction_0(int, int)>
    1460:	bd08      	pop	{r3, pc}
	...

00001464 <calculate_DCO_clock>:
    1464:	b082      	sub	sp, #8
    1466:	9001      	str	r0, [sp, #4]
    1468:	4b30      	ldr	r3, [pc, #192]	; (152c <calculate_DCO_clock+0xc8>)
    146a:	685b      	ldr	r3, [r3, #4]
    146c:	b21a      	sxth	r2, r3
    146e:	f3c3 0309 	ubfx	r3, r3, #0, #10
    1472:	2b00      	cmp	r3, #0
    1474:	d058      	beq.n	1528 <calculate_DCO_clock+0xc4>
    1476:	f412 7f00 	tst.w	r2, #512	; 0x200
    147a:	d003      	beq.n	1484 <calculate_DCO_clock+0x20>
    147c:	ea6f 5383 	mvn.w	r3, r3, lsl #22
    1480:	ea6f 5393 	mvn.w	r3, r3, lsr #22
    1484:	4a29      	ldr	r2, [pc, #164]	; (152c <calculate_DCO_clock+0xc8>)
    1486:	6852      	ldr	r2, [r2, #4]
    1488:	f412 0f80 	tst.w	r2, #4194304	; 0x400000
    148c:	d035      	beq.n	14fa <calculate_DCO_clock+0x96>
    148e:	4a27      	ldr	r2, [pc, #156]	; (152c <calculate_DCO_clock+0xc8>)
    1490:	6852      	ldr	r2, [r2, #4]
    1492:	f402 22e0 	and.w	r2, r2, #458752	; 0x70000
    1496:	f5b2 2fa0 	cmp.w	r2, #327680	; 0x50000
    149a:	d026      	beq.n	14ea <calculate_DCO_clock+0x86>
    149c:	4a24      	ldr	r2, [pc, #144]	; (1530 <calculate_DCO_clock+0xcc>)
    149e:	ed92 6a21 	vldr	s12, [r2, #132]	; 0x84
    14a2:	eeb8 6a46 	vcvt.f32.u32	s12, s12
    14a6:	edd2 7a1b 	vldr	s15, [r2, #108]	; 0x6c
    14aa:	eef7 6a00 	vmov.f32	s13, #112	; 0x3f800000  1.0
    14ae:	ee86 7a86 	vdiv.f32	s14, s13, s12
    14b2:	ed9f 6a20 	vldr	s12, [pc, #128]	; 1534 <calculate_DCO_clock+0xd0>
    14b6:	ee37 7a06 	vadd.f32	s14, s14, s12
    14ba:	eef8 7a67 	vcvt.f32.u32	s15, s15
    14be:	ee37 7a67 	vsub.f32	s14, s14, s15
    14c2:	eddd 7a01 	vldr	s15, [sp, #4]
    14c6:	eeb8 6a67 	vcvt.f32.u32	s12, s15
    14ca:	ee07 3a90 	vmov	s15, r3
    14ce:	eef8 7ae7 	vcvt.f32.s32	s15, s15
    14d2:	eec7 5a87 	vdiv.f32	s11, s15, s14
    14d6:	ee76 6ae5 	vsub.f32	s13, s13, s11
    14da:	eec6 7a26 	vdiv.f32	s15, s12, s13
    14de:	eefc 7ae7 	vcvt.u32.f32	s15, s15
    14e2:	ee17 0a90 	vmov	r0, s15
    14e6:	b002      	add	sp, #8
    14e8:	4770      	bx	lr
    14ea:	4a11      	ldr	r2, [pc, #68]	; (1530 <calculate_DCO_clock+0xcc>)
    14ec:	ed92 6a22 	vldr	s12, [r2, #136]	; 0x88
    14f0:	eeb8 6a46 	vcvt.f32.u32	s12, s12
    14f4:	edd2 7a1c 	vldr	s15, [r2, #112]	; 0x70
    14f8:	e7d7      	b.n	14aa <calculate_DCO_clock+0x46>
    14fa:	4a0c      	ldr	r2, [pc, #48]	; (152c <calculate_DCO_clock+0xc8>)
    14fc:	6852      	ldr	r2, [r2, #4]
    14fe:	f402 22e0 	and.w	r2, r2, #458752	; 0x70000
    1502:	f5b2 2fa0 	cmp.w	r2, #327680	; 0x50000
    1506:	d007      	beq.n	1518 <calculate_DCO_clock+0xb4>
    1508:	4a09      	ldr	r2, [pc, #36]	; (1530 <calculate_DCO_clock+0xcc>)
    150a:	ed92 6a19 	vldr	s12, [r2, #100]	; 0x64
    150e:	eeb8 6a46 	vcvt.f32.u32	s12, s12
    1512:	edd2 7a13 	vldr	s15, [r2, #76]	; 0x4c
    1516:	e7c8      	b.n	14aa <calculate_DCO_clock+0x46>
    1518:	4a05      	ldr	r2, [pc, #20]	; (1530 <calculate_DCO_clock+0xcc>)
    151a:	ed92 6a1a 	vldr	s12, [r2, #104]	; 0x68
    151e:	eeb8 6a46 	vcvt.f32.u32	s12, s12
    1522:	edd2 7a14 	vldr	s15, [r2, #80]	; 0x50
    1526:	e7c0      	b.n	14aa <calculate_DCO_clock+0x46>
    1528:	9801      	ldr	r0, [sp, #4]
    152a:	e7dc      	b.n	14e6 <calculate_DCO_clock+0x82>
    152c:	40010400 	.word	0x40010400
    1530:	00201000 	.word	0x00201000
    1534:	44400000 	.word	0x44400000

00001538 <SystemCoreClockUpdate>:
    1538:	b510      	push	{r4, lr}
    153a:	4b51      	ldr	r3, [pc, #324]	; (1680 <SystemCoreClockUpdate+0x148>)
    153c:	689b      	ldr	r3, [r3, #8]
    153e:	f003 0307 	and.w	r3, r3, #7
    1542:	2b05      	cmp	r3, #5
    1544:	d817      	bhi.n	1576 <SystemCoreClockUpdate+0x3e>
    1546:	e8df f003 	tbb	[pc, r3]
    154a:	1203      	.short	0x1203
    154c:	4a463a2b 	.word	0x4a463a2b
    1550:	4b4b      	ldr	r3, [pc, #300]	; (1680 <SystemCoreClockUpdate+0x148>)
    1552:	6c9b      	ldr	r3, [r3, #72]	; 0x48
    1554:	f013 0f01 	tst.w	r3, #1
    1558:	d004      	beq.n	1564 <SystemCoreClockUpdate+0x2c>
    155a:	4b4a      	ldr	r3, [pc, #296]	; (1684 <SystemCoreClockUpdate+0x14c>)
    155c:	f44f 4200 	mov.w	r2, #32768	; 0x8000
    1560:	601a      	str	r2, [r3, #0]
    1562:	e008      	b.n	1576 <SystemCoreClockUpdate+0x3e>
    1564:	4b48      	ldr	r3, [pc, #288]	; (1688 <SystemCoreClockUpdate+0x150>)
    1566:	681a      	ldr	r2, [r3, #0]
    1568:	4b46      	ldr	r3, [pc, #280]	; (1684 <SystemCoreClockUpdate+0x14c>)
    156a:	601a      	str	r2, [r3, #0]
    156c:	e003      	b.n	1576 <SystemCoreClockUpdate+0x3e>
    156e:	4b45      	ldr	r3, [pc, #276]	; (1684 <SystemCoreClockUpdate+0x14c>)
    1570:	f242 42b8 	movw	r2, #9400	; 0x24b8
    1574:	601a      	str	r2, [r3, #0]
    1576:	4b42      	ldr	r3, [pc, #264]	; (1680 <SystemCoreClockUpdate+0x148>)
    1578:	689b      	ldr	r3, [r3, #8]
    157a:	f003 0370 	and.w	r3, r3, #112	; 0x70
    157e:	2b30      	cmp	r3, #48	; 0x30
    1580:	d069      	beq.n	1656 <SystemCoreClockUpdate+0x11e>
    1582:	d851      	bhi.n	1628 <SystemCoreClockUpdate+0xf0>
    1584:	2b10      	cmp	r3, #16
    1586:	d05c      	beq.n	1642 <SystemCoreClockUpdate+0x10a>
    1588:	2b20      	cmp	r3, #32
    158a:	d136      	bne.n	15fa <SystemCoreClockUpdate+0xc2>
    158c:	4b3c      	ldr	r3, [pc, #240]	; (1680 <SystemCoreClockUpdate+0x148>)
    158e:	6b1b      	ldr	r3, [r3, #48]	; 0x30
    1590:	f413 4f00 	tst.w	r3, #32768	; 0x8000
    1594:	d05a      	beq.n	164c <SystemCoreClockUpdate+0x114>
    1596:	4b3d      	ldr	r3, [pc, #244]	; (168c <SystemCoreClockUpdate+0x154>)
    1598:	f44f 32fa 	mov.w	r2, #128000	; 0x1f400
    159c:	601a      	str	r2, [r3, #0]
    159e:	e033      	b.n	1608 <SystemCoreClockUpdate+0xd0>
    15a0:	4b37      	ldr	r3, [pc, #220]	; (1680 <SystemCoreClockUpdate+0x148>)
    15a2:	6b1b      	ldr	r3, [r3, #48]	; 0x30
    15a4:	f413 4f00 	tst.w	r3, #32768	; 0x8000
    15a8:	d004      	beq.n	15b4 <SystemCoreClockUpdate+0x7c>
    15aa:	4b36      	ldr	r3, [pc, #216]	; (1684 <SystemCoreClockUpdate+0x14c>)
    15ac:	f44f 32fa 	mov.w	r2, #128000	; 0x1f400
    15b0:	601a      	str	r2, [r3, #0]
    15b2:	e7e0      	b.n	1576 <SystemCoreClockUpdate+0x3e>
    15b4:	4b33      	ldr	r3, [pc, #204]	; (1684 <SystemCoreClockUpdate+0x14c>)
    15b6:	f44f 4200 	mov.w	r2, #32768	; 0x8000
    15ba:	601a      	str	r2, [r3, #0]
    15bc:	e7db      	b.n	1576 <SystemCoreClockUpdate+0x3e>
    15be:	4b30      	ldr	r3, [pc, #192]	; (1680 <SystemCoreClockUpdate+0x148>)
    15c0:	685b      	ldr	r3, [r3, #4]
    15c2:	f3c3 4302 	ubfx	r3, r3, #16, #3
    15c6:	4832      	ldr	r0, [pc, #200]	; (1690 <SystemCoreClockUpdate+0x158>)
    15c8:	4098      	lsls	r0, r3
    15ca:	4c2e      	ldr	r4, [pc, #184]	; (1684 <SystemCoreClockUpdate+0x14c>)
    15cc:	6020      	str	r0, [r4, #0]
    15ce:	f7ff ff49 	bl	1464 <calculate_DCO_clock>
    15d2:	6020      	str	r0, [r4, #0]
    15d4:	e7cf      	b.n	1576 <SystemCoreClockUpdate+0x3e>
    15d6:	4b2b      	ldr	r3, [pc, #172]	; (1684 <SystemCoreClockUpdate+0x14c>)
    15d8:	4a2e      	ldr	r2, [pc, #184]	; (1694 <SystemCoreClockUpdate+0x15c>)
    15da:	601a      	str	r2, [r3, #0]
    15dc:	e7cb      	b.n	1576 <SystemCoreClockUpdate+0x3e>
    15de:	4b28      	ldr	r3, [pc, #160]	; (1680 <SystemCoreClockUpdate+0x148>)
    15e0:	6c9b      	ldr	r3, [r3, #72]	; 0x48
    15e2:	f013 0f02 	tst.w	r3, #2
    15e6:	d003      	beq.n	15f0 <SystemCoreClockUpdate+0xb8>
    15e8:	4b26      	ldr	r3, [pc, #152]	; (1684 <SystemCoreClockUpdate+0x14c>)
    15ea:	4a2b      	ldr	r2, [pc, #172]	; (1698 <SystemCoreClockUpdate+0x160>)
    15ec:	601a      	str	r2, [r3, #0]
    15ee:	e7c2      	b.n	1576 <SystemCoreClockUpdate+0x3e>
    15f0:	4b2a      	ldr	r3, [pc, #168]	; (169c <SystemCoreClockUpdate+0x164>)
    15f2:	681a      	ldr	r2, [r3, #0]
    15f4:	4b23      	ldr	r3, [pc, #140]	; (1684 <SystemCoreClockUpdate+0x14c>)
    15f6:	601a      	str	r2, [r3, #0]
    15f8:	e7bd      	b.n	1576 <SystemCoreClockUpdate+0x3e>
    15fa:	b92b      	cbnz	r3, 1608 <SystemCoreClockUpdate+0xd0>
    15fc:	4b20      	ldr	r3, [pc, #128]	; (1680 <SystemCoreClockUpdate+0x148>)
    15fe:	6c9b      	ldr	r3, [r3, #72]	; 0x48
    1600:	4b21      	ldr	r3, [pc, #132]	; (1688 <SystemCoreClockUpdate+0x150>)
    1602:	681a      	ldr	r2, [r3, #0]
    1604:	4b21      	ldr	r3, [pc, #132]	; (168c <SystemCoreClockUpdate+0x154>)
    1606:	601a      	str	r2, [r3, #0]
    1608:	4b1d      	ldr	r3, [pc, #116]	; (1680 <SystemCoreClockUpdate+0x148>)
    160a:	6899      	ldr	r1, [r3, #8]
    160c:	f3c1 4102 	ubfx	r1, r1, #16, #3
    1610:	689a      	ldr	r2, [r3, #8]
    1612:	f3c2 7202 	ubfx	r2, r2, #28, #3
    1616:	481b      	ldr	r0, [pc, #108]	; (1684 <SystemCoreClockUpdate+0x14c>)
    1618:	6803      	ldr	r3, [r0, #0]
    161a:	40cb      	lsrs	r3, r1
    161c:	6003      	str	r3, [r0, #0]
    161e:	491b      	ldr	r1, [pc, #108]	; (168c <SystemCoreClockUpdate+0x154>)
    1620:	680b      	ldr	r3, [r1, #0]
    1622:	40d3      	lsrs	r3, r2
    1624:	600b      	str	r3, [r1, #0]
    1626:	bd10      	pop	{r4, pc}
    1628:	2b40      	cmp	r3, #64	; 0x40
    162a:	d020      	beq.n	166e <SystemCoreClockUpdate+0x136>
    162c:	2b50      	cmp	r3, #80	; 0x50
    162e:	d1eb      	bne.n	1608 <SystemCoreClockUpdate+0xd0>
    1630:	4b13      	ldr	r3, [pc, #76]	; (1680 <SystemCoreClockUpdate+0x148>)
    1632:	6c9b      	ldr	r3, [r3, #72]	; 0x48
    1634:	f013 0f02 	tst.w	r3, #2
    1638:	d01d      	beq.n	1676 <SystemCoreClockUpdate+0x13e>
    163a:	4b14      	ldr	r3, [pc, #80]	; (168c <SystemCoreClockUpdate+0x154>)
    163c:	4a16      	ldr	r2, [pc, #88]	; (1698 <SystemCoreClockUpdate+0x160>)
    163e:	601a      	str	r2, [r3, #0]
    1640:	e7e2      	b.n	1608 <SystemCoreClockUpdate+0xd0>
    1642:	4b12      	ldr	r3, [pc, #72]	; (168c <SystemCoreClockUpdate+0x154>)
    1644:	f242 42b8 	movw	r2, #9400	; 0x24b8
    1648:	601a      	str	r2, [r3, #0]
    164a:	e7dd      	b.n	1608 <SystemCoreClockUpdate+0xd0>
    164c:	4b0f      	ldr	r3, [pc, #60]	; (168c <SystemCoreClockUpdate+0x154>)
    164e:	f44f 4200 	mov.w	r2, #32768	; 0x8000
    1652:	601a      	str	r2, [r3, #0]
    1654:	e7d8      	b.n	1608 <SystemCoreClockUpdate+0xd0>
    1656:	4b0a      	ldr	r3, [pc, #40]	; (1680 <SystemCoreClockUpdate+0x148>)
    1658:	685b      	ldr	r3, [r3, #4]
    165a:	f3c3 4302 	ubfx	r3, r3, #16, #3
    165e:	480c      	ldr	r0, [pc, #48]	; (1690 <SystemCoreClockUpdate+0x158>)
    1660:	4098      	lsls	r0, r3
    1662:	4c0a      	ldr	r4, [pc, #40]	; (168c <SystemCoreClockUpdate+0x154>)
    1664:	6020      	str	r0, [r4, #0]
    1666:	f7ff fefd 	bl	1464 <calculate_DCO_clock>
    166a:	6020      	str	r0, [r4, #0]
    166c:	e7cc      	b.n	1608 <SystemCoreClockUpdate+0xd0>
    166e:	4b07      	ldr	r3, [pc, #28]	; (168c <SystemCoreClockUpdate+0x154>)
    1670:	4a08      	ldr	r2, [pc, #32]	; (1694 <SystemCoreClockUpdate+0x15c>)
    1672:	601a      	str	r2, [r3, #0]
    1674:	e7c8      	b.n	1608 <SystemCoreClockUpdate+0xd0>
    1676:	4b09      	ldr	r3, [pc, #36]	; (169c <SystemCoreClockUpdate+0x164>)
    1678:	681a      	ldr	r2, [r3, #0]
    167a:	4b04      	ldr	r3, [pc, #16]	; (168c <SystemCoreClockUpdate+0x154>)
    167c:	601a      	str	r2, [r3, #0]
    167e:	e7c3      	b.n	1608 <SystemCoreClockUpdate+0xd0>
    1680:	40010400 	.word	0x40010400
    1684:	20000030 	.word	0x20000030
    1688:	200006fc 	.word	0x200006fc
    168c:	2000002c 	.word	0x2000002c
    1690:	0016e360 	.word	0x0016e360
    1694:	017d7840 	.word	0x017d7840
    1698:	004c4b40 	.word	0x004c4b40
    169c:	200006f8 	.word	0x200006f8

000016a0 <SystemInit>:
    16a0:	b508      	push	{r3, lr}
    16a2:	4b34      	ldr	r3, [pc, #208]	; (1774 <SystemInit+0xd4>)
    16a4:	f44f 42b5 	mov.w	r2, #23168	; 0x5a80
    16a8:	819a      	strh	r2, [r3, #12]
    16aa:	4a33      	ldr	r2, [pc, #204]	; (1778 <SystemInit+0xd8>)
    16ac:	f8d2 3088 	ldr.w	r3, [r2, #136]	; 0x88
    16b0:	f443 0370 	orr.w	r3, r3, #15728640	; 0xf00000
    16b4:	f8c2 3088 	str.w	r3, [r2, #136]	; 0x88
    16b8:	4b30      	ldr	r3, [pc, #192]	; (177c <SystemInit+0xdc>)
    16ba:	2280      	movs	r2, #128	; 0x80
    16bc:	615a      	str	r2, [r3, #20]
    16be:	4930      	ldr	r1, [pc, #192]	; (1780 <SystemInit+0xe0>)
    16c0:	f646 135a 	movw	r3, #26970	; 0x695a
    16c4:	600b      	str	r3, [r1, #0]
    16c6:	4b2f      	ldr	r3, [pc, #188]	; (1784 <SystemInit+0xe4>)
    16c8:	4a2f      	ldr	r2, [pc, #188]	; (1788 <SystemInit+0xe8>)
    16ca:	601a      	str	r2, [r3, #0]
    16cc:	4a2f      	ldr	r2, [pc, #188]	; (178c <SystemInit+0xec>)
    16ce:	8d53      	ldrh	r3, [r2, #42]	; 0x2a
    16d0:	b29b      	uxth	r3, r3
    16d2:	f043 0308 	orr.w	r3, r3, #8
    16d6:	8553      	strh	r3, [r2, #42]	; 0x2a
    16d8:	8d93      	ldrh	r3, [r2, #44]	; 0x2c
    16da:	b29b      	uxth	r3, r3
    16dc:	f023 0308 	bic.w	r3, r3, #8
    16e0:	b29b      	uxth	r3, r3
    16e2:	8593      	strh	r3, [r2, #44]	; 0x2c
    16e4:	68cb      	ldr	r3, [r1, #12]
    16e6:	f043 73b0 	orr.w	r3, r3, #23068672	; 0x1600000
    16ea:	f443 3380 	orr.w	r3, r3, #65536	; 0x10000
    16ee:	60cb      	str	r3, [r1, #12]
    16f0:	2300      	movs	r3, #0
    16f2:	e000      	b.n	16f6 <SystemInit+0x56>
    16f4:	3301      	adds	r3, #1
    16f6:	2bc7      	cmp	r3, #199	; 0xc7
    16f8:	dc0a      	bgt.n	1710 <SystemInit+0x70>
    16fa:	4a21      	ldr	r2, [pc, #132]	; (1780 <SystemInit+0xe0>)
    16fc:	6c92      	ldr	r2, [r2, #72]	; 0x48
    16fe:	f012 0f02 	tst.w	r2, #2
    1702:	d0f7      	beq.n	16f4 <SystemInit+0x54>
    1704:	491e      	ldr	r1, [pc, #120]	; (1780 <SystemInit+0xe0>)
    1706:	6d0a      	ldr	r2, [r1, #80]	; 0x50
    1708:	f042 0202 	orr.w	r2, r2, #2
    170c:	650a      	str	r2, [r1, #80]	; 0x50
    170e:	e7f1      	b.n	16f4 <SystemInit+0x54>
    1710:	4b1f      	ldr	r3, [pc, #124]	; (1790 <SystemInit+0xf0>)
    1712:	f44f 4200 	mov.w	r2, #32768	; 0x8000
    1716:	601a      	str	r2, [r3, #0]
    1718:	4a1c      	ldr	r2, [pc, #112]	; (178c <SystemInit+0xec>)
    171a:	8d53      	ldrh	r3, [r2, #42]	; 0x2a
    171c:	b29b      	uxth	r3, r3
    171e:	f043 0301 	orr.w	r3, r3, #1
    1722:	8553      	strh	r3, [r2, #42]	; 0x2a
    1724:	8d93      	ldrh	r3, [r2, #44]	; 0x2c
    1726:	b29b      	uxth	r3, r3
    1728:	f023 0301 	bic.w	r3, r3, #1
    172c:	b29b      	uxth	r3, r3
    172e:	8593      	strh	r3, [r2, #44]	; 0x2c
    1730:	f502 4237 	add.w	r2, r2, #46848	; 0xb700
    1734:	68d3      	ldr	r3, [r2, #12]
    1736:	f443 7380 	orr.w	r3, r3, #256	; 0x100
    173a:	60d3      	str	r3, [r2, #12]
    173c:	2300      	movs	r3, #0
    173e:	e000      	b.n	1742 <SystemInit+0xa2>
    1740:	3301      	adds	r3, #1
    1742:	2bc7      	cmp	r3, #199	; 0xc7
    1744:	dc0a      	bgt.n	175c <SystemInit+0xbc>
    1746:	4a0e      	ldr	r2, [pc, #56]	; (1780 <SystemInit+0xe0>)
    1748:	6c92      	ldr	r2, [r2, #72]	; 0x48
    174a:	f012 0f01 	tst.w	r2, #1
    174e:	d0f7      	beq.n	1740 <SystemInit+0xa0>
    1750:	490b      	ldr	r1, [pc, #44]	; (1780 <SystemInit+0xe0>)
    1752:	6d0a      	ldr	r2, [r1, #80]	; 0x50
    1754:	f042 0201 	orr.w	r2, r2, #1
    1758:	650a      	str	r2, [r1, #80]	; 0x50
    175a:	e7f1      	b.n	1740 <SystemInit+0xa0>
    175c:	4b08      	ldr	r3, [pc, #32]	; (1780 <SystemInit+0xe0>)
    175e:	f44f 3280 	mov.w	r2, #65536	; 0x10000
    1762:	605a      	str	r2, [r3, #4]
    1764:	2233      	movs	r2, #51	; 0x33
    1766:	609a      	str	r2, [r3, #8]
    1768:	2200      	movs	r2, #0
    176a:	601a      	str	r2, [r3, #0]
    176c:	f7ff fee4 	bl	1538 <SystemCoreClockUpdate>
    1770:	bd08      	pop	{r3, pc}
    1772:	bf00      	nop
    1774:	40004800 	.word	0x40004800
    1778:	e000ed00 	.word	0xe000ed00
    177c:	e0043000 	.word	0xe0043000
    1780:	40010400 	.word	0x40010400
    1784:	200006f8 	.word	0x200006f8
    1788:	02dc6c00 	.word	0x02dc6c00
    178c:	40004d00 	.word	0x40004d00
    1790:	200006fc 	.word	0x200006fc

00001794 <yahal_assert_func()>:
    1794:	e7fe      	b.n	1794 <yahal_assert_func()>
	...

00001798 <__static_initialization_and_destruction_0(int, int)>:
    1798:	2801      	cmp	r0, #1
    179a:	d000      	beq.n	179e <__static_initialization_and_destruction_0(int, int)+0x6>
    179c:	4770      	bx	lr
    179e:	f64f 73ff 	movw	r3, #65535	; 0xffff
    17a2:	4299      	cmp	r1, r3
    17a4:	d1fa      	bne.n	179c <__static_initialization_and_destruction_0(int, int)+0x4>
    17a6:	4b03      	ldr	r3, [pc, #12]	; (17b4 <__static_initialization_and_destruction_0(int, int)+0x1c>)
    17a8:	2200      	movs	r2, #0
    17aa:	601a      	str	r2, [r3, #0]
    17ac:	605a      	str	r2, [r3, #4]
    17ae:	609a      	str	r2, [r3, #8]
    17b0:	e7f4      	b.n	179c <__static_initialization_and_destruction_0(int, int)+0x4>
    17b2:	bf00      	nop
    17b4:	20000c4c 	.word	0x20000c4c

000017b8 <task::task(char const*, unsigned short)>:
    17b8:	b570      	push	{r4, r5, r6, lr}
    17ba:	4604      	mov	r4, r0
    17bc:	4616      	mov	r6, r2
    17be:	4603      	mov	r3, r0
    17c0:	4a16      	ldr	r2, [pc, #88]	; (181c <task::task(char const*, unsigned short)+0x64>)
    17c2:	f843 2b44 	str.w	r2, [r3], #68
    17c6:	2500      	movs	r5, #0
    17c8:	6445      	str	r5, [r0, #68]	; 0x44
    17ca:	605d      	str	r5, [r3, #4]
    17cc:	609d      	str	r5, [r3, #8]
    17ce:	6505      	str	r5, [r0, #80]	; 0x50
    17d0:	220f      	movs	r2, #15
    17d2:	3004      	adds	r0, #4
    17d4:	f00a f846 	bl	b864 <strncpy>
    17d8:	74e5      	strb	r5, [r4, #19]
    17da:	7525      	strb	r5, [r4, #20]
    17dc:	2302      	movs	r3, #2
    17de:	7563      	strb	r3, [r4, #21]
    17e0:	61a5      	str	r5, [r4, #24]
    17e2:	61e5      	str	r5, [r4, #28]
    17e4:	2200      	movs	r2, #0
    17e6:	2300      	movs	r3, #0
    17e8:	e9c4 2308 	strd	r2, r3, [r4, #32]
    17ec:	62a5      	str	r5, [r4, #40]	; 0x28
    17ee:	8626      	strh	r6, [r4, #48]	; 0x30
    17f0:	4630      	mov	r0, r6
    17f2:	f000 fc89 	bl	2108 <operator new[](unsigned int)>
    17f6:	62e0      	str	r0, [r4, #44]	; 0x2c
    17f8:	b138      	cbz	r0, 180a <task::task(char const*, unsigned short)+0x52>
    17fa:	2300      	movs	r3, #0
    17fc:	6363      	str	r3, [r4, #52]	; 0x34
    17fe:	f884 3038 	strb.w	r3, [r4, #56]	; 0x38
    1802:	63e3      	str	r3, [r4, #60]	; 0x3c
    1804:	6423      	str	r3, [r4, #64]	; 0x40
    1806:	4620      	mov	r0, r4
    1808:	bd70      	pop	{r4, r5, r6, pc}
    180a:	4b05      	ldr	r3, [pc, #20]	; (1820 <task::task(char const*, unsigned short)+0x68>)
    180c:	4a05      	ldr	r2, [pc, #20]	; (1824 <task::task(char const*, unsigned short)+0x6c>)
    180e:	601a      	str	r2, [r3, #0]
    1810:	4b05      	ldr	r3, [pc, #20]	; (1828 <task::task(char const*, unsigned short)+0x70>)
    1812:	2236      	movs	r2, #54	; 0x36
    1814:	601a      	str	r2, [r3, #0]
    1816:	f7ff ffbd 	bl	1794 <yahal_assert_func()>
    181a:	bf00      	nop
    181c:	00013f88 	.word	0x00013f88
    1820:	20000710 	.word	0x20000710
    1824:	00013f40 	.word	0x00013f40
    1828:	20000724 	.word	0x20000724

0000182c <task::sleep(unsigned long)>:
    182c:	b510      	push	{r4, lr}
    182e:	4b0e      	ldr	r3, [pc, #56]	; (1868 <task::sleep(unsigned long)+0x3c>)
    1830:	681b      	ldr	r3, [r3, #0]
    1832:	b1b3      	cbz	r3, 1862 <task::sleep(unsigned long)+0x36>
    1834:	490d      	ldr	r1, [pc, #52]	; (186c <task::sleep(unsigned long)+0x40>)
    1836:	680a      	ldr	r2, [r1, #0]
    1838:	6849      	ldr	r1, [r1, #4]
    183a:	621a      	str	r2, [r3, #32]
    183c:	6259      	str	r1, [r3, #36]	; 0x24
    183e:	f44f 747a 	mov.w	r4, #1000	; 0x3e8
    1842:	fb04 f000 	mul.w	r0, r4, r0
    1846:	4c0a      	ldr	r4, [pc, #40]	; (1870 <task::sleep(unsigned long)+0x44>)
    1848:	fba4 4000 	umull	r4, r0, r4, r0
    184c:	0980      	lsrs	r0, r0, #6
    184e:	1812      	adds	r2, r2, r0
    1850:	f141 0100 	adc.w	r1, r1, #0
    1854:	621a      	str	r2, [r3, #32]
    1856:	6259      	str	r1, [r3, #36]	; 0x24
    1858:	2201      	movs	r2, #1
    185a:	755a      	strb	r2, [r3, #21]
    185c:	f000 fb68 	bl	1f30 <task::yield()>
    1860:	bd10      	pop	{r4, pc}
    1862:	f000 fb43 	bl	1eec <task::_nonOS_sleep(unsigned long)>
    1866:	e7fb      	b.n	1860 <task::sleep(unsigned long)+0x34>
    1868:	20000c58 	.word	0x20000c58
    186c:	200006f0 	.word	0x200006f0
    1870:	10624dd3 	.word	0x10624dd3

00001874 <task::_scheduler()>:
    1874:	e92d 41f0 	stmdb	sp!, {r4, r5, r6, r7, r8, lr}
    1878:	4b21      	ldr	r3, [pc, #132]	; (1900 <task::_scheduler()+0x8c>)
    187a:	681b      	ldr	r3, [r3, #0]
    187c:	6bdc      	ldr	r4, [r3, #60]	; 0x3c
    187e:	2500      	movs	r5, #0
    1880:	462e      	mov	r6, r5
    1882:	462f      	mov	r7, r5
    1884:	e015      	b.n	18b2 <task::_scheduler()+0x3e>
    1886:	6a21      	ldr	r1, [r4, #32]
    1888:	6a62      	ldr	r2, [r4, #36]	; 0x24
    188a:	4b1e      	ldr	r3, [pc, #120]	; (1904 <task::_scheduler()+0x90>)
    188c:	6818      	ldr	r0, [r3, #0]
    188e:	685b      	ldr	r3, [r3, #4]
    1890:	4288      	cmp	r0, r1
    1892:	4193      	sbcs	r3, r2
    1894:	d316      	bcc.n	18c4 <task::_scheduler()+0x50>
    1896:	2300      	movs	r3, #0
    1898:	7563      	strb	r3, [r4, #21]
    189a:	e013      	b.n	18c4 <task::_scheduler()+0x50>
    189c:	6aa0      	ldr	r0, [r4, #40]	; 0x28
    189e:	6803      	ldr	r3, [r0, #0]
    18a0:	689b      	ldr	r3, [r3, #8]
    18a2:	4798      	blx	r3
    18a4:	b988      	cbnz	r0, 18ca <task::_scheduler()+0x56>
    18a6:	2300      	movs	r3, #0
    18a8:	7563      	strb	r3, [r4, #21]
    18aa:	e00e      	b.n	18ca <task::_scheduler()+0x56>
    18ac:	6be4      	ldr	r4, [r4, #60]	; 0x3c
    18ae:	3501      	adds	r5, #1
    18b0:	b2ad      	uxth	r5, r5
    18b2:	4b15      	ldr	r3, [pc, #84]	; (1908 <task::_scheduler()+0x94>)
    18b4:	689b      	ldr	r3, [r3, #8]
    18b6:	429d      	cmp	r5, r3
    18b8:	da0f      	bge.n	18da <task::_scheduler()+0x66>
    18ba:	f894 8014 	ldrb.w	r8, [r4, #20]
    18be:	7d63      	ldrb	r3, [r4, #21]
    18c0:	2b01      	cmp	r3, #1
    18c2:	d0e0      	beq.n	1886 <task::_scheduler()+0x12>
    18c4:	7d63      	ldrb	r3, [r4, #21]
    18c6:	2b03      	cmp	r3, #3
    18c8:	d0e8      	beq.n	189c <task::_scheduler()+0x28>
    18ca:	7d63      	ldrb	r3, [r4, #21]
    18cc:	2b00      	cmp	r3, #0
    18ce:	d1ed      	bne.n	18ac <task::_scheduler()+0x38>
    18d0:	4546      	cmp	r6, r8
    18d2:	d2eb      	bcs.n	18ac <task::_scheduler()+0x38>
    18d4:	4646      	mov	r6, r8
    18d6:	4627      	mov	r7, r4
    18d8:	e7e8      	b.n	18ac <task::_scheduler()+0x38>
    18da:	b14f      	cbz	r7, 18f0 <task::_scheduler()+0x7c>
    18dc:	4b08      	ldr	r3, [pc, #32]	; (1900 <task::_scheduler()+0x8c>)
    18de:	681b      	ldr	r3, [r3, #0]
    18e0:	42bb      	cmp	r3, r7
    18e2:	d003      	beq.n	18ec <task::_scheduler()+0x78>
    18e4:	4b09      	ldr	r3, [pc, #36]	; (190c <task::_scheduler()+0x98>)
    18e6:	601f      	str	r7, [r3, #0]
    18e8:	f000 faf8 	bl	1edc <task::_context_switch()>
    18ec:	e8bd 81f0 	ldmia.w	sp!, {r4, r5, r6, r7, r8, pc}
    18f0:	4b07      	ldr	r3, [pc, #28]	; (1910 <task::_scheduler()+0x9c>)
    18f2:	4a08      	ldr	r2, [pc, #32]	; (1914 <task::_scheduler()+0xa0>)
    18f4:	601a      	str	r2, [r3, #0]
    18f6:	4b08      	ldr	r3, [pc, #32]	; (1918 <task::_scheduler()+0xa4>)
    18f8:	22bf      	movs	r2, #191	; 0xbf
    18fa:	601a      	str	r2, [r3, #0]
    18fc:	f7ff ff4a 	bl	1794 <yahal_assert_func()>
    1900:	20000c58 	.word	0x20000c58
    1904:	200006f0 	.word	0x200006f0
    1908:	20000c4c 	.word	0x20000c4c
    190c:	20000c5c 	.word	0x20000c5c
    1910:	20000710 	.word	0x20000710
    1914:	00013f40 	.word	0x00013f40
    1918:	20000724 	.word	0x20000724

0000191c <task::_tick_handler()>:
    191c:	b508      	push	{r3, lr}
    191e:	4a08      	ldr	r2, [pc, #32]	; (1940 <task::_tick_handler()+0x24>)
    1920:	6813      	ldr	r3, [r2, #0]
    1922:	6851      	ldr	r1, [r2, #4]
    1924:	3301      	adds	r3, #1
    1926:	f141 0100 	adc.w	r1, r1, #0
    192a:	6013      	str	r3, [r2, #0]
    192c:	6051      	str	r1, [r2, #4]
    192e:	4b05      	ldr	r3, [pc, #20]	; (1944 <task::_tick_handler()+0x28>)
    1930:	681a      	ldr	r2, [r3, #0]
    1932:	6993      	ldr	r3, [r2, #24]
    1934:	3301      	adds	r3, #1
    1936:	6193      	str	r3, [r2, #24]
    1938:	f7ff ff9c 	bl	1874 <task::_scheduler()>
    193c:	bd08      	pop	{r3, pc}
    193e:	bf00      	nop
    1940:	200006f0 	.word	0x200006f0
    1944:	20000c58 	.word	0x20000c58

00001948 <task::run()>:
    1948:	b508      	push	{r3, lr}
    194a:	3044      	adds	r0, #68	; 0x44
    194c:	f7ff f994 	bl	c78 <std::function<void ()>::operator()() const>
    1950:	bd08      	pop	{r3, pc}

00001952 <circular_list<task>::push_back(task*)>:
    1952:	6843      	ldr	r3, [r0, #4]
    1954:	b17b      	cbz	r3, 1976 <circular_list<task>::push_back(task*)+0x24>
    1956:	6803      	ldr	r3, [r0, #0]
    1958:	63cb      	str	r3, [r1, #60]	; 0x3c
    195a:	6843      	ldr	r3, [r0, #4]
    195c:	640b      	str	r3, [r1, #64]	; 0x40
    195e:	6803      	ldr	r3, [r0, #0]
    1960:	6419      	str	r1, [r3, #64]	; 0x40
    1962:	6843      	ldr	r3, [r0, #4]
    1964:	63d9      	str	r1, [r3, #60]	; 0x3c
    1966:	6041      	str	r1, [r0, #4]
    1968:	2301      	movs	r3, #1
    196a:	f881 3038 	strb.w	r3, [r1, #56]	; 0x38
    196e:	6883      	ldr	r3, [r0, #8]
    1970:	3301      	adds	r3, #1
    1972:	6083      	str	r3, [r0, #8]
    1974:	4770      	bx	lr
    1976:	63c9      	str	r1, [r1, #60]	; 0x3c
    1978:	6409      	str	r1, [r1, #64]	; 0x40
    197a:	6041      	str	r1, [r0, #4]
    197c:	6001      	str	r1, [r0, #0]
    197e:	e7f3      	b.n	1968 <circular_list<task>::push_back(task*)+0x16>

00001980 <task::start(unsigned short, bool)>:
    1980:	b538      	push	{r3, r4, r5, lr}
    1982:	b131      	cbz	r1, 1992 <task::start(unsigned short, bool)+0x12>
    1984:	4604      	mov	r4, r0
    1986:	460d      	mov	r5, r1
    1988:	f890 3038 	ldrb.w	r3, [r0, #56]	; 0x38
    198c:	b90b      	cbnz	r3, 1992 <task::start(unsigned short, bool)+0x12>
    198e:	2300      	movs	r3, #0
    1990:	e00e      	b.n	19b0 <task::start(unsigned short, bool)+0x30>
    1992:	4b14      	ldr	r3, [pc, #80]	; (19e4 <task::start(unsigned short, bool)+0x64>)
    1994:	4a14      	ldr	r2, [pc, #80]	; (19e8 <task::start(unsigned short, bool)+0x68>)
    1996:	601a      	str	r2, [r3, #0]
    1998:	4b14      	ldr	r3, [pc, #80]	; (19ec <task::start(unsigned short, bool)+0x6c>)
    199a:	2242      	movs	r2, #66	; 0x42
    199c:	601a      	str	r2, [r3, #0]
    199e:	f7ff fef9 	bl	1794 <yahal_assert_func()>
    19a2:	6ae0      	ldr	r0, [r4, #44]	; 0x2c
    19a4:	f04f 0ca5 	mov.w	ip, #165	; 0xa5
    19a8:	f800 c003 	strb.w	ip, [r0, r3]
    19ac:	3301      	adds	r3, #1
    19ae:	b29b      	uxth	r3, r3
    19b0:	8e20      	ldrh	r0, [r4, #48]	; 0x30
    19b2:	4298      	cmp	r0, r3
    19b4:	d8f5      	bhi.n	19a2 <task::start(unsigned short, bool)+0x22>
    19b6:	4611      	mov	r1, r2
    19b8:	4620      	mov	r0, r4
    19ba:	f000 fa6b 	bl	1e94 <task::_setup_stack(bool)>
    19be:	7525      	strb	r5, [r4, #20]
    19c0:	2300      	movs	r3, #0
    19c2:	7563      	strb	r3, [r4, #21]
    19c4:	61a3      	str	r3, [r4, #24]
    19c6:	61e3      	str	r3, [r4, #28]
    19c8:	2000      	movs	r0, #0
    19ca:	2100      	movs	r1, #0
    19cc:	e9c4 0108 	strd	r0, r1, [r4, #32]
    19d0:	62a3      	str	r3, [r4, #40]	; 0x28
    19d2:	f000 fab5 	bl	1f40 <task::enterCritical()>
    19d6:	4621      	mov	r1, r4
    19d8:	4805      	ldr	r0, [pc, #20]	; (19f0 <task::start(unsigned short, bool)+0x70>)
    19da:	f7ff ffba 	bl	1952 <circular_list<task>::push_back(task*)>
    19de:	f000 fab4 	bl	1f4a <task::leaveCritical()>
    19e2:	bd38      	pop	{r3, r4, r5, pc}
    19e4:	20000710 	.word	0x20000710
    19e8:	00013f40 	.word	0x00013f40
    19ec:	20000724 	.word	0x20000724
    19f0:	20000c4c 	.word	0x20000c4c

000019f4 <circular_list<task>::remove(task*)>:
    19f4:	6883      	ldr	r3, [r0, #8]
    19f6:	2b01      	cmp	r3, #1
    19f8:	d011      	beq.n	1a1e <circular_list<task>::remove(task*)+0x2a>
    19fa:	6c0a      	ldr	r2, [r1, #64]	; 0x40
    19fc:	6bcb      	ldr	r3, [r1, #60]	; 0x3c
    19fe:	63d3      	str	r3, [r2, #60]	; 0x3c
    1a00:	6c0a      	ldr	r2, [r1, #64]	; 0x40
    1a02:	641a      	str	r2, [r3, #64]	; 0x40
    1a04:	6803      	ldr	r3, [r0, #0]
    1a06:	428b      	cmp	r3, r1
    1a08:	d00d      	beq.n	1a26 <circular_list<task>::remove(task*)+0x32>
    1a0a:	6843      	ldr	r3, [r0, #4]
    1a0c:	428b      	cmp	r3, r1
    1a0e:	d00d      	beq.n	1a2c <circular_list<task>::remove(task*)+0x38>
    1a10:	2300      	movs	r3, #0
    1a12:	f881 3038 	strb.w	r3, [r1, #56]	; 0x38
    1a16:	6883      	ldr	r3, [r0, #8]
    1a18:	3b01      	subs	r3, #1
    1a1a:	6083      	str	r3, [r0, #8]
    1a1c:	4770      	bx	lr
    1a1e:	2300      	movs	r3, #0
    1a20:	6003      	str	r3, [r0, #0]
    1a22:	6043      	str	r3, [r0, #4]
    1a24:	e7f4      	b.n	1a10 <circular_list<task>::remove(task*)+0x1c>
    1a26:	6bcb      	ldr	r3, [r1, #60]	; 0x3c
    1a28:	6003      	str	r3, [r0, #0]
    1a2a:	e7ee      	b.n	1a0a <circular_list<task>::remove(task*)+0x16>
    1a2c:	6c0b      	ldr	r3, [r1, #64]	; 0x40
    1a2e:	6043      	str	r3, [r0, #4]
    1a30:	e7ee      	b.n	1a10 <circular_list<task>::remove(task*)+0x1c>
	...

00001a34 <task::stop()>:
    1a34:	f890 3038 	ldrb.w	r3, [r0, #56]	; 0x38
    1a38:	b903      	cbnz	r3, 1a3c <task::stop()+0x8>
    1a3a:	4770      	bx	lr
    1a3c:	b510      	push	{r4, lr}
    1a3e:	4604      	mov	r4, r0
    1a40:	f000 fa7e 	bl	1f40 <task::enterCritical()>
    1a44:	4621      	mov	r1, r4
    1a46:	4804      	ldr	r0, [pc, #16]	; (1a58 <task::stop()+0x24>)
    1a48:	f7ff ffd4 	bl	19f4 <circular_list<task>::remove(task*)>
    1a4c:	f000 fa7d 	bl	1f4a <task::leaveCritical()>
    1a50:	f000 fa6e 	bl	1f30 <task::yield()>
    1a54:	bd10      	pop	{r4, pc}
    1a56:	bf00      	nop
    1a58:	20000c4c 	.word	0x20000c4c

00001a5c <task::~task()>:
    1a5c:	b510      	push	{r4, lr}
    1a5e:	4604      	mov	r4, r0
    1a60:	4b07      	ldr	r3, [pc, #28]	; (1a80 <task::~task()+0x24>)
    1a62:	6003      	str	r3, [r0, #0]
    1a64:	f7ff ffe6 	bl	1a34 <task::stop()>
    1a68:	6ae0      	ldr	r0, [r4, #44]	; 0x2c
    1a6a:	b108      	cbz	r0, 1a70 <task::~task()+0x14>
    1a6c:	f000 fb2c 	bl	20c8 <operator delete[](void*)>
    1a70:	2300      	movs	r3, #0
    1a72:	62e3      	str	r3, [r4, #44]	; 0x2c
    1a74:	f104 0044 	add.w	r0, r4, #68	; 0x44
    1a78:	f7fe ff62 	bl	940 <std::_Function_base::~_Function_base()>
    1a7c:	4620      	mov	r0, r4
    1a7e:	bd10      	pop	{r4, pc}
    1a80:	00013f88 	.word	0x00013f88

00001a84 <task::~task()>:
    1a84:	b510      	push	{r4, lr}
    1a86:	4604      	mov	r4, r0
    1a88:	f7ff ffe8 	bl	1a5c <task::~task()>
    1a8c:	2158      	movs	r1, #88	; 0x58
    1a8e:	4620      	mov	r0, r4
    1a90:	f000 fb18 	bl	20c4 <operator delete(void*, unsigned int)>
    1a94:	4620      	mov	r0, r4
    1a96:	bd10      	pop	{r4, pc}

00001a98 <task::_run()>:
    1a98:	b510      	push	{r4, lr}
    1a9a:	4604      	mov	r4, r0
    1a9c:	6803      	ldr	r3, [r0, #0]
    1a9e:	689b      	ldr	r3, [r3, #8]
    1aa0:	4798      	blx	r3
    1aa2:	4620      	mov	r0, r4
    1aa4:	f7ff ffc6 	bl	1a34 <task::stop()>
    1aa8:	bd10      	pop	{r4, pc}

00001aaa <_GLOBAL__sub_I__ZN4task9_up_ticksE>:
    1aaa:	b508      	push	{r3, lr}
    1aac:	f64f 71ff 	movw	r1, #65535	; 0xffff
    1ab0:	2001      	movs	r0, #1
    1ab2:	f7ff fe71 	bl	1798 <__static_initialization_and_destruction_0(int, int)>
    1ab6:	bd08      	pop	{r3, pc}

00001ab8 <__yahal_bad_function_call>:
    1ab8:	e7fe      	b.n	1ab8 <__yahal_bad_function_call>
	...

00001abc <__static_initialization_and_destruction_0(int, int)>:
    1abc:	2801      	cmp	r0, #1
    1abe:	d000      	beq.n	1ac2 <__static_initialization_and_destruction_0(int, int)+0x6>
    1ac0:	4770      	bx	lr
    1ac2:	f64f 73ff 	movw	r3, #65535	; 0xffff
    1ac6:	4299      	cmp	r1, r3
    1ac8:	d1fa      	bne.n	1ac0 <__static_initialization_and_destruction_0(int, int)+0x4>
    1aca:	4b05      	ldr	r3, [pc, #20]	; (1ae0 <__static_initialization_and_destruction_0(int, int)+0x24>)
    1acc:	2200      	movs	r2, #0
    1ace:	601a      	str	r2, [r3, #0]
    1ad0:	605a      	str	r2, [r3, #4]
    1ad2:	609a      	str	r2, [r3, #8]
    1ad4:	60da      	str	r2, [r3, #12]
    1ad6:	741a      	strb	r2, [r3, #16]
    1ad8:	745a      	strb	r2, [r3, #17]
    1ada:	749a      	strb	r2, [r3, #18]
    1adc:	e7f0      	b.n	1ac0 <__static_initialization_and_destruction_0(int, int)+0x4>
    1ade:	bf00      	nop
    1ae0:	20000c60 	.word	0x20000c60

00001ae4 <_read>:
    1ae4:	b5f8      	push	{r3, r4, r5, r6, r7, lr}
    1ae6:	460f      	mov	r7, r1
    1ae8:	4616      	mov	r6, r2
    1aea:	4604      	mov	r4, r0
    1aec:	b178      	cbz	r0, 1b0e <_read+0x2a>
    1aee:	4b19      	ldr	r3, [pc, #100]	; (1b54 <_read+0x70>)
    1af0:	68d8      	ldr	r0, [r3, #12]
    1af2:	2800      	cmp	r0, #0
    1af4:	d02b      	beq.n	1b4e <_read+0x6a>
    1af6:	6803      	ldr	r3, [r0, #0]
    1af8:	681d      	ldr	r5, [r3, #0]
    1afa:	4613      	mov	r3, r2
    1afc:	460a      	mov	r2, r1
    1afe:	4621      	mov	r1, r4
    1b00:	47a8      	blx	r5
    1b02:	bdf8      	pop	{r3, r4, r5, r6, r7, pc}
    1b04:	2500      	movs	r5, #0
    1b06:	553d      	strb	r5, [r7, r4]
    1b08:	2d0d      	cmp	r5, #13
    1b0a:	d01c      	beq.n	1b46 <_read+0x62>
    1b0c:	3401      	adds	r4, #1
    1b0e:	42b4      	cmp	r4, r6
    1b10:	da1b      	bge.n	1b4a <_read+0x66>
    1b12:	4810      	ldr	r0, [pc, #64]	; (1b54 <_read+0x70>)
    1b14:	6800      	ldr	r0, [r0, #0]
    1b16:	2800      	cmp	r0, #0
    1b18:	d0f4      	beq.n	1b04 <_read+0x20>
    1b1a:	6803      	ldr	r3, [r0, #0]
    1b1c:	685b      	ldr	r3, [r3, #4]
    1b1e:	4798      	blx	r3
    1b20:	4605      	mov	r5, r0
    1b22:	4b0c      	ldr	r3, [pc, #48]	; (1b54 <_read+0x70>)
    1b24:	7c1b      	ldrb	r3, [r3, #16]
    1b26:	2b00      	cmp	r3, #0
    1b28:	d0ed      	beq.n	1b06 <_read+0x22>
    1b2a:	4b0a      	ldr	r3, [pc, #40]	; (1b54 <_read+0x70>)
    1b2c:	6858      	ldr	r0, [r3, #4]
    1b2e:	2800      	cmp	r0, #0
    1b30:	d0e9      	beq.n	1b06 <_read+0x22>
    1b32:	6803      	ldr	r3, [r0, #0]
    1b34:	689b      	ldr	r3, [r3, #8]
    1b36:	4629      	mov	r1, r5
    1b38:	4798      	blx	r3
    1b3a:	4b07      	ldr	r3, [pc, #28]	; (1b58 <_read+0x74>)
    1b3c:	681b      	ldr	r3, [r3, #0]
    1b3e:	6898      	ldr	r0, [r3, #8]
    1b40:	f008 ff3e 	bl	a9c0 <fflush>
    1b44:	e7df      	b.n	1b06 <_read+0x22>
    1b46:	1c60      	adds	r0, r4, #1
    1b48:	e7db      	b.n	1b02 <_read+0x1e>
    1b4a:	4620      	mov	r0, r4
    1b4c:	e7d9      	b.n	1b02 <_read+0x1e>
    1b4e:	2000      	movs	r0, #0
    1b50:	e7d7      	b.n	1b02 <_read+0x1e>
    1b52:	bf00      	nop
    1b54:	20000c60 	.word	0x20000c60
    1b58:	2000045c 	.word	0x2000045c

00001b5c <_write>:
    1b5c:	b5f0      	push	{r4, r5, r6, r7, lr}
    1b5e:	b085      	sub	sp, #20
    1b60:	460e      	mov	r6, r1
    1b62:	4615      	mov	r5, r2
    1b64:	2801      	cmp	r0, #1
    1b66:	d026      	beq.n	1bb6 <_write+0x5a>
    1b68:	4604      	mov	r4, r0
    1b6a:	2802      	cmp	r0, #2
    1b6c:	d028      	beq.n	1bc0 <_write+0x64>
    1b6e:	4b38      	ldr	r3, [pc, #224]	; (1c50 <_write+0xf4>)
    1b70:	68d8      	ldr	r0, [r3, #12]
    1b72:	2800      	cmp	r0, #0
    1b74:	d069      	beq.n	1c4a <_write+0xee>
    1b76:	6803      	ldr	r3, [r0, #0]
    1b78:	685f      	ldr	r7, [r3, #4]
    1b7a:	4613      	mov	r3, r2
    1b7c:	460a      	mov	r2, r1
    1b7e:	4621      	mov	r1, r4
    1b80:	47b8      	blx	r7
    1b82:	e01b      	b.n	1bbc <_write+0x60>
    1b84:	3401      	adds	r4, #1
    1b86:	42ac      	cmp	r4, r5
    1b88:	da17      	bge.n	1bba <_write+0x5e>
    1b8a:	4b31      	ldr	r3, [pc, #196]	; (1c50 <_write+0xf4>)
    1b8c:	6858      	ldr	r0, [r3, #4]
    1b8e:	2800      	cmp	r0, #0
    1b90:	d0f8      	beq.n	1b84 <_write+0x28>
    1b92:	6803      	ldr	r3, [r0, #0]
    1b94:	689b      	ldr	r3, [r3, #8]
    1b96:	5d31      	ldrb	r1, [r6, r4]
    1b98:	4798      	blx	r3
    1b9a:	4b2d      	ldr	r3, [pc, #180]	; (1c50 <_write+0xf4>)
    1b9c:	7c5b      	ldrb	r3, [r3, #17]
    1b9e:	2b00      	cmp	r3, #0
    1ba0:	d0f0      	beq.n	1b84 <_write+0x28>
    1ba2:	5d33      	ldrb	r3, [r6, r4]
    1ba4:	2b0a      	cmp	r3, #10
    1ba6:	d1ed      	bne.n	1b84 <_write+0x28>
    1ba8:	4b29      	ldr	r3, [pc, #164]	; (1c50 <_write+0xf4>)
    1baa:	6858      	ldr	r0, [r3, #4]
    1bac:	6803      	ldr	r3, [r0, #0]
    1bae:	689b      	ldr	r3, [r3, #8]
    1bb0:	210d      	movs	r1, #13
    1bb2:	4798      	blx	r3
    1bb4:	e7e6      	b.n	1b84 <_write+0x28>
    1bb6:	2400      	movs	r4, #0
    1bb8:	e7e5      	b.n	1b86 <_write+0x2a>
    1bba:	4628      	mov	r0, r5
    1bbc:	b005      	add	sp, #20
    1bbe:	bdf0      	pop	{r4, r5, r6, r7, pc}
    1bc0:	4b23      	ldr	r3, [pc, #140]	; (1c50 <_write+0xf4>)
    1bc2:	689b      	ldr	r3, [r3, #8]
    1bc4:	2b00      	cmp	r3, #0
    1bc6:	d03e      	beq.n	1c46 <_write+0xea>
    1bc8:	4b22      	ldr	r3, [pc, #136]	; (1c54 <_write+0xf8>)
    1bca:	e893 0003 	ldmia.w	r3, {r0, r1}
    1bce:	9002      	str	r0, [sp, #8]
    1bd0:	f8ad 100c 	strh.w	r1, [sp, #12]
    1bd4:	4b20      	ldr	r3, [pc, #128]	; (1c58 <_write+0xfc>)
    1bd6:	e893 0003 	ldmia.w	r3, {r0, r1}
    1bda:	9000      	str	r0, [sp, #0]
    1bdc:	f88d 1004 	strb.w	r1, [sp, #4]
    1be0:	ac02      	add	r4, sp, #8
    1be2:	e005      	b.n	1bf0 <_write+0x94>
    1be4:	4b1a      	ldr	r3, [pc, #104]	; (1c50 <_write+0xf4>)
    1be6:	6898      	ldr	r0, [r3, #8]
    1be8:	3401      	adds	r4, #1
    1bea:	6803      	ldr	r3, [r0, #0]
    1bec:	689b      	ldr	r3, [r3, #8]
    1bee:	4798      	blx	r3
    1bf0:	7821      	ldrb	r1, [r4, #0]
    1bf2:	2900      	cmp	r1, #0
    1bf4:	d1f6      	bne.n	1be4 <_write+0x88>
    1bf6:	2400      	movs	r4, #0
    1bf8:	e000      	b.n	1bfc <_write+0xa0>
    1bfa:	3401      	adds	r4, #1
    1bfc:	42ac      	cmp	r4, r5
    1bfe:	da15      	bge.n	1c2c <_write+0xd0>
    1c00:	4b13      	ldr	r3, [pc, #76]	; (1c50 <_write+0xf4>)
    1c02:	6898      	ldr	r0, [r3, #8]
    1c04:	2800      	cmp	r0, #0
    1c06:	d0f8      	beq.n	1bfa <_write+0x9e>
    1c08:	6803      	ldr	r3, [r0, #0]
    1c0a:	689b      	ldr	r3, [r3, #8]
    1c0c:	5d31      	ldrb	r1, [r6, r4]
    1c0e:	4798      	blx	r3
    1c10:	4b0f      	ldr	r3, [pc, #60]	; (1c50 <_write+0xf4>)
    1c12:	7c9b      	ldrb	r3, [r3, #18]
    1c14:	2b00      	cmp	r3, #0
    1c16:	d0f0      	beq.n	1bfa <_write+0x9e>
    1c18:	5d33      	ldrb	r3, [r6, r4]
    1c1a:	2b0a      	cmp	r3, #10
    1c1c:	d1ed      	bne.n	1bfa <_write+0x9e>
    1c1e:	4b0c      	ldr	r3, [pc, #48]	; (1c50 <_write+0xf4>)
    1c20:	6898      	ldr	r0, [r3, #8]
    1c22:	6803      	ldr	r3, [r0, #0]
    1c24:	689b      	ldr	r3, [r3, #8]
    1c26:	210d      	movs	r1, #13
    1c28:	4798      	blx	r3
    1c2a:	e7e6      	b.n	1bfa <_write+0x9e>
    1c2c:	466c      	mov	r4, sp
    1c2e:	e005      	b.n	1c3c <_write+0xe0>
    1c30:	4b07      	ldr	r3, [pc, #28]	; (1c50 <_write+0xf4>)
    1c32:	6898      	ldr	r0, [r3, #8]
    1c34:	3401      	adds	r4, #1
    1c36:	6803      	ldr	r3, [r0, #0]
    1c38:	689b      	ldr	r3, [r3, #8]
    1c3a:	4798      	blx	r3
    1c3c:	7821      	ldrb	r1, [r4, #0]
    1c3e:	2900      	cmp	r1, #0
    1c40:	d1f6      	bne.n	1c30 <_write+0xd4>
    1c42:	4628      	mov	r0, r5
    1c44:	e7ba      	b.n	1bbc <_write+0x60>
    1c46:	4610      	mov	r0, r2
    1c48:	e7b8      	b.n	1bbc <_write+0x60>
    1c4a:	2000      	movs	r0, #0
    1c4c:	e7b6      	b.n	1bbc <_write+0x60>
    1c4e:	bf00      	nop
    1c50:	20000c60 	.word	0x20000c60
    1c54:	00013f94 	.word	0x00013f94
    1c58:	00013f9c 	.word	0x00013f9c

00001c5c <_close>:
    1c5c:	b508      	push	{r3, lr}
    1c5e:	4601      	mov	r1, r0
    1c60:	4b06      	ldr	r3, [pc, #24]	; (1c7c <_close+0x20>)
    1c62:	68d8      	ldr	r0, [r3, #12]
    1c64:	b118      	cbz	r0, 1c6e <_close+0x12>
    1c66:	6803      	ldr	r3, [r0, #0]
    1c68:	68db      	ldr	r3, [r3, #12]
    1c6a:	4798      	blx	r3
    1c6c:	bd08      	pop	{r3, pc}
    1c6e:	f009 fed7 	bl	ba20 <__errno>
    1c72:	2309      	movs	r3, #9
    1c74:	6003      	str	r3, [r0, #0]
    1c76:	f04f 30ff 	mov.w	r0, #4294967295
    1c7a:	e7f7      	b.n	1c6c <_close+0x10>
    1c7c:	20000c60 	.word	0x20000c60

00001c80 <_fstat>:
    1c80:	4603      	mov	r3, r0
    1c82:	460a      	mov	r2, r1
    1c84:	4906      	ldr	r1, [pc, #24]	; (1ca0 <_fstat+0x20>)
    1c86:	68c8      	ldr	r0, [r1, #12]
    1c88:	b128      	cbz	r0, 1c96 <_fstat+0x16>
    1c8a:	b510      	push	{r4, lr}
    1c8c:	6801      	ldr	r1, [r0, #0]
    1c8e:	69cc      	ldr	r4, [r1, #28]
    1c90:	4619      	mov	r1, r3
    1c92:	47a0      	blx	r4
    1c94:	bd10      	pop	{r4, pc}
    1c96:	f44f 5300 	mov.w	r3, #8192	; 0x2000
    1c9a:	6053      	str	r3, [r2, #4]
    1c9c:	2000      	movs	r0, #0
    1c9e:	4770      	bx	lr
    1ca0:	20000c60 	.word	0x20000c60

00001ca4 <_lseek>:
    1ca4:	4684      	mov	ip, r0
    1ca6:	4613      	mov	r3, r2
    1ca8:	4a05      	ldr	r2, [pc, #20]	; (1cc0 <_lseek+0x1c>)
    1caa:	68d0      	ldr	r0, [r2, #12]
    1cac:	b130      	cbz	r0, 1cbc <_lseek+0x18>
    1cae:	b510      	push	{r4, lr}
    1cb0:	6802      	ldr	r2, [r0, #0]
    1cb2:	6a14      	ldr	r4, [r2, #32]
    1cb4:	460a      	mov	r2, r1
    1cb6:	4661      	mov	r1, ip
    1cb8:	47a0      	blx	r4
    1cba:	bd10      	pop	{r4, pc}
    1cbc:	2000      	movs	r0, #0
    1cbe:	4770      	bx	lr
    1cc0:	20000c60 	.word	0x20000c60

00001cc4 <_isatty>:
    1cc4:	2802      	cmp	r0, #2
    1cc6:	d90f      	bls.n	1ce8 <_isatty+0x24>
    1cc8:	b508      	push	{r3, lr}
    1cca:	4601      	mov	r1, r0
    1ccc:	4b07      	ldr	r3, [pc, #28]	; (1cec <_isatty+0x28>)
    1cce:	68d8      	ldr	r0, [r3, #12]
    1cd0:	b118      	cbz	r0, 1cda <_isatty+0x16>
    1cd2:	6803      	ldr	r3, [r0, #0]
    1cd4:	6a5b      	ldr	r3, [r3, #36]	; 0x24
    1cd6:	4798      	blx	r3
    1cd8:	bd08      	pop	{r3, pc}
    1cda:	f009 fea1 	bl	ba20 <__errno>
    1cde:	2309      	movs	r3, #9
    1ce0:	6003      	str	r3, [r0, #0]
    1ce2:	f04f 30ff 	mov.w	r0, #4294967295
    1ce6:	e7f7      	b.n	1cd8 <_isatty+0x14>
    1ce8:	2001      	movs	r0, #1
    1cea:	4770      	bx	lr
    1cec:	20000c60 	.word	0x20000c60

00001cf0 <_kill>:
    1cf0:	b508      	push	{r3, lr}
    1cf2:	f009 fe95 	bl	ba20 <__errno>
    1cf6:	2316      	movs	r3, #22
    1cf8:	6003      	str	r3, [r0, #0]
    1cfa:	f04f 30ff 	mov.w	r0, #4294967295
    1cfe:	bd08      	pop	{r3, pc}

00001d00 <_getpid>:
    1d00:	f04f 30ff 	mov.w	r0, #4294967295
    1d04:	4770      	bx	lr
	...

00001d08 <posix_io::register_stdout(uart_interface&, bool)>:
    1d08:	b508      	push	{r3, lr}
    1d0a:	6041      	str	r1, [r0, #4]
    1d0c:	7442      	strb	r2, [r0, #17]
    1d0e:	4b04      	ldr	r3, [pc, #16]	; (1d20 <posix_io::register_stdout(uart_interface&, bool)+0x18>)
    1d10:	6818      	ldr	r0, [r3, #0]
    1d12:	2364      	movs	r3, #100	; 0x64
    1d14:	2201      	movs	r2, #1
    1d16:	2100      	movs	r1, #0
    1d18:	6880      	ldr	r0, [r0, #8]
    1d1a:	f009 fa6f 	bl	b1fc <setvbuf>
    1d1e:	bd08      	pop	{r3, pc}
    1d20:	2000045c 	.word	0x2000045c

00001d24 <_GLOBAL__sub_I__ZN8posix_io4instE>:
    1d24:	b508      	push	{r3, lr}
    1d26:	f64f 71ff 	movw	r1, #65535	; 0xffff
    1d2a:	2001      	movs	r0, #1
    1d2c:	f7ff fec6 	bl	1abc <__static_initialization_and_destruction_0(int, int)>
    1d30:	bd08      	pop	{r3, pc}

00001d32 <irq_dispatcher::link_in()>:
    1d32:	4770      	bx	lr

00001d34 <Default_EUSCI_Handler>:
    1d34:	e7fe      	b.n	1d34 <Default_EUSCI_Handler>
	...

00001d38 <EUSCIA0_IRQHandler>:
    1d38:	b508      	push	{r3, lr}
    1d3a:	4b05      	ldr	r3, [pc, #20]	; (1d50 <EUSCIA0_IRQHandler+0x18>)
    1d3c:	881b      	ldrh	r3, [r3, #0]
    1d3e:	f413 7f80 	tst.w	r3, #256	; 0x100
    1d42:	d002      	beq.n	1d4a <EUSCIA0_IRQHandler+0x12>
    1d44:	f7ff fff6 	bl	1d34 <Default_EUSCI_Handler>
    1d48:	bd08      	pop	{r3, pc}
    1d4a:	f7ff fb17 	bl	137c <EUSCIA0_UART_IRQHandler>
    1d4e:	e7fb      	b.n	1d48 <EUSCIA0_IRQHandler+0x10>
    1d50:	40001000 	.word	0x40001000

00001d54 <EUSCIA1_IRQHandler>:
    1d54:	b508      	push	{r3, lr}
    1d56:	4b05      	ldr	r3, [pc, #20]	; (1d6c <EUSCIA1_IRQHandler+0x18>)
    1d58:	881b      	ldrh	r3, [r3, #0]
    1d5a:	f413 7f80 	tst.w	r3, #256	; 0x100
    1d5e:	d002      	beq.n	1d66 <EUSCIA1_IRQHandler+0x12>
    1d60:	f7ff ffe8 	bl	1d34 <Default_EUSCI_Handler>
    1d64:	bd08      	pop	{r3, pc}
    1d66:	f7ff fb11 	bl	138c <EUSCIA1_UART_IRQHandler>
    1d6a:	e7fb      	b.n	1d64 <EUSCIA1_IRQHandler+0x10>
    1d6c:	40001400 	.word	0x40001400

00001d70 <EUSCIA2_IRQHandler>:
    1d70:	b508      	push	{r3, lr}
    1d72:	4b05      	ldr	r3, [pc, #20]	; (1d88 <EUSCIA2_IRQHandler+0x18>)
    1d74:	881b      	ldrh	r3, [r3, #0]
    1d76:	f413 7f80 	tst.w	r3, #256	; 0x100
    1d7a:	d002      	beq.n	1d82 <EUSCIA2_IRQHandler+0x12>
    1d7c:	f7ff ffda 	bl	1d34 <Default_EUSCI_Handler>
    1d80:	bd08      	pop	{r3, pc}
    1d82:	f7ff fb0b 	bl	139c <EUSCIA2_UART_IRQHandler>
    1d86:	e7fb      	b.n	1d80 <EUSCIA2_IRQHandler+0x10>
    1d88:	40001800 	.word	0x40001800

00001d8c <EUSCIA3_IRQHandler>:
    1d8c:	b508      	push	{r3, lr}
    1d8e:	4b05      	ldr	r3, [pc, #20]	; (1da4 <EUSCIA3_IRQHandler+0x18>)
    1d90:	881b      	ldrh	r3, [r3, #0]
    1d92:	f413 7f80 	tst.w	r3, #256	; 0x100
    1d96:	d002      	beq.n	1d9e <EUSCIA3_IRQHandler+0x12>
    1d98:	f7ff ffcc 	bl	1d34 <Default_EUSCI_Handler>
    1d9c:	bd08      	pop	{r3, pc}
    1d9e:	f7ff fb05 	bl	13ac <EUSCIA3_UART_IRQHandler>
    1da2:	e7fb      	b.n	1d9c <EUSCIA3_IRQHandler+0x10>
    1da4:	40001c00 	.word	0x40001c00

00001da8 <EUSCIB0_IRQHandler>:
    1da8:	b508      	push	{r3, lr}
    1daa:	4b06      	ldr	r3, [pc, #24]	; (1dc4 <EUSCIB0_IRQHandler+0x1c>)
    1dac:	881b      	ldrh	r3, [r3, #0]
    1dae:	f403 63c0 	and.w	r3, r3, #1536	; 0x600
    1db2:	f5b3 6fc0 	cmp.w	r3, #1536	; 0x600
    1db6:	d002      	beq.n	1dbe <EUSCIB0_IRQHandler+0x16>
    1db8:	f7ff ffbc 	bl	1d34 <Default_EUSCI_Handler>
    1dbc:	bd08      	pop	{r3, pc}
    1dbe:	f7ff ffb9 	bl	1d34 <Default_EUSCI_Handler>
    1dc2:	e7fb      	b.n	1dbc <EUSCIB0_IRQHandler+0x14>
    1dc4:	40002000 	.word	0x40002000

00001dc8 <EUSCIB1_IRQHandler>:
    1dc8:	b508      	push	{r3, lr}
    1dca:	4b06      	ldr	r3, [pc, #24]	; (1de4 <EUSCIB1_IRQHandler+0x1c>)
    1dcc:	881b      	ldrh	r3, [r3, #0]
    1dce:	f403 63c0 	and.w	r3, r3, #1536	; 0x600
    1dd2:	f5b3 6fc0 	cmp.w	r3, #1536	; 0x600
    1dd6:	d002      	beq.n	1dde <EUSCIB1_IRQHandler+0x16>
    1dd8:	f7ff ffac 	bl	1d34 <Default_EUSCI_Handler>
    1ddc:	bd08      	pop	{r3, pc}
    1dde:	f7ff ffa9 	bl	1d34 <Default_EUSCI_Handler>
    1de2:	e7fb      	b.n	1ddc <EUSCIB1_IRQHandler+0x14>
    1de4:	40002400 	.word	0x40002400

00001de8 <EUSCIB2_IRQHandler>:
    1de8:	b508      	push	{r3, lr}
    1dea:	4b06      	ldr	r3, [pc, #24]	; (1e04 <EUSCIB2_IRQHandler+0x1c>)
    1dec:	881b      	ldrh	r3, [r3, #0]
    1dee:	f403 63c0 	and.w	r3, r3, #1536	; 0x600
    1df2:	f5b3 6fc0 	cmp.w	r3, #1536	; 0x600
    1df6:	d002      	beq.n	1dfe <EUSCIB2_IRQHandler+0x16>
    1df8:	f7ff ff9c 	bl	1d34 <Default_EUSCI_Handler>
    1dfc:	bd08      	pop	{r3, pc}
    1dfe:	f7ff ff99 	bl	1d34 <Default_EUSCI_Handler>
    1e02:	e7fb      	b.n	1dfc <EUSCIB2_IRQHandler+0x14>
    1e04:	40002800 	.word	0x40002800

00001e08 <EUSCIB3_IRQHandler>:
    1e08:	b508      	push	{r3, lr}
    1e0a:	4b06      	ldr	r3, [pc, #24]	; (1e24 <EUSCIB3_IRQHandler+0x1c>)
    1e0c:	881b      	ldrh	r3, [r3, #0]
    1e0e:	f403 63c0 	and.w	r3, r3, #1536	; 0x600
    1e12:	f5b3 6fc0 	cmp.w	r3, #1536	; 0x600
    1e16:	d002      	beq.n	1e1e <EUSCIB3_IRQHandler+0x16>
    1e18:	f7ff ff8c 	bl	1d34 <Default_EUSCI_Handler>
    1e1c:	bd08      	pop	{r3, pc}
    1e1e:	f7ff ff89 	bl	1d34 <Default_EUSCI_Handler>
    1e22:	e7fb      	b.n	1e1c <EUSCIB3_IRQHandler+0x14>
    1e24:	40002c00 	.word	0x40002c00

00001e28 <yahal_assert_func()>:
    1e28:	e7fe      	b.n	1e28 <yahal_assert_func()>
	...

00001e2c <task_idle::~task_idle()>:
    1e2c:	b510      	push	{r4, lr}
    1e2e:	4604      	mov	r4, r0
    1e30:	4b02      	ldr	r3, [pc, #8]	; (1e3c <task_idle::~task_idle()+0x10>)
    1e32:	6003      	str	r3, [r0, #0]
    1e34:	f7ff fe12 	bl	1a5c <task::~task()>
    1e38:	4620      	mov	r0, r4
    1e3a:	bd10      	pop	{r4, pc}
    1e3c:	00013fac 	.word	0x00013fac

00001e40 <task_idle::~task_idle()>:
    1e40:	b510      	push	{r4, lr}
    1e42:	4604      	mov	r4, r0
    1e44:	4b04      	ldr	r3, [pc, #16]	; (1e58 <task_idle::~task_idle()+0x18>)
    1e46:	6003      	str	r3, [r0, #0]
    1e48:	f7ff fe08 	bl	1a5c <task::~task()>
    1e4c:	2158      	movs	r1, #88	; 0x58
    1e4e:	4620      	mov	r0, r4
    1e50:	f000 f938 	bl	20c4 <operator delete(void*, unsigned int)>
    1e54:	4620      	mov	r0, r4
    1e56:	bd10      	pop	{r4, pc}
    1e58:	00013fac 	.word	0x00013fac

00001e5c <task::_switchToNext()>:
    1e5c:	4b02      	ldr	r3, [pc, #8]	; (1e68 <task::_switchToNext()+0xc>)
    1e5e:	681a      	ldr	r2, [r3, #0]
    1e60:	4b02      	ldr	r3, [pc, #8]	; (1e6c <task::_switchToNext()+0x10>)
    1e62:	601a      	str	r2, [r3, #0]
    1e64:	4770      	bx	lr
    1e66:	bf00      	nop
    1e68:	20000c5c 	.word	0x20000c5c
    1e6c:	20000c58 	.word	0x20000c58

00001e70 <task::_getStackBase()>:
    1e70:	4b01      	ldr	r3, [pc, #4]	; (1e78 <task::_getStackBase()+0x8>)
    1e72:	681b      	ldr	r3, [r3, #0]
    1e74:	6ad8      	ldr	r0, [r3, #44]	; 0x2c
    1e76:	4770      	bx	lr
    1e78:	20000c58 	.word	0x20000c58

00001e7c <task::_getStackPtr()>:
    1e7c:	4b01      	ldr	r3, [pc, #4]	; (1e84 <task::_getStackPtr()+0x8>)
    1e7e:	681b      	ldr	r3, [r3, #0]
    1e80:	6b58      	ldr	r0, [r3, #52]	; 0x34
    1e82:	4770      	bx	lr
    1e84:	20000c58 	.word	0x20000c58

00001e88 <task::_setStackPtr(unsigned char*)>:
    1e88:	4b01      	ldr	r3, [pc, #4]	; (1e90 <task::_setStackPtr(unsigned char*)+0x8>)
    1e8a:	681b      	ldr	r3, [r3, #0]
    1e8c:	6358      	str	r0, [r3, #52]	; 0x34
    1e8e:	4770      	bx	lr
    1e90:	20000c58 	.word	0x20000c58

00001e94 <task::_setup_stack(bool)>:
    1e94:	b538      	push	{r3, r4, r5, lr}
    1e96:	8e03      	ldrh	r3, [r0, #48]	; 0x30
    1e98:	2b44      	cmp	r3, #68	; 0x44
    1e9a:	d90d      	bls.n	1eb8 <task::_setup_stack(bool)+0x24>
    1e9c:	6ac4      	ldr	r4, [r0, #44]	; 0x2c
    1e9e:	3b44      	subs	r3, #68	; 0x44
    1ea0:	18e2      	adds	r2, r4, r3
    1ea2:	6342      	str	r2, [r0, #52]	; 0x34
    1ea4:	f04f 7580 	mov.w	r5, #16777216	; 0x1000000
    1ea8:	6415      	str	r5, [r2, #64]	; 0x40
    1eaa:	4d08      	ldr	r5, [pc, #32]	; (1ecc <task::_setup_stack(bool)+0x38>)
    1eac:	63d5      	str	r5, [r2, #60]	; 0x3c
    1eae:	6250      	str	r0, [r2, #36]	; 0x24
    1eb0:	b151      	cbz	r1, 1ec8 <task::_setup_stack(bool)+0x34>
    1eb2:	2202      	movs	r2, #2
    1eb4:	50e2      	str	r2, [r4, r3]
    1eb6:	bd38      	pop	{r3, r4, r5, pc}
    1eb8:	4b05      	ldr	r3, [pc, #20]	; (1ed0 <task::_setup_stack(bool)+0x3c>)
    1eba:	4a06      	ldr	r2, [pc, #24]	; (1ed4 <task::_setup_stack(bool)+0x40>)
    1ebc:	601a      	str	r2, [r3, #0]
    1ebe:	4b06      	ldr	r3, [pc, #24]	; (1ed8 <task::_setup_stack(bool)+0x44>)
    1ec0:	2249      	movs	r2, #73	; 0x49
    1ec2:	601a      	str	r2, [r3, #0]
    1ec4:	f7ff ffb0 	bl	1e28 <yahal_assert_func()>
    1ec8:	2203      	movs	r2, #3
    1eca:	e7f3      	b.n	1eb4 <task::_setup_stack(bool)+0x20>
    1ecc:	00001a99 	.word	0x00001a99
    1ed0:	20000714 	.word	0x20000714
    1ed4:	00013c80 	.word	0x00013c80
    1ed8:	20000728 	.word	0x20000728

00001edc <task::_context_switch()>:
    1edc:	4a02      	ldr	r2, [pc, #8]	; (1ee8 <task::_context_switch()+0xc>)
    1ede:	6853      	ldr	r3, [r2, #4]
    1ee0:	f043 5380 	orr.w	r3, r3, #268435456	; 0x10000000
    1ee4:	6053      	str	r3, [r2, #4]
    1ee6:	4770      	bx	lr
    1ee8:	e000ed00 	.word	0xe000ed00

00001eec <task::_nonOS_sleep(unsigned long)>:
    1eec:	4b0e      	ldr	r3, [pc, #56]	; (1f28 <task::_nonOS_sleep(unsigned long)+0x3c>)
    1eee:	681b      	ldr	r3, [r3, #0]
    1ef0:	4a0e      	ldr	r2, [pc, #56]	; (1f2c <task::_nonOS_sleep(unsigned long)+0x40>)
    1ef2:	fba2 2303 	umull	r2, r3, r2, r3
    1ef6:	099b      	lsrs	r3, r3, #6
    1ef8:	3b01      	subs	r3, #1
    1efa:	f04f 21e0 	mov.w	r1, #3758153728	; 0xe000e000
    1efe:	614b      	str	r3, [r1, #20]
    1f00:	2200      	movs	r2, #0
    1f02:	618a      	str	r2, [r1, #24]
    1f04:	2305      	movs	r3, #5
    1f06:	610b      	str	r3, [r1, #16]
    1f08:	e006      	b.n	1f18 <task::_nonOS_sleep(unsigned long)+0x2c>
    1f0a:	f04f 23e0 	mov.w	r3, #3758153728	; 0xe000e000
    1f0e:	691b      	ldr	r3, [r3, #16]
    1f10:	f413 3f80 	tst.w	r3, #65536	; 0x10000
    1f14:	d0f9      	beq.n	1f0a <task::_nonOS_sleep(unsigned long)+0x1e>
    1f16:	3201      	adds	r2, #1
    1f18:	4282      	cmp	r2, r0
    1f1a:	d3f6      	bcc.n	1f0a <task::_nonOS_sleep(unsigned long)+0x1e>
    1f1c:	f04f 23e0 	mov.w	r3, #3758153728	; 0xe000e000
    1f20:	2200      	movs	r2, #0
    1f22:	611a      	str	r2, [r3, #16]
    1f24:	4770      	bx	lr
    1f26:	bf00      	nop
    1f28:	20000030 	.word	0x20000030
    1f2c:	10624dd3 	.word	0x10624dd3

00001f30 <task::yield()>:
    1f30:	df01      	svc	1
    1f32:	4770      	bx	lr

00001f34 <task::cpu_sleep()>:
    1f34:	bf20      	wfe
    1f36:	4770      	bx	lr

00001f38 <task_idle::run()>:
    1f38:	b508      	push	{r3, lr}
    1f3a:	f7ff fffb 	bl	1f34 <task::cpu_sleep()>
    1f3e:	e7fc      	b.n	1f3a <task_idle::run()+0x2>

00001f40 <task::enterCritical()>:
    1f40:	f3bf 8f4f 	dsb	sy
    1f44:	f3bf 8f6f 	isb	sy
    1f48:	4770      	bx	lr

00001f4a <task::leaveCritical()>:
    1f4a:	f3bf 8f6f 	isb	sy
    1f4e:	4770      	bx	lr

00001f50 <SysTick_Handler>:
    1f50:	b508      	push	{r3, lr}
    1f52:	f7ff fce3 	bl	191c <task::_tick_handler()>
    1f56:	bd08      	pop	{r3, pc}

00001f58 <PendSV_Handler>:
    1f58:	f3ef 8009 	mrs	r0, PSP
    1f5c:	f3ef 8314 	mrs	r3, CONTROL
    1f60:	f01e 0f10 	tst.w	lr, #16
    1f64:	bf04      	itt	eq
    1f66:	f043 0310 	orreq.w	r3, r3, #16
    1f6a:	ed20 8a10 	vstmdbeq	r0!, {s16-s31}
    1f6e:	e920 0ff8 	stmdb	r0!, {r3, r4, r5, r6, r7, r8, r9, sl, fp}
    1f72:	4603      	mov	r3, r0
    1f74:	4618      	mov	r0, r3
    1f76:	f7ff ff87 	bl	1e88 <task::_setStackPtr(unsigned char*)>
    1f7a:	4604      	mov	r4, r0
    1f7c:	f7ff ff78 	bl	1e70 <task::_getStackBase()>
    1f80:	4603      	mov	r3, r0
    1f82:	1ae3      	subs	r3, r4, r3
    1f84:	2b0a      	cmp	r3, #10
    1f86:	bfd4      	ite	le
    1f88:	2301      	movle	r3, #1
    1f8a:	2300      	movgt	r3, #0
    1f8c:	b2db      	uxtb	r3, r3
    1f8e:	2b00      	cmp	r3, #0
    1f90:	d001      	beq.n	1f96 <PendSV_Handler+0x3e>
    1f92:	f7ff ff49 	bl	1e28 <yahal_assert_func()>
    1f96:	f7ff ff61 	bl	1e5c <task::_switchToNext()>
    1f9a:	f7ff ff6f 	bl	1e7c <task::_getStackPtr()>
    1f9e:	4603      	mov	r3, r0
    1fa0:	4618      	mov	r0, r3
    1fa2:	e8b0 0ff8 	ldmia.w	r0!, {r3, r4, r5, r6, r7, r8, r9, sl, fp}
    1fa6:	f06f 0e02 	mvn.w	lr, #2
    1faa:	f013 0f10 	tst.w	r3, #16
    1fae:	bf1c      	itt	ne
    1fb0:	f02e 0e10 	bicne.w	lr, lr, #16
    1fb4:	ecb0 8a10 	vldmiane	r0!, {s16-s31}
    1fb8:	f383 8814 	msr	CONTROL, r3
    1fbc:	f380 8809 	msr	PSP, r0
    1fc0:	4770      	bx	lr
    1fc2:	bf00      	nop

00001fc4 <SVC_Handler>:
    1fc4:	f01e 0f04 	tst.w	lr, #4
    1fc8:	bf0c      	ite	eq
    1fca:	f3ef 8008 	mrseq	r0, MSP
    1fce:	f3ef 8009 	mrsne	r0, PSP
    1fd2:	4904      	ldr	r1, [pc, #16]	; (1fe4 <SVC_Handler+0x20>)
    1fd4:	f8c1 e000 	str.w	lr, [r1]
    1fd8:	f000 f806 	bl	1fe8 <SVC_Handler_C>
    1fdc:	4901      	ldr	r1, [pc, #4]	; (1fe4 <SVC_Handler+0x20>)
    1fde:	f8d1 e000 	ldr.w	lr, [r1]
    1fe2:	4770      	bx	lr
    1fe4:	2000072c 	.word	0x2000072c

00001fe8 <SVC_Handler_C>:
    1fe8:	b510      	push	{r4, lr}
    1fea:	6983      	ldr	r3, [r0, #24]
    1fec:	f813 3c02 	ldrb.w	r3, [r3, #-2]
    1ff0:	b123      	cbz	r3, 1ffc <SVC_Handler_C+0x14>
    1ff2:	2b01      	cmp	r3, #1
    1ff4:	d141      	bne.n	207a <SVC_Handler_C+0x92>
    1ff6:	f7ff fc3d 	bl	1874 <task::_scheduler()>
    1ffa:	e03d      	b.n	2078 <SVC_Handler_C+0x90>
    1ffc:	2058      	movs	r0, #88	; 0x58
    1ffe:	f000 f865 	bl	20cc <operator new(unsigned int)>
    2002:	4604      	mov	r4, r0
    2004:	22c8      	movs	r2, #200	; 0xc8
    2006:	4921      	ldr	r1, [pc, #132]	; (208c <SVC_Handler_C+0xa4>)
    2008:	f7ff fbd6 	bl	17b8 <task::task(char const*, unsigned short)>
    200c:	4b20      	ldr	r3, [pc, #128]	; (2090 <SVC_Handler_C+0xa8>)
    200e:	6023      	str	r3, [r4, #0]
    2010:	2200      	movs	r2, #0
    2012:	2101      	movs	r1, #1
    2014:	4620      	mov	r0, r4
    2016:	f7ff fcb3 	bl	1980 <task::start(unsigned short, bool)>
    201a:	4b1e      	ldr	r3, [pc, #120]	; (2094 <SVC_Handler_C+0xac>)
    201c:	681a      	ldr	r2, [r3, #0]
    201e:	4b1e      	ldr	r3, [pc, #120]	; (2098 <SVC_Handler_C+0xb0>)
    2020:	601a      	str	r2, [r3, #0]
    2022:	4b1e      	ldr	r3, [pc, #120]	; (209c <SVC_Handler_C+0xb4>)
    2024:	22e0      	movs	r2, #224	; 0xe0
    2026:	f883 2022 	strb.w	r2, [r3, #34]	; 0x22
    202a:	4b1d      	ldr	r3, [pc, #116]	; (20a0 <SVC_Handler_C+0xb8>)
    202c:	681b      	ldr	r3, [r3, #0]
    202e:	4a1d      	ldr	r2, [pc, #116]	; (20a4 <SVC_Handler_C+0xbc>)
    2030:	fba2 2303 	umull	r2, r3, r2, r3
    2034:	099b      	lsrs	r3, r3, #6
    2036:	3b01      	subs	r3, #1
    2038:	f1b3 7f80 	cmp.w	r3, #16777216	; 0x1000000
    203c:	d20a      	bcs.n	2054 <SVC_Handler_C+0x6c>
    203e:	f04f 22e0 	mov.w	r2, #3758153728	; 0xe000e000
    2042:	6153      	str	r3, [r2, #20]
    2044:	4b15      	ldr	r3, [pc, #84]	; (209c <SVC_Handler_C+0xb4>)
    2046:	21e0      	movs	r1, #224	; 0xe0
    2048:	f883 1023 	strb.w	r1, [r3, #35]	; 0x23
    204c:	2300      	movs	r3, #0
    204e:	6193      	str	r3, [r2, #24]
    2050:	2307      	movs	r3, #7
    2052:	6113      	str	r3, [r2, #16]
    2054:	4b14      	ldr	r3, [pc, #80]	; (20a8 <SVC_Handler_C+0xc0>)
    2056:	f06f 0202 	mvn.w	r2, #2
    205a:	601a      	str	r2, [r3, #0]
    205c:	4b0e      	ldr	r3, [pc, #56]	; (2098 <SVC_Handler_C+0xb0>)
    205e:	681b      	ldr	r3, [r3, #0]
    2060:	6b5b      	ldr	r3, [r3, #52]	; 0x34
    2062:	f103 0224 	add.w	r2, r3, #36	; 0x24
    2066:	f382 8809 	msr	PSP, r2
    206a:	781b      	ldrb	r3, [r3, #0]
    206c:	f383 8814 	msr	CONTROL, r3
    2070:	f3bf 8f6f 	isb	sy
    2074:	f3bf 8f6f 	isb	sy
    2078:	bd10      	pop	{r4, pc}
    207a:	4b0c      	ldr	r3, [pc, #48]	; (20ac <SVC_Handler_C+0xc4>)
    207c:	4a0c      	ldr	r2, [pc, #48]	; (20b0 <SVC_Handler_C+0xc8>)
    207e:	601a      	str	r2, [r3, #0]
    2080:	4b0c      	ldr	r3, [pc, #48]	; (20b4 <SVC_Handler_C+0xcc>)
    2082:	22fe      	movs	r2, #254	; 0xfe
    2084:	601a      	str	r2, [r3, #0]
    2086:	f7ff fecf 	bl	1e28 <yahal_assert_func()>
    208a:	bf00      	nop
    208c:	00013cd4 	.word	0x00013cd4
    2090:	00013fac 	.word	0x00013fac
    2094:	20000c4c 	.word	0x20000c4c
    2098:	20000c58 	.word	0x20000c58
    209c:	e000ed00 	.word	0xe000ed00
    20a0:	20000030 	.word	0x20000030
    20a4:	10624dd3 	.word	0x10624dd3
    20a8:	2000072c 	.word	0x2000072c
    20ac:	20000714 	.word	0x20000714
    20b0:	00013c80 	.word	0x00013c80
    20b4:	20000728 	.word	0x20000728

000020b8 <__aeabi_atexit>:
    20b8:	4603      	mov	r3, r0
    20ba:	4608      	mov	r0, r1
    20bc:	4619      	mov	r1, r3
    20be:	f008 bbb3 	b.w	a828 <__cxa_atexit>
    20c2:	bf00      	nop

000020c4 <operator delete(void*, unsigned int)>:
    20c4:	f000 b83e 	b.w	2144 <operator delete(void*)>

000020c8 <operator delete[](void*)>:
    20c8:	f000 b83c 	b.w	2144 <operator delete(void*)>

000020cc <operator new(unsigned int)>:
    20cc:	2801      	cmp	r0, #1
    20ce:	bf38      	it	cc
    20d0:	2001      	movcc	r0, #1
    20d2:	b510      	push	{r4, lr}
    20d4:	4604      	mov	r4, r0
    20d6:	4620      	mov	r0, r4
    20d8:	f007 ff2a 	bl	9f30 <malloc>
    20dc:	b100      	cbz	r0, 20e0 <operator new(unsigned int)+0x14>
    20de:	bd10      	pop	{r4, pc}
    20e0:	f000 f9ac 	bl	243c <std::get_new_handler()>
    20e4:	b108      	cbz	r0, 20ea <operator new(unsigned int)+0x1e>
    20e6:	4780      	blx	r0
    20e8:	e7f5      	b.n	20d6 <operator new(unsigned int)+0xa>
    20ea:	2004      	movs	r0, #4
    20ec:	f000 f894 	bl	2218 <__cxa_allocate_exception>
    20f0:	4b02      	ldr	r3, [pc, #8]	; (20fc <operator new(unsigned int)+0x30>)
    20f2:	4a03      	ldr	r2, [pc, #12]	; (2100 <operator new(unsigned int)+0x34>)
    20f4:	4903      	ldr	r1, [pc, #12]	; (2104 <operator new(unsigned int)+0x38>)
    20f6:	6003      	str	r3, [r0, #0]
    20f8:	f000 f94e 	bl	2398 <__cxa_throw>
    20fc:	00013fec 	.word	0x00013fec
    2100:	00002115 	.word	0x00002115
    2104:	00013fd8 	.word	0x00013fd8

00002108 <operator new[](unsigned int)>:
    2108:	f7ff bfe0 	b.w	20cc <operator new(unsigned int)>

0000210c <std::bad_alloc::what() const>:
    210c:	4800      	ldr	r0, [pc, #0]	; (2110 <std::bad_alloc::what() const+0x4>)
    210e:	4770      	bx	lr
    2110:	00013fb8 	.word	0x00013fb8

00002114 <std::bad_alloc::~bad_alloc()>:
    2114:	b510      	push	{r4, lr}
    2116:	4b03      	ldr	r3, [pc, #12]	; (2124 <std::bad_alloc::~bad_alloc()+0x10>)
    2118:	6003      	str	r3, [r0, #0]
    211a:	4604      	mov	r4, r0
    211c:	f000 f8b8 	bl	2290 <std::exception::~exception()>
    2120:	4620      	mov	r0, r4
    2122:	bd10      	pop	{r4, pc}
    2124:	00013fec 	.word	0x00013fec

00002128 <std::bad_alloc::~bad_alloc()>:
    2128:	b510      	push	{r4, lr}
    212a:	4b05      	ldr	r3, [pc, #20]	; (2140 <std::bad_alloc::~bad_alloc()+0x18>)
    212c:	6003      	str	r3, [r0, #0]
    212e:	4604      	mov	r4, r0
    2130:	f000 f8ae 	bl	2290 <std::exception::~exception()>
    2134:	4620      	mov	r0, r4
    2136:	2104      	movs	r1, #4
    2138:	f7ff ffc4 	bl	20c4 <operator delete(void*, unsigned int)>
    213c:	4620      	mov	r0, r4
    213e:	bd10      	pop	{r4, pc}
    2140:	00013fec 	.word	0x00013fec

00002144 <operator delete(void*)>:
    2144:	f007 befc 	b.w	9f40 <free>

00002148 <(anonymous namespace)::pool::free(void*) [clone .constprop.0]>:
    2148:	491c      	ldr	r1, [pc, #112]	; (21bc <(anonymous namespace)::pool::free(void*) [clone .constprop.0]+0x74>)
    214a:	684b      	ldr	r3, [r1, #4]
    214c:	b530      	push	{r4, r5, lr}
    214e:	f850 5c08 	ldr.w	r5, [r0, #-8]
    2152:	f1a0 0408 	sub.w	r4, r0, #8
    2156:	b353      	cbz	r3, 21ae <(anonymous namespace)::pool::free(void*) [clone .constprop.0]+0x66>
    2158:	eb04 0e05 	add.w	lr, r4, r5
    215c:	4573      	cmp	r3, lr
    215e:	d826      	bhi.n	21ae <(anonymous namespace)::pool::free(void*) [clone .constprop.0]+0x66>
    2160:	d020      	beq.n	21a4 <(anonymous namespace)::pool::free(void*) [clone .constprop.0]+0x5c>
    2162:	685a      	ldr	r2, [r3, #4]
    2164:	f101 0c04 	add.w	ip, r1, #4
    2168:	b932      	cbnz	r2, 2178 <(anonymous namespace)::pool::free(void*) [clone .constprop.0]+0x30>
    216a:	e00e      	b.n	218a <(anonymous namespace)::pool::free(void*) [clone .constprop.0]+0x42>
    216c:	6851      	ldr	r1, [r2, #4]
    216e:	f103 0c04 	add.w	ip, r3, #4
    2172:	4613      	mov	r3, r2
    2174:	b139      	cbz	r1, 2186 <(anonymous namespace)::pool::free(void*) [clone .constprop.0]+0x3e>
    2176:	460a      	mov	r2, r1
    2178:	4596      	cmp	lr, r2
    217a:	d3f7      	bcc.n	216c <(anonymous namespace)::pool::free(void*) [clone .constprop.0]+0x24>
    217c:	bf02      	ittt	eq
    217e:	e9de 2100 	ldrdeq	r2, r1, [lr]
    2182:	6059      	streq	r1, [r3, #4]
    2184:	18ad      	addeq	r5, r5, r2
    2186:	f8dc 3000 	ldr.w	r3, [ip]
    218a:	681a      	ldr	r2, [r3, #0]
    218c:	1899      	adds	r1, r3, r2
    218e:	428c      	cmp	r4, r1
    2190:	d011      	beq.n	21b6 <(anonymous namespace)::pool::free(void*) [clone .constprop.0]+0x6e>
    2192:	685b      	ldr	r3, [r3, #4]
    2194:	f840 3c04 	str.w	r3, [r0, #-4]
    2198:	f8dc 3000 	ldr.w	r3, [ip]
    219c:	f840 5c08 	str.w	r5, [r0, #-8]
    21a0:	605c      	str	r4, [r3, #4]
    21a2:	bd30      	pop	{r4, r5, pc}
    21a4:	681a      	ldr	r2, [r3, #0]
    21a6:	685b      	ldr	r3, [r3, #4]
    21a8:	442a      	add	r2, r5
    21aa:	f840 2c08 	str.w	r2, [r0, #-8]
    21ae:	f840 3c04 	str.w	r3, [r0, #-4]
    21b2:	604c      	str	r4, [r1, #4]
    21b4:	bd30      	pop	{r4, r5, pc}
    21b6:	442a      	add	r2, r5
    21b8:	601a      	str	r2, [r3, #0]
    21ba:	bd30      	pop	{r4, r5, pc}
    21bc:	20000b9c 	.word	0x20000b9c

000021c0 <(anonymous namespace)::pool::allocate(unsigned int) [clone .constprop.0]>:
    21c0:	4914      	ldr	r1, [pc, #80]	; (2214 <(anonymous namespace)::pool::allocate(unsigned int) [clone .constprop.0]+0x54>)
    21c2:	f100 0308 	add.w	r3, r0, #8
    21c6:	6848      	ldr	r0, [r1, #4]
    21c8:	2b08      	cmp	r3, #8
    21ca:	bf38      	it	cc
    21cc:	2308      	movcc	r3, #8
    21ce:	b1f8      	cbz	r0, 2210 <(anonymous namespace)::pool::allocate(unsigned int) [clone .constprop.0]+0x50>
    21d0:	3307      	adds	r3, #7
    21d2:	f023 0307 	bic.w	r3, r3, #7
    21d6:	3104      	adds	r1, #4
    21d8:	e002      	b.n	21e0 <(anonymous namespace)::pool::allocate(unsigned int) [clone .constprop.0]+0x20>
    21da:	1d01      	adds	r1, r0, #4
    21dc:	6840      	ldr	r0, [r0, #4]
    21de:	b180      	cbz	r0, 2202 <(anonymous namespace)::pool::allocate(unsigned int) [clone .constprop.0]+0x42>
    21e0:	6802      	ldr	r2, [r0, #0]
    21e2:	4293      	cmp	r3, r2
    21e4:	d8f9      	bhi.n	21da <(anonymous namespace)::pool::allocate(unsigned int) [clone .constprop.0]+0x1a>
    21e6:	b430      	push	{r4, r5}
    21e8:	1ad4      	subs	r4, r2, r3
    21ea:	2c07      	cmp	r4, #7
    21ec:	d90a      	bls.n	2204 <(anonymous namespace)::pool::allocate(unsigned int) [clone .constprop.0]+0x44>
    21ee:	18c5      	adds	r5, r0, r3
    21f0:	6842      	ldr	r2, [r0, #4]
    21f2:	606a      	str	r2, [r5, #4]
    21f4:	50c4      	str	r4, [r0, r3]
    21f6:	6808      	ldr	r0, [r1, #0]
    21f8:	6003      	str	r3, [r0, #0]
    21fa:	600d      	str	r5, [r1, #0]
    21fc:	3008      	adds	r0, #8
    21fe:	bc30      	pop	{r4, r5}
    2200:	4770      	bx	lr
    2202:	4770      	bx	lr
    2204:	6845      	ldr	r5, [r0, #4]
    2206:	6002      	str	r2, [r0, #0]
    2208:	600d      	str	r5, [r1, #0]
    220a:	3008      	adds	r0, #8
    220c:	bc30      	pop	{r4, r5}
    220e:	4770      	bx	lr
    2210:	4770      	bx	lr
    2212:	bf00      	nop
    2214:	20000b9c 	.word	0x20000b9c

00002218 <__cxa_allocate_exception>:
    2218:	b510      	push	{r4, lr}
    221a:	f100 0480 	add.w	r4, r0, #128	; 0x80
    221e:	4620      	mov	r0, r4
    2220:	f007 fe86 	bl	9f30 <malloc>
    2224:	4603      	mov	r3, r0
    2226:	b130      	cbz	r0, 2236 <__cxa_allocate_exception+0x1e>
    2228:	2280      	movs	r2, #128	; 0x80
    222a:	2100      	movs	r1, #0
    222c:	4618      	mov	r0, r3
    222e:	f009 fa85 	bl	b73c <memset>
    2232:	3080      	adds	r0, #128	; 0x80
    2234:	bd10      	pop	{r4, pc}
    2236:	4620      	mov	r0, r4
    2238:	f7ff ffc2 	bl	21c0 <(anonymous namespace)::pool::allocate(unsigned int) [clone .constprop.0]>
    223c:	4603      	mov	r3, r0
    223e:	2800      	cmp	r0, #0
    2240:	d1f2      	bne.n	2228 <__cxa_allocate_exception+0x10>
    2242:	f000 f83d 	bl	22c0 <std::terminate()>
    2246:	bf00      	nop

00002248 <__cxa_free_exception>:
    2248:	4a06      	ldr	r2, [pc, #24]	; (2264 <__cxa_free_exception+0x1c>)
    224a:	6893      	ldr	r3, [r2, #8]
    224c:	3880      	subs	r0, #128	; 0x80
    224e:	4298      	cmp	r0, r3
    2250:	d905      	bls.n	225e <__cxa_free_exception+0x16>
    2252:	68d2      	ldr	r2, [r2, #12]
    2254:	4413      	add	r3, r2
    2256:	4298      	cmp	r0, r3
    2258:	d201      	bcs.n	225e <__cxa_free_exception+0x16>
    225a:	f7ff bf75 	b.w	2148 <(anonymous namespace)::pool::free(void*) [clone .constprop.0]>
    225e:	f007 be6f 	b.w	9f40 <free>
    2262:	bf00      	nop
    2264:	20000b9c 	.word	0x20000b9c

00002268 <_GLOBAL__sub_I__ZN9__gnu_cxx9__freeresEv>:
    2268:	b538      	push	{r3, r4, r5, lr}
    226a:	4c08      	ldr	r4, [pc, #32]	; (228c <_GLOBAL__sub_I__ZN9__gnu_cxx9__freeresEv+0x24>)
    226c:	f44f 651e 	mov.w	r5, #2528	; 0x9e0
    2270:	4628      	mov	r0, r5
    2272:	60e5      	str	r5, [r4, #12]
    2274:	f007 fe5c 	bl	9f30 <malloc>
    2278:	60a0      	str	r0, [r4, #8]
    227a:	b120      	cbz	r0, 2286 <_GLOBAL__sub_I__ZN9__gnu_cxx9__freeresEv+0x1e>
    227c:	2300      	movs	r3, #0
    227e:	e9c0 5300 	strd	r5, r3, [r0]
    2282:	6060      	str	r0, [r4, #4]
    2284:	bd38      	pop	{r3, r4, r5, pc}
    2286:	60e0      	str	r0, [r4, #12]
    2288:	e7fb      	b.n	2282 <_GLOBAL__sub_I__ZN9__gnu_cxx9__freeresEv+0x1a>
    228a:	bf00      	nop
    228c:	20000b9c 	.word	0x20000b9c

00002290 <std::exception::~exception()>:
    2290:	4770      	bx	lr
    2292:	bf00      	nop

00002294 <std::bad_exception::~bad_exception()>:
    2294:	4770      	bx	lr
    2296:	bf00      	nop

00002298 <transaction clone for std::bad_exception::what() const>:
    2298:	4800      	ldr	r0, [pc, #0]	; (229c <transaction clone for std::bad_exception::what() const+0x4>)
    229a:	4770      	bx	lr
    229c:	00013ff8 	.word	0x00013ff8

000022a0 <std::bad_exception::~bad_exception()>:
    22a0:	b510      	push	{r4, lr}
    22a2:	2104      	movs	r1, #4
    22a4:	4604      	mov	r4, r0
    22a6:	f7ff ff0d 	bl	20c4 <operator delete(void*, unsigned int)>
    22aa:	4620      	mov	r0, r4
    22ac:	bd10      	pop	{r4, pc}
    22ae:	bf00      	nop

000022b0 <__cxxabiv1::__terminate(void (*)())>:
    22b0:	b508      	push	{r3, lr}
    22b2:	4780      	blx	r0
    22b4:	f007 fe26 	bl	9f04 <abort>
    22b8:	f006 fb3a 	bl	8930 <__cxa_begin_catch>
    22bc:	f007 fe22 	bl	9f04 <abort>

000022c0 <std::terminate()>:
    22c0:	b508      	push	{r3, lr}
    22c2:	4b03      	ldr	r3, [pc, #12]	; (22d0 <std::terminate()+0x10>)
    22c4:	6818      	ldr	r0, [r3, #0]
    22c6:	f3bf 8f5b 	dmb	ish
    22ca:	f7ff fff1 	bl	22b0 <__cxxabiv1::__terminate(void (*)())>
    22ce:	bf00      	nop
    22d0:	20000038 	.word	0x20000038

000022d4 <__cxxabiv1::__unexpected(void (*)())>:
    22d4:	b508      	push	{r3, lr}
    22d6:	4780      	blx	r0
    22d8:	f7ff fff2 	bl	22c0 <std::terminate()>

000022dc <std::unexpected()>:
    22dc:	b508      	push	{r3, lr}
    22de:	4b03      	ldr	r3, [pc, #12]	; (22ec <std::unexpected()+0x10>)
    22e0:	6818      	ldr	r0, [r3, #0]
    22e2:	f3bf 8f5b 	dmb	ish
    22e6:	f7ff fff5 	bl	22d4 <__cxxabiv1::__unexpected(void (*)())>
    22ea:	bf00      	nop
    22ec:	20000034 	.word	0x20000034

000022f0 <std::get_terminate()>:
    22f0:	4b02      	ldr	r3, [pc, #8]	; (22fc <std::get_terminate()+0xc>)
    22f2:	6818      	ldr	r0, [r3, #0]
    22f4:	f3bf 8f5b 	dmb	ish
    22f8:	4770      	bx	lr
    22fa:	bf00      	nop
    22fc:	20000038 	.word	0x20000038

00002300 <std::get_unexpected()>:
    2300:	4b02      	ldr	r3, [pc, #8]	; (230c <std::get_unexpected()+0xc>)
    2302:	6818      	ldr	r0, [r3, #0]
    2304:	f3bf 8f5b 	dmb	ish
    2308:	4770      	bx	lr
    230a:	bf00      	nop
    230c:	20000034 	.word	0x20000034

00002310 <__gxx_exception_cleanup(_Unwind_Reason_Code, _Unwind_Control_Block*)>:
    2310:	2801      	cmp	r0, #1
    2312:	b510      	push	{r4, lr}
    2314:	d81a      	bhi.n	234c <__gxx_exception_cleanup(_Unwind_Reason_Code, _Unwind_Control_Block*)+0x3c>
    2316:	f3bf 8f5b 	dmb	ish
    231a:	f1a1 0328 	sub.w	r3, r1, #40	; 0x28
    231e:	e853 2f00 	ldrex	r2, [r3]
    2322:	3a01      	subs	r2, #1
    2324:	e843 2000 	strex	r0, r2, [r3]
    2328:	2800      	cmp	r0, #0
    232a:	d1f8      	bne.n	231e <__gxx_exception_cleanup(_Unwind_Reason_Code, _Unwind_Control_Block*)+0xe>
    232c:	f3bf 8f5b 	dmb	ish
    2330:	b95a      	cbnz	r2, 234a <__gxx_exception_cleanup(_Unwind_Reason_Code, _Unwind_Control_Block*)+0x3a>
    2332:	f851 3c1c 	ldr.w	r3, [r1, #-28]
    2336:	f101 0458 	add.w	r4, r1, #88	; 0x58
    233a:	b10b      	cbz	r3, 2340 <__gxx_exception_cleanup(_Unwind_Reason_Code, _Unwind_Control_Block*)+0x30>
    233c:	4620      	mov	r0, r4
    233e:	4798      	blx	r3
    2340:	4620      	mov	r0, r4
    2342:	e8bd 4010 	ldmia.w	sp!, {r4, lr}
    2346:	f7ff bf7f 	b.w	2248 <__cxa_free_exception>
    234a:	bd10      	pop	{r4, pc}
    234c:	f851 0c14 	ldr.w	r0, [r1, #-20]
    2350:	f7ff ffae 	bl	22b0 <__cxxabiv1::__terminate(void (*)())>

00002354 <__cxa_init_primary_exception>:
    2354:	2300      	movs	r3, #0
    2356:	b510      	push	{r4, lr}
    2358:	e940 121e 	strd	r1, r2, [r0, #-120]	; 0x78
    235c:	f840 3c80 	str.w	r3, [r0, #-128]
    2360:	4604      	mov	r4, r0
    2362:	f7ff ffcd 	bl	2300 <std::get_unexpected()>
    2366:	f844 0c70 	str.w	r0, [r4, #-112]
    236a:	f7ff ffc1 	bl	22f0 <std::get_terminate()>
    236e:	4907      	ldr	r1, [pc, #28]	; (238c <__cxa_init_primary_exception+0x38>)
    2370:	4a07      	ldr	r2, [pc, #28]	; (2390 <__cxa_init_primary_exception+0x3c>)
    2372:	4b08      	ldr	r3, [pc, #32]	; (2394 <__cxa_init_primary_exception+0x40>)
    2374:	f844 1c58 	str.w	r1, [r4, #-88]
    2378:	f844 2c54 	str.w	r2, [r4, #-84]
    237c:	f844 0c6c 	str.w	r0, [r4, #-108]
    2380:	f844 3c50 	str.w	r3, [r4, #-80]
    2384:	f1a4 0080 	sub.w	r0, r4, #128	; 0x80
    2388:	bd10      	pop	{r4, pc}
    238a:	bf00      	nop
    238c:	43554e47 	.word	0x43554e47
    2390:	002b2b43 	.word	0x002b2b43
    2394:	00002311 	.word	0x00002311

00002398 <__cxa_throw>:
    2398:	b570      	push	{r4, r5, r6, lr}
    239a:	4604      	mov	r4, r0
    239c:	460d      	mov	r5, r1
    239e:	4616      	mov	r6, r2
    23a0:	f006 fb50 	bl	8a44 <__cxa_get_globals>
    23a4:	6843      	ldr	r3, [r0, #4]
    23a6:	3301      	adds	r3, #1
    23a8:	4632      	mov	r2, r6
    23aa:	4629      	mov	r1, r5
    23ac:	6043      	str	r3, [r0, #4]
    23ae:	4620      	mov	r0, r4
    23b0:	f7ff ffd0 	bl	2354 <__cxa_init_primary_exception>
    23b4:	4604      	mov	r4, r0
    23b6:	2301      	movs	r3, #1
    23b8:	f844 3b28 	str.w	r3, [r4], #40
    23bc:	4620      	mov	r0, r4
    23be:	f010 fd0f 	bl	12de0 <_Unwind_RaiseException>
    23c2:	4620      	mov	r0, r4
    23c4:	f006 fab4 	bl	8930 <__cxa_begin_catch>
    23c8:	f7ff ff7a 	bl	22c0 <std::terminate()>

000023cc <__cxa_rethrow>:
    23cc:	b510      	push	{r4, lr}
    23ce:	f006 fb39 	bl	8a44 <__cxa_get_globals>
    23d2:	e9d0 4200 	ldrd	r4, r2, [r0]
    23d6:	3201      	adds	r2, #1
    23d8:	6042      	str	r2, [r0, #4]
    23da:	b164      	cbz	r4, 23f6 <__cxa_rethrow+0x2a>
    23dc:	f894 2020 	ldrb.w	r2, [r4, #32]
    23e0:	2a47      	cmp	r2, #71	; 0x47
    23e2:	d00a      	beq.n	23fa <__cxa_rethrow+0x2e>
    23e4:	2200      	movs	r2, #0
    23e6:	6002      	str	r2, [r0, #0]
    23e8:	3420      	adds	r4, #32
    23ea:	4620      	mov	r0, r4
    23ec:	f010 fd1c 	bl	12e28 <_Unwind_Resume_or_Rethrow>
    23f0:	4620      	mov	r0, r4
    23f2:	f006 fa9d 	bl	8930 <__cxa_begin_catch>
    23f6:	f7ff ff63 	bl	22c0 <std::terminate()>
    23fa:	f894 2021 	ldrb.w	r2, [r4, #33]	; 0x21
    23fe:	2a4e      	cmp	r2, #78	; 0x4e
    2400:	d1f0      	bne.n	23e4 <__cxa_rethrow+0x18>
    2402:	f894 2022 	ldrb.w	r2, [r4, #34]	; 0x22
    2406:	2a55      	cmp	r2, #85	; 0x55
    2408:	d1ec      	bne.n	23e4 <__cxa_rethrow+0x18>
    240a:	f894 2023 	ldrb.w	r2, [r4, #35]	; 0x23
    240e:	2a43      	cmp	r2, #67	; 0x43
    2410:	d1e8      	bne.n	23e4 <__cxa_rethrow+0x18>
    2412:	f894 2024 	ldrb.w	r2, [r4, #36]	; 0x24
    2416:	2a43      	cmp	r2, #67	; 0x43
    2418:	d1e4      	bne.n	23e4 <__cxa_rethrow+0x18>
    241a:	f894 2025 	ldrb.w	r2, [r4, #37]	; 0x25
    241e:	2a2b      	cmp	r2, #43	; 0x2b
    2420:	d1e0      	bne.n	23e4 <__cxa_rethrow+0x18>
    2422:	f894 2026 	ldrb.w	r2, [r4, #38]	; 0x26
    2426:	2a2b      	cmp	r2, #43	; 0x2b
    2428:	d1dc      	bne.n	23e4 <__cxa_rethrow+0x18>
    242a:	f894 2027 	ldrb.w	r2, [r4, #39]	; 0x27
    242e:	2a01      	cmp	r2, #1
    2430:	d8d8      	bhi.n	23e4 <__cxa_rethrow+0x18>
    2432:	6962      	ldr	r2, [r4, #20]
    2434:	4252      	negs	r2, r2
    2436:	6162      	str	r2, [r4, #20]
    2438:	e7d6      	b.n	23e8 <__cxa_rethrow+0x1c>
    243a:	bf00      	nop

0000243c <std::get_new_handler()>:
    243c:	4b02      	ldr	r3, [pc, #8]	; (2448 <std::get_new_handler()+0xc>)
    243e:	6818      	ldr	r0, [r3, #0]
    2440:	f3bf 8f5b 	dmb	ish
    2444:	4770      	bx	lr
    2446:	bf00      	nop
    2448:	20000b98 	.word	0x20000b98

0000244c <__cxxabiv1::__si_class_type_info::~__si_class_type_info()>:
    244c:	b510      	push	{r4, lr}
    244e:	4b03      	ldr	r3, [pc, #12]	; (245c <__cxxabiv1::__si_class_type_info::~__si_class_type_info()+0x10>)
    2450:	6003      	str	r3, [r0, #0]
    2452:	4604      	mov	r4, r0
    2454:	f000 f948 	bl	26e8 <__cxxabiv1::__class_type_info::~__class_type_info()>
    2458:	4620      	mov	r0, r4
    245a:	bd10      	pop	{r4, pc}
    245c:	000140e8 	.word	0x000140e8

00002460 <__cxxabiv1::__si_class_type_info::~__si_class_type_info()>:
    2460:	b510      	push	{r4, lr}
    2462:	4b05      	ldr	r3, [pc, #20]	; (2478 <__cxxabiv1::__si_class_type_info::~__si_class_type_info()+0x18>)
    2464:	6003      	str	r3, [r0, #0]
    2466:	4604      	mov	r4, r0
    2468:	f000 f93e 	bl	26e8 <__cxxabiv1::__class_type_info::~__class_type_info()>
    246c:	4620      	mov	r0, r4
    246e:	210c      	movs	r1, #12
    2470:	f7ff fe28 	bl	20c4 <operator delete(void*, unsigned int)>
    2474:	4620      	mov	r0, r4
    2476:	bd10      	pop	{r4, pc}
    2478:	000140e8 	.word	0x000140e8

0000247c <__cxxabiv1::__si_class_type_info::__do_find_public_src(int, void const*, __cxxabiv1::__class_type_info const*, void const*) const>:
    247c:	b570      	push	{r4, r5, r6, lr}
    247e:	b082      	sub	sp, #8
    2480:	4604      	mov	r4, r0
    2482:	9e06      	ldr	r6, [sp, #24]
    2484:	4296      	cmp	r6, r2
    2486:	460d      	mov	r5, r1
    2488:	d009      	beq.n	249e <__cxxabiv1::__si_class_type_info::__do_find_public_src(int, void const*, __cxxabiv1::__class_type_info const*, void const*) const+0x22>
    248a:	68a0      	ldr	r0, [r4, #8]
    248c:	6804      	ldr	r4, [r0, #0]
    248e:	9606      	str	r6, [sp, #24]
    2490:	6a24      	ldr	r4, [r4, #32]
    2492:	4629      	mov	r1, r5
    2494:	46a4      	mov	ip, r4
    2496:	b002      	add	sp, #8
    2498:	e8bd 4070 	ldmia.w	sp!, {r4, r5, r6, lr}
    249c:	4760      	bx	ip
    249e:	4619      	mov	r1, r3
    24a0:	9201      	str	r2, [sp, #4]
    24a2:	9300      	str	r3, [sp, #0]
    24a4:	f000 f864 	bl	2570 <std::type_info::__equal(std::type_info const&) const>
    24a8:	e9dd 3200 	ldrd	r3, r2, [sp]
    24ac:	2800      	cmp	r0, #0
    24ae:	d0ec      	beq.n	248a <__cxxabiv1::__si_class_type_info::__do_find_public_src(int, void const*, __cxxabiv1::__class_type_info const*, void const*) const+0xe>
    24b0:	2006      	movs	r0, #6
    24b2:	b002      	add	sp, #8
    24b4:	bd70      	pop	{r4, r5, r6, pc}
    24b6:	bf00      	nop

000024b8 <__cxxabiv1::__si_class_type_info::__do_dyncast(int, __cxxabiv1::__class_type_info::__sub_kind, __cxxabiv1::__class_type_info const*, void const*, __cxxabiv1::__class_type_info const*, void const*, __cxxabiv1::__class_type_info::__dyncast_result&) const>:
    24b8:	e92d 4ff0 	stmdb	sp!, {r4, r5, r6, r7, r8, r9, sl, fp, lr}
    24bc:	460d      	mov	r5, r1
    24be:	b081      	sub	sp, #4
    24c0:	4619      	mov	r1, r3
    24c2:	e9dd 8b0a 	ldrd	r8, fp, [sp, #40]	; 0x28
    24c6:	e9dd a90c 	ldrd	sl, r9, [sp, #48]	; 0x30
    24ca:	461c      	mov	r4, r3
    24cc:	4607      	mov	r7, r0
    24ce:	4616      	mov	r6, r2
    24d0:	f000 f84e 	bl	2570 <std::type_info::__equal(std::type_info const&) const>
    24d4:	b980      	cbnz	r0, 24f8 <__cxxabiv1::__si_class_type_info::__do_dyncast(int, __cxxabiv1::__class_type_info::__sub_kind, __cxxabiv1::__class_type_info const*, void const*, __cxxabiv1::__class_type_info const*, void const*, __cxxabiv1::__class_type_info::__dyncast_result&) const+0x40>
    24d6:	45d0      	cmp	r8, sl
    24d8:	d027      	beq.n	252a <__cxxabiv1::__si_class_type_info::__do_dyncast(int, __cxxabiv1::__class_type_info::__sub_kind, __cxxabiv1::__class_type_info const*, void const*, __cxxabiv1::__class_type_info const*, void const*, __cxxabiv1::__class_type_info::__dyncast_result&) const+0x72>
    24da:	68b8      	ldr	r0, [r7, #8]
    24dc:	4623      	mov	r3, r4
    24de:	6804      	ldr	r4, [r0, #0]
    24e0:	e9cd a90c 	strd	sl, r9, [sp, #48]	; 0x30
    24e4:	e9cd 8b0a 	strd	r8, fp, [sp, #40]	; 0x28
    24e8:	69e4      	ldr	r4, [r4, #28]
    24ea:	4632      	mov	r2, r6
    24ec:	4629      	mov	r1, r5
    24ee:	46a4      	mov	ip, r4
    24f0:	b001      	add	sp, #4
    24f2:	e8bd 4ff0 	ldmia.w	sp!, {r4, r5, r6, r7, r8, r9, sl, fp, lr}
    24f6:	4760      	bx	ip
    24f8:	2d00      	cmp	r5, #0
    24fa:	f8c9 8000 	str.w	r8, [r9]
    24fe:	f889 6004 	strb.w	r6, [r9, #4]
    2502:	db0c      	blt.n	251e <__cxxabiv1::__si_class_type_info::__do_dyncast(int, __cxxabiv1::__class_type_info::__sub_kind, __cxxabiv1::__class_type_info const*, void const*, __cxxabiv1::__class_type_info const*, void const*, __cxxabiv1::__class_type_info::__dyncast_result&) const+0x66>
    2504:	44a8      	add	r8, r5
    2506:	45c2      	cmp	sl, r8
    2508:	bf14      	ite	ne
    250a:	f04f 0801 	movne.w	r8, #1
    250e:	f04f 0806 	moveq.w	r8, #6
    2512:	f889 8006 	strb.w	r8, [r9, #6]
    2516:	2000      	movs	r0, #0
    2518:	b001      	add	sp, #4
    251a:	e8bd 8ff0 	ldmia.w	sp!, {r4, r5, r6, r7, r8, r9, sl, fp, pc}
    251e:	3502      	adds	r5, #2
    2520:	d1f9      	bne.n	2516 <__cxxabiv1::__si_class_type_info::__do_dyncast(int, __cxxabiv1::__class_type_info::__sub_kind, __cxxabiv1::__class_type_info const*, void const*, __cxxabiv1::__class_type_info const*, void const*, __cxxabiv1::__class_type_info::__dyncast_result&) const+0x5e>
    2522:	2301      	movs	r3, #1
    2524:	f889 3006 	strb.w	r3, [r9, #6]
    2528:	e7f5      	b.n	2516 <__cxxabiv1::__si_class_type_info::__do_dyncast(int, __cxxabiv1::__class_type_info::__sub_kind, __cxxabiv1::__class_type_info const*, void const*, __cxxabiv1::__class_type_info const*, void const*, __cxxabiv1::__class_type_info::__dyncast_result&) const+0x5e>
    252a:	4659      	mov	r1, fp
    252c:	4638      	mov	r0, r7
    252e:	f000 f81f 	bl	2570 <std::type_info::__equal(std::type_info const&) const>
    2532:	2800      	cmp	r0, #0
    2534:	d0d1      	beq.n	24da <__cxxabiv1::__si_class_type_info::__do_dyncast(int, __cxxabiv1::__class_type_info::__sub_kind, __cxxabiv1::__class_type_info const*, void const*, __cxxabiv1::__class_type_info const*, void const*, __cxxabiv1::__class_type_info::__dyncast_result&) const+0x22>
    2536:	f889 6005 	strb.w	r6, [r9, #5]
    253a:	e7ec      	b.n	2516 <__cxxabiv1::__si_class_type_info::__do_dyncast(int, __cxxabiv1::__class_type_info::__sub_kind, __cxxabiv1::__class_type_info const*, void const*, __cxxabiv1::__class_type_info const*, void const*, __cxxabiv1::__class_type_info::__dyncast_result&) const+0x5e>

0000253c <__cxxabiv1::__si_class_type_info::__do_upcast(__cxxabiv1::__class_type_info const*, void const*, __cxxabiv1::__class_type_info::__upcast_result&) const>:
    253c:	e92d 41f0 	stmdb	sp!, {r4, r5, r6, r7, r8, lr}
    2540:	4606      	mov	r6, r0
    2542:	460f      	mov	r7, r1
    2544:	4614      	mov	r4, r2
    2546:	461d      	mov	r5, r3
    2548:	f000 f908 	bl	275c <__cxxabiv1::__class_type_info::__do_upcast(__cxxabiv1::__class_type_info const*, void const*, __cxxabiv1::__class_type_info::__upcast_result&) const>
    254c:	b948      	cbnz	r0, 2562 <__cxxabiv1::__si_class_type_info::__do_upcast(__cxxabiv1::__class_type_info const*, void const*, __cxxabiv1::__class_type_info::__upcast_result&) const+0x26>
    254e:	68b0      	ldr	r0, [r6, #8]
    2550:	6801      	ldr	r1, [r0, #0]
    2552:	4622      	mov	r2, r4
    2554:	698c      	ldr	r4, [r1, #24]
    2556:	462b      	mov	r3, r5
    2558:	4639      	mov	r1, r7
    255a:	46a4      	mov	ip, r4
    255c:	e8bd 41f0 	ldmia.w	sp!, {r4, r5, r6, r7, r8, lr}
    2560:	4760      	bx	ip
    2562:	e8bd 81f0 	ldmia.w	sp!, {r4, r5, r6, r7, r8, pc}
    2566:	bf00      	nop

00002568 <std::type_info::~type_info()>:
    2568:	4770      	bx	lr
    256a:	bf00      	nop

0000256c <std::type_info::__is_pointer_p() const>:
    256c:	2000      	movs	r0, #0
    256e:	4770      	bx	lr

00002570 <std::type_info::__equal(std::type_info const&) const>:
    2570:	4281      	cmp	r1, r0
    2572:	d011      	beq.n	2598 <std::type_info::__equal(std::type_info const&) const+0x28>
    2574:	b508      	push	{r3, lr}
    2576:	6840      	ldr	r0, [r0, #4]
    2578:	7803      	ldrb	r3, [r0, #0]
    257a:	2b2a      	cmp	r3, #42	; 0x2a
    257c:	d00a      	beq.n	2594 <std::type_info::__equal(std::type_info const&) const+0x24>
    257e:	6849      	ldr	r1, [r1, #4]
    2580:	780b      	ldrb	r3, [r1, #0]
    2582:	2b2a      	cmp	r3, #42	; 0x2a
    2584:	bf08      	it	eq
    2586:	3101      	addeq	r1, #1
    2588:	f010 fc8e 	bl	12ea8 <strcmp>
    258c:	fab0 f080 	clz	r0, r0
    2590:	0940      	lsrs	r0, r0, #5
    2592:	bd08      	pop	{r3, pc}
    2594:	2000      	movs	r0, #0
    2596:	bd08      	pop	{r3, pc}
    2598:	2001      	movs	r0, #1
    259a:	4770      	bx	lr

0000259c <__gnu_cxx::__verbose_terminate_handler()>:
    259c:	b570      	push	{r4, r5, r6, lr}
    259e:	4b3b      	ldr	r3, [pc, #236]	; (268c <__gnu_cxx::__verbose_terminate_handler()+0xf0>)
    25a0:	781a      	ldrb	r2, [r3, #0]
    25a2:	b082      	sub	sp, #8
    25a4:	2a00      	cmp	r2, #0
    25a6:	d141      	bne.n	262c <__gnu_cxx::__verbose_terminate_handler()+0x90>
    25a8:	2401      	movs	r4, #1
    25aa:	701c      	strb	r4, [r3, #0]
    25ac:	f006 fd4e 	bl	904c <__cxa_current_exception_type>
    25b0:	2800      	cmp	r0, #0
    25b2:	d031      	beq.n	2618 <__gnu_cxx::__verbose_terminate_handler()+0x7c>
    25b4:	6844      	ldr	r4, [r0, #4]
    25b6:	4d36      	ldr	r5, [pc, #216]	; (2690 <__gnu_cxx::__verbose_terminate_handler()+0xf4>)
    25b8:	7823      	ldrb	r3, [r4, #0]
    25ba:	2b2a      	cmp	r3, #42	; 0x2a
    25bc:	bf08      	it	eq
    25be:	3401      	addeq	r4, #1
    25c0:	2200      	movs	r2, #0
    25c2:	f04f 30ff 	mov.w	r0, #4294967295
    25c6:	4611      	mov	r1, r2
    25c8:	ab01      	add	r3, sp, #4
    25ca:	9001      	str	r0, [sp, #4]
    25cc:	4620      	mov	r0, r4
    25ce:	f006 f88b 	bl	86e8 <__cxa_demangle>
    25d2:	682b      	ldr	r3, [r5, #0]
    25d4:	2230      	movs	r2, #48	; 0x30
    25d6:	68db      	ldr	r3, [r3, #12]
    25d8:	4606      	mov	r6, r0
    25da:	2101      	movs	r1, #1
    25dc:	482d      	ldr	r0, [pc, #180]	; (2694 <__gnu_cxx::__verbose_terminate_handler()+0xf8>)
    25de:	f008 fd57 	bl	b090 <fwrite>
    25e2:	9b01      	ldr	r3, [sp, #4]
    25e4:	b193      	cbz	r3, 260c <__gnu_cxx::__verbose_terminate_handler()+0x70>
    25e6:	682b      	ldr	r3, [r5, #0]
    25e8:	4620      	mov	r0, r4
    25ea:	68d9      	ldr	r1, [r3, #12]
    25ec:	f008 fb5e 	bl	acac <fputs>
    25f0:	682b      	ldr	r3, [r5, #0]
    25f2:	4829      	ldr	r0, [pc, #164]	; (2698 <__gnu_cxx::__verbose_terminate_handler()+0xfc>)
    25f4:	68db      	ldr	r3, [r3, #12]
    25f6:	2202      	movs	r2, #2
    25f8:	2101      	movs	r1, #1
    25fa:	f008 fd49 	bl	b090 <fwrite>
    25fe:	9b01      	ldr	r3, [sp, #4]
    2600:	b913      	cbnz	r3, 2608 <__gnu_cxx::__verbose_terminate_handler()+0x6c>
    2602:	4630      	mov	r0, r6
    2604:	f007 fc9c 	bl	9f40 <free>
    2608:	f7ff fee0 	bl	23cc <__cxa_rethrow>
    260c:	682b      	ldr	r3, [r5, #0]
    260e:	4630      	mov	r0, r6
    2610:	68d9      	ldr	r1, [r3, #12]
    2612:	f008 fb4b 	bl	acac <fputs>
    2616:	e7eb      	b.n	25f0 <__gnu_cxx::__verbose_terminate_handler()+0x54>
    2618:	4b1d      	ldr	r3, [pc, #116]	; (2690 <__gnu_cxx::__verbose_terminate_handler()+0xf4>)
    261a:	4820      	ldr	r0, [pc, #128]	; (269c <__gnu_cxx::__verbose_terminate_handler()+0x100>)
    261c:	681b      	ldr	r3, [r3, #0]
    261e:	222d      	movs	r2, #45	; 0x2d
    2620:	68db      	ldr	r3, [r3, #12]
    2622:	4621      	mov	r1, r4
    2624:	f008 fd34 	bl	b090 <fwrite>
    2628:	f007 fc6c 	bl	9f04 <abort>
    262c:	4b18      	ldr	r3, [pc, #96]	; (2690 <__gnu_cxx::__verbose_terminate_handler()+0xf4>)
    262e:	481c      	ldr	r0, [pc, #112]	; (26a0 <__gnu_cxx::__verbose_terminate_handler()+0x104>)
    2630:	681b      	ldr	r3, [r3, #0]
    2632:	221d      	movs	r2, #29
    2634:	68db      	ldr	r3, [r3, #12]
    2636:	2101      	movs	r1, #1
    2638:	f008 fd2a 	bl	b090 <fwrite>
    263c:	f007 fc62 	bl	9f04 <abort>
    2640:	2901      	cmp	r1, #1
    2642:	460c      	mov	r4, r1
    2644:	d119      	bne.n	267a <__gnu_cxx::__verbose_terminate_handler()+0xde>
    2646:	f006 f973 	bl	8930 <__cxa_begin_catch>
    264a:	6803      	ldr	r3, [r0, #0]
    264c:	689b      	ldr	r3, [r3, #8]
    264e:	4798      	blx	r3
    2650:	682b      	ldr	r3, [r5, #0]
    2652:	4621      	mov	r1, r4
    2654:	68db      	ldr	r3, [r3, #12]
    2656:	4604      	mov	r4, r0
    2658:	220b      	movs	r2, #11
    265a:	4812      	ldr	r0, [pc, #72]	; (26a4 <__gnu_cxx::__verbose_terminate_handler()+0x108>)
    265c:	f008 fd18 	bl	b090 <fwrite>
    2660:	682b      	ldr	r3, [r5, #0]
    2662:	4620      	mov	r0, r4
    2664:	68d9      	ldr	r1, [r3, #12]
    2666:	f008 fb21 	bl	acac <fputs>
    266a:	682b      	ldr	r3, [r5, #0]
    266c:	200a      	movs	r0, #10
    266e:	68d9      	ldr	r1, [r3, #12]
    2670:	f008 faae 	bl	abd0 <fputc>
    2674:	f006 f99a 	bl	89ac <__cxa_end_catch>
    2678:	e7d6      	b.n	2628 <__gnu_cxx::__verbose_terminate_handler()+0x8c>
    267a:	f006 f959 	bl	8930 <__cxa_begin_catch>
    267e:	f006 f995 	bl	89ac <__cxa_end_catch>
    2682:	e7d1      	b.n	2628 <__gnu_cxx::__verbose_terminate_handler()+0x8c>
    2684:	f006 f992 	bl	89ac <__cxa_end_catch>
    2688:	f006 f88c 	bl	87a4 <__cxa_end_cleanup>
    268c:	20000fa4 	.word	0x20000fa4
    2690:	2000045c 	.word	0x2000045c
    2694:	00014144 	.word	0x00014144
    2698:	00014178 	.word	0x00014178
    269c:	0001417c 	.word	0x0001417c
    26a0:	00014124 	.word	0x00014124
    26a4:	000141ac 	.word	0x000141ac

000026a8 <__cxxabiv1::__class_type_info::__do_upcast(__cxxabiv1::__class_type_info const*, void**) const>:
    26a8:	b570      	push	{r4, r5, r6, lr}
    26aa:	6803      	ldr	r3, [r0, #0]
    26ac:	b084      	sub	sp, #16
    26ae:	2400      	movs	r4, #0
    26b0:	699e      	ldr	r6, [r3, #24]
    26b2:	9403      	str	r4, [sp, #12]
    26b4:	2310      	movs	r3, #16
    26b6:	4615      	mov	r5, r2
    26b8:	9302      	str	r3, [sp, #8]
    26ba:	e9cd 4400 	strd	r4, r4, [sp]
    26be:	466b      	mov	r3, sp
    26c0:	6812      	ldr	r2, [r2, #0]
    26c2:	47b0      	blx	r6
    26c4:	f89d 3004 	ldrb.w	r3, [sp, #4]
    26c8:	f003 0306 	and.w	r3, r3, #6
    26cc:	2b06      	cmp	r3, #6
    26ce:	bf03      	ittte	eq
    26d0:	9b00      	ldreq	r3, [sp, #0]
    26d2:	602b      	streq	r3, [r5, #0]
    26d4:	2001      	moveq	r0, #1
    26d6:	4620      	movne	r0, r4
    26d8:	b004      	add	sp, #16
    26da:	bd70      	pop	{r4, r5, r6, pc}

000026dc <__cxxabiv1::__class_type_info::__do_find_public_src(int, void const*, __cxxabiv1::__class_type_info const*, void const*) const>:
    26dc:	9800      	ldr	r0, [sp, #0]
    26de:	4290      	cmp	r0, r2
    26e0:	bf0c      	ite	eq
    26e2:	2006      	moveq	r0, #6
    26e4:	2001      	movne	r0, #1
    26e6:	4770      	bx	lr

000026e8 <__cxxabiv1::__class_type_info::~__class_type_info()>:
    26e8:	b510      	push	{r4, lr}
    26ea:	4b03      	ldr	r3, [pc, #12]	; (26f8 <__cxxabiv1::__class_type_info::~__class_type_info()+0x10>)
    26ec:	6003      	str	r3, [r0, #0]
    26ee:	4604      	mov	r4, r0
    26f0:	f7ff ff3a 	bl	2568 <std::type_info::~type_info()>
    26f4:	4620      	mov	r0, r4
    26f6:	bd10      	pop	{r4, pc}
    26f8:	000141f0 	.word	0x000141f0

000026fc <__cxxabiv1::__class_type_info::~__class_type_info()>:
    26fc:	b510      	push	{r4, lr}
    26fe:	4b05      	ldr	r3, [pc, #20]	; (2714 <__cxxabiv1::__class_type_info::~__class_type_info()+0x18>)
    2700:	6003      	str	r3, [r0, #0]
    2702:	4604      	mov	r4, r0
    2704:	f7ff ff30 	bl	2568 <std::type_info::~type_info()>
    2708:	4620      	mov	r0, r4
    270a:	2108      	movs	r1, #8
    270c:	f7ff fcda 	bl	20c4 <operator delete(void*, unsigned int)>
    2710:	4620      	mov	r0, r4
    2712:	bd10      	pop	{r4, pc}
    2714:	000141f0 	.word	0x000141f0

00002718 <__cxxabiv1::__class_type_info::__do_dyncast(int, __cxxabiv1::__class_type_info::__sub_kind, __cxxabiv1::__class_type_info const*, void const*, __cxxabiv1::__class_type_info const*, void const*, __cxxabiv1::__class_type_info::__dyncast_result&) const>:
    2718:	e92d 41f0 	stmdb	sp!, {r4, r5, r6, r7, r8, lr}
    271c:	9f06      	ldr	r7, [sp, #24]
    271e:	9908      	ldr	r1, [sp, #32]
    2720:	9e09      	ldr	r6, [sp, #36]	; 0x24
    2722:	428f      	cmp	r7, r1
    2724:	4604      	mov	r4, r0
    2726:	4690      	mov	r8, r2
    2728:	461d      	mov	r5, r3
    272a:	d00c      	beq.n	2746 <__cxxabiv1::__class_type_info::__do_dyncast(int, __cxxabiv1::__class_type_info::__sub_kind, __cxxabiv1::__class_type_info const*, void const*, __cxxabiv1::__class_type_info const*, void const*, __cxxabiv1::__class_type_info::__dyncast_result&) const+0x2e>
    272c:	4629      	mov	r1, r5
    272e:	4620      	mov	r0, r4
    2730:	f7ff ff1e 	bl	2570 <std::type_info::__equal(std::type_info const&) const>
    2734:	b120      	cbz	r0, 2740 <__cxxabiv1::__class_type_info::__do_dyncast(int, __cxxabiv1::__class_type_info::__sub_kind, __cxxabiv1::__class_type_info const*, void const*, __cxxabiv1::__class_type_info const*, void const*, __cxxabiv1::__class_type_info::__dyncast_result&) const+0x28>
    2736:	2301      	movs	r3, #1
    2738:	6037      	str	r7, [r6, #0]
    273a:	f886 8004 	strb.w	r8, [r6, #4]
    273e:	71b3      	strb	r3, [r6, #6]
    2740:	2000      	movs	r0, #0
    2742:	e8bd 81f0 	ldmia.w	sp!, {r4, r5, r6, r7, r8, pc}
    2746:	9907      	ldr	r1, [sp, #28]
    2748:	f7ff ff12 	bl	2570 <std::type_info::__equal(std::type_info const&) const>
    274c:	2800      	cmp	r0, #0
    274e:	d0ed      	beq.n	272c <__cxxabiv1::__class_type_info::__do_dyncast(int, __cxxabiv1::__class_type_info::__sub_kind, __cxxabiv1::__class_type_info const*, void const*, __cxxabiv1::__class_type_info const*, void const*, __cxxabiv1::__class_type_info::__dyncast_result&) const+0x14>
    2750:	f886 8005 	strb.w	r8, [r6, #5]
    2754:	2000      	movs	r0, #0
    2756:	e8bd 81f0 	ldmia.w	sp!, {r4, r5, r6, r7, r8, pc}
    275a:	bf00      	nop

0000275c <__cxxabiv1::__class_type_info::__do_upcast(__cxxabiv1::__class_type_info const*, void const*, __cxxabiv1::__class_type_info::__upcast_result&) const>:
    275c:	b538      	push	{r3, r4, r5, lr}
    275e:	4615      	mov	r5, r2
    2760:	461c      	mov	r4, r3
    2762:	f7ff ff05 	bl	2570 <std::type_info::__equal(std::type_info const&) const>
    2766:	b900      	cbnz	r0, 276a <__cxxabiv1::__class_type_info::__do_upcast(__cxxabiv1::__class_type_info const*, void const*, __cxxabiv1::__class_type_info::__upcast_result&) const+0xe>
    2768:	bd38      	pop	{r3, r4, r5, pc}
    276a:	2208      	movs	r2, #8
    276c:	2306      	movs	r3, #6
    276e:	6025      	str	r5, [r4, #0]
    2770:	60e2      	str	r2, [r4, #12]
    2772:	7123      	strb	r3, [r4, #4]
    2774:	bd38      	pop	{r3, r4, r5, pc}
    2776:	bf00      	nop

00002778 <__cxxabiv1::__class_type_info::__do_catch(std::type_info const*, void**, unsigned int) const>:
    2778:	e92d 41f0 	stmdb	sp!, {r4, r5, r6, r7, r8, lr}
    277c:	4606      	mov	r6, r0
    277e:	4617      	mov	r7, r2
    2780:	461d      	mov	r5, r3
    2782:	460c      	mov	r4, r1
    2784:	f7ff fef4 	bl	2570 <std::type_info::__equal(std::type_info const&) const>
    2788:	b948      	cbnz	r0, 279e <__cxxabiv1::__class_type_info::__do_catch(std::type_info const*, void**, unsigned int) const+0x26>
    278a:	2d03      	cmp	r5, #3
    278c:	d807      	bhi.n	279e <__cxxabiv1::__class_type_info::__do_catch(std::type_info const*, void**, unsigned int) const+0x26>
    278e:	6823      	ldr	r3, [r4, #0]
    2790:	463a      	mov	r2, r7
    2792:	4631      	mov	r1, r6
    2794:	4620      	mov	r0, r4
    2796:	695b      	ldr	r3, [r3, #20]
    2798:	e8bd 41f0 	ldmia.w	sp!, {r4, r5, r6, r7, r8, lr}
    279c:	4718      	bx	r3
    279e:	e8bd 81f0 	ldmia.w	sp!, {r4, r5, r6, r7, r8, pc}
    27a2:	bf00      	nop

000027a4 <d_make_comp>:
    27a4:	2931      	cmp	r1, #49	; 0x31
    27a6:	b570      	push	{r4, r5, r6, lr}
    27a8:	4686      	mov	lr, r0
    27aa:	d845      	bhi.n	2838 <d_make_comp+0x94>
    27ac:	2928      	cmp	r1, #40	; 0x28
    27ae:	d82a      	bhi.n	2806 <d_make_comp+0x62>
    27b0:	290a      	cmp	r1, #10
    27b2:	d920      	bls.n	27f6 <d_make_comp+0x52>
    27b4:	f1a1 0c0b 	sub.w	ip, r1, #11
    27b8:	4c32      	ldr	r4, [pc, #200]	; (2884 <d_make_comp+0xe0>)
    27ba:	fa5f fc8c 	uxtb.w	ip, ip
    27be:	2001      	movs	r0, #1
    27c0:	fa00 f00c 	lsl.w	r0, r0, ip
    27c4:	4004      	ands	r4, r0
    27c6:	2c00      	cmp	r4, #0
    27c8:	d04d      	beq.n	2866 <d_make_comp+0xc2>
    27ca:	b1d2      	cbz	r2, 2802 <d_make_comp+0x5e>
    27cc:	e9de 4005 	ldrd	r4, r0, [lr, #20]
    27d0:	4284      	cmp	r4, r0
    27d2:	da16      	bge.n	2802 <d_make_comp+0x5e>
    27d4:	f8de 5010 	ldr.w	r5, [lr, #16]
    27d8:	eb04 0c84 	add.w	ip, r4, r4, lsl #2
    27dc:	eb05 008c 	add.w	r0, r5, ip, lsl #2
    27e0:	2600      	movs	r6, #0
    27e2:	3401      	adds	r4, #1
    27e4:	6046      	str	r6, [r0, #4]
    27e6:	6086      	str	r6, [r0, #8]
    27e8:	f8ce 4014 	str.w	r4, [lr, #20]
    27ec:	f805 102c 	strb.w	r1, [r5, ip, lsl #2]
    27f0:	e9c0 2303 	strd	r2, r3, [r0, #12]
    27f4:	bd70      	pop	{r4, r5, r6, pc}
    27f6:	2904      	cmp	r1, #4
    27f8:	d930      	bls.n	285c <d_make_comp+0xb8>
    27fa:	f1a1 0009 	sub.w	r0, r1, #9
    27fe:	2801      	cmp	r0, #1
    2800:	d9e3      	bls.n	27ca <d_make_comp+0x26>
    2802:	2000      	movs	r0, #0
    2804:	bd70      	pop	{r4, r5, r6, pc}
    2806:	f1a1 0029 	sub.w	r0, r1, #41	; 0x29
    280a:	2808      	cmp	r0, #8
    280c:	d8f9      	bhi.n	2802 <d_make_comp+0x5e>
    280e:	a401      	add	r4, pc, #4	; (adr r4, 2814 <d_make_comp+0x70>)
    2810:	f854 f020 	ldr.w	pc, [r4, r0, lsl #2]
    2814:	000027cd 	.word	0x000027cd
    2818:	00002861 	.word	0x00002861
    281c:	0000285d 	.word	0x0000285d
    2820:	00002803 	.word	0x00002803
    2824:	0000285d 	.word	0x0000285d
    2828:	000027cd 	.word	0x000027cd
    282c:	000027cd 	.word	0x000027cd
    2830:	000027cb 	.word	0x000027cb
    2834:	00002861 	.word	0x00002861
    2838:	f1a1 0034 	sub.w	r0, r1, #52	; 0x34
    283c:	b2c0      	uxtb	r0, r0
    283e:	281d      	cmp	r0, #29
    2840:	d8df      	bhi.n	2802 <d_make_comp+0x5e>
    2842:	4c11      	ldr	r4, [pc, #68]	; (2888 <d_make_comp+0xe4>)
    2844:	f04f 0c01 	mov.w	ip, #1
    2848:	fa0c fc00 	lsl.w	ip, ip, r0
    284c:	ea0c 0404 	and.w	r4, ip, r4
    2850:	2c00      	cmp	r4, #0
    2852:	d1ba      	bne.n	27ca <d_make_comp+0x26>
    2854:	480d      	ldr	r0, [pc, #52]	; (288c <d_make_comp+0xe8>)
    2856:	ea0c 0000 	and.w	r0, ip, r0
    285a:	b170      	cbz	r0, 287a <d_make_comp+0xd6>
    285c:	2a00      	cmp	r2, #0
    285e:	d0d0      	beq.n	2802 <d_make_comp+0x5e>
    2860:	2b00      	cmp	r3, #0
    2862:	d1b3      	bne.n	27cc <d_make_comp+0x28>
    2864:	e7cd      	b.n	2802 <d_make_comp+0x5e>
    2866:	f410 1f7f 	tst.w	r0, #4177920	; 0x3fc000
    286a:	d1af      	bne.n	27cc <d_make_comp+0x28>
    286c:	4c08      	ldr	r4, [pc, #32]	; (2890 <d_make_comp+0xec>)
    286e:	4004      	ands	r4, r0
    2870:	2c00      	cmp	r4, #0
    2872:	d0c6      	beq.n	2802 <d_make_comp+0x5e>
    2874:	2a00      	cmp	r2, #0
    2876:	d1f3      	bne.n	2860 <d_make_comp+0xbc>
    2878:	e7c3      	b.n	2802 <d_make_comp+0x5e>
    287a:	f01c 5c50 	ands.w	ip, ip, #872415232	; 0x34000000
    287e:	d0c0      	beq.n	2802 <d_make_comp+0x5e>
    2880:	e7a4      	b.n	27cc <d_make_comp+0x28>
    2882:	bf00      	nop
    2884:	2f801ffe 	.word	0x2f801ffe
    2888:	01c71107 	.word	0x01c71107
    288c:	0a002ef8 	.word	0x0a002ef8
    2890:	00400001 	.word	0x00400001

00002894 <d_number>:
    2894:	b5f0      	push	{r4, r5, r6, r7, lr}
    2896:	68c2      	ldr	r2, [r0, #12]
    2898:	7811      	ldrb	r1, [r2, #0]
    289a:	296e      	cmp	r1, #110	; 0x6e
    289c:	4686      	mov	lr, r0
    289e:	d025      	beq.n	28ec <d_number+0x58>
    28a0:	3930      	subs	r1, #48	; 0x30
    28a2:	b2cb      	uxtb	r3, r1
    28a4:	2b09      	cmp	r3, #9
    28a6:	d82b      	bhi.n	2900 <d_number+0x6c>
    28a8:	2600      	movs	r6, #0
    28aa:	4d16      	ldr	r5, [pc, #88]	; (2904 <d_number+0x70>)
    28ac:	2000      	movs	r0, #0
    28ae:	f06f 4400 	mvn.w	r4, #2147483648	; 0x80000000
    28b2:	e002      	b.n	28ba <d_number+0x26>
    28b4:	ebb0 0fd3 	cmp.w	r0, r3, lsr #3
    28b8:	dc15      	bgt.n	28e6 <d_number+0x52>
    28ba:	3201      	adds	r2, #1
    28bc:	f8ce 200c 	str.w	r2, [lr, #12]
    28c0:	7813      	ldrb	r3, [r2, #0]
    28c2:	3b30      	subs	r3, #48	; 0x30
    28c4:	fa5f fc83 	uxtb.w	ip, r3
    28c8:	eb00 0080 	add.w	r0, r0, r0, lsl #2
    28cc:	eb01 0040 	add.w	r0, r1, r0, lsl #1
    28d0:	f1bc 0f09 	cmp.w	ip, #9
    28d4:	4619      	mov	r1, r3
    28d6:	eba4 0303 	sub.w	r3, r4, r3
    28da:	fba5 7303 	umull	r7, r3, r5, r3
    28de:	d9e9      	bls.n	28b4 <d_number+0x20>
    28e0:	b106      	cbz	r6, 28e4 <d_number+0x50>
    28e2:	4240      	negs	r0, r0
    28e4:	bdf0      	pop	{r4, r5, r6, r7, pc}
    28e6:	f04f 30ff 	mov.w	r0, #4294967295
    28ea:	bdf0      	pop	{r4, r5, r6, r7, pc}
    28ec:	1c53      	adds	r3, r2, #1
    28ee:	60c3      	str	r3, [r0, #12]
    28f0:	7851      	ldrb	r1, [r2, #1]
    28f2:	3930      	subs	r1, #48	; 0x30
    28f4:	b2ca      	uxtb	r2, r1
    28f6:	2a09      	cmp	r2, #9
    28f8:	d802      	bhi.n	2900 <d_number+0x6c>
    28fa:	461a      	mov	r2, r3
    28fc:	2601      	movs	r6, #1
    28fe:	e7d4      	b.n	28aa <d_number+0x16>
    2900:	2000      	movs	r0, #0
    2902:	bdf0      	pop	{r4, r5, r6, r7, pc}
    2904:	cccccccd 	.word	0xcccccccd

00002908 <d_call_offset>:
    2908:	b510      	push	{r4, lr}
    290a:	4604      	mov	r4, r0
    290c:	b929      	cbnz	r1, 291a <d_call_offset+0x12>
    290e:	68c3      	ldr	r3, [r0, #12]
    2910:	781a      	ldrb	r2, [r3, #0]
    2912:	b16a      	cbz	r2, 2930 <d_call_offset+0x28>
    2914:	1c5a      	adds	r2, r3, #1
    2916:	60c2      	str	r2, [r0, #12]
    2918:	7819      	ldrb	r1, [r3, #0]
    291a:	2968      	cmp	r1, #104	; 0x68
    291c:	d00c      	beq.n	2938 <d_call_offset+0x30>
    291e:	2976      	cmp	r1, #118	; 0x76
    2920:	d106      	bne.n	2930 <d_call_offset+0x28>
    2922:	4620      	mov	r0, r4
    2924:	f7ff ffb6 	bl	2894 <d_number>
    2928:	68e3      	ldr	r3, [r4, #12]
    292a:	781a      	ldrb	r2, [r3, #0]
    292c:	2a5f      	cmp	r2, #95	; 0x5f
    292e:	d001      	beq.n	2934 <d_call_offset+0x2c>
    2930:	2000      	movs	r0, #0
    2932:	bd10      	pop	{r4, pc}
    2934:	3301      	adds	r3, #1
    2936:	60e3      	str	r3, [r4, #12]
    2938:	4620      	mov	r0, r4
    293a:	f7ff ffab 	bl	2894 <d_number>
    293e:	68e3      	ldr	r3, [r4, #12]
    2940:	781a      	ldrb	r2, [r3, #0]
    2942:	2a5f      	cmp	r2, #95	; 0x5f
    2944:	d1f4      	bne.n	2930 <d_call_offset+0x28>
    2946:	3301      	adds	r3, #1
    2948:	60e3      	str	r3, [r4, #12]
    294a:	2001      	movs	r0, #1
    294c:	bd10      	pop	{r4, pc}
    294e:	bf00      	nop

00002950 <d_discriminator>:
    2950:	68c3      	ldr	r3, [r0, #12]
    2952:	781a      	ldrb	r2, [r3, #0]
    2954:	2a5f      	cmp	r2, #95	; 0x5f
    2956:	d001      	beq.n	295c <d_discriminator+0xc>
    2958:	2001      	movs	r0, #1
    295a:	4770      	bx	lr
    295c:	b510      	push	{r4, lr}
    295e:	1c5a      	adds	r2, r3, #1
    2960:	60c2      	str	r2, [r0, #12]
    2962:	785a      	ldrb	r2, [r3, #1]
    2964:	2a5f      	cmp	r2, #95	; 0x5f
    2966:	4604      	mov	r4, r0
    2968:	d004      	beq.n	2974 <d_discriminator+0x24>
    296a:	f7ff ff93 	bl	2894 <d_number>
    296e:	43c0      	mvns	r0, r0
    2970:	0fc0      	lsrs	r0, r0, #31
    2972:	bd10      	pop	{r4, pc}
    2974:	3302      	adds	r3, #2
    2976:	60c3      	str	r3, [r0, #12]
    2978:	f7ff ff8c 	bl	2894 <d_number>
    297c:	2800      	cmp	r0, #0
    297e:	db07      	blt.n	2990 <d_discriminator+0x40>
    2980:	2809      	cmp	r0, #9
    2982:	dc01      	bgt.n	2988 <d_discriminator+0x38>
    2984:	2001      	movs	r0, #1
    2986:	bd10      	pop	{r4, pc}
    2988:	68e3      	ldr	r3, [r4, #12]
    298a:	781a      	ldrb	r2, [r3, #0]
    298c:	2a5f      	cmp	r2, #95	; 0x5f
    298e:	d001      	beq.n	2994 <d_discriminator+0x44>
    2990:	2000      	movs	r0, #0
    2992:	bd10      	pop	{r4, pc}
    2994:	3301      	adds	r3, #1
    2996:	60e3      	str	r3, [r4, #12]
    2998:	e7f4      	b.n	2984 <d_discriminator+0x34>
    299a:	bf00      	nop

0000299c <d_count_templates_scopes>:
    299c:	2900      	cmp	r1, #0
    299e:	d066      	beq.n	2a6e <d_count_templates_scopes+0xd2>
    29a0:	b538      	push	{r3, r4, r5, lr}
    29a2:	4605      	mov	r5, r0
    29a4:	460c      	mov	r4, r1
    29a6:	68a3      	ldr	r3, [r4, #8]
    29a8:	2b01      	cmp	r3, #1
    29aa:	dc39      	bgt.n	2a20 <d_count_templates_scopes+0x84>
    29ac:	f8d5 011c 	ldr.w	r0, [r5, #284]	; 0x11c
    29b0:	f5b0 6f80 	cmp.w	r0, #1024	; 0x400
    29b4:	f103 0301 	add.w	r3, r3, #1
    29b8:	dc32      	bgt.n	2a20 <d_count_templates_scopes+0x84>
    29ba:	7822      	ldrb	r2, [r4, #0]
    29bc:	60a3      	str	r3, [r4, #8]
    29be:	1e53      	subs	r3, r2, #1
    29c0:	2b50      	cmp	r3, #80	; 0x50
    29c2:	d82d      	bhi.n	2a20 <d_count_templates_scopes+0x84>
    29c4:	e8df f003 	tbb	[pc, r3]
    29c8:	4c313131 	.word	0x4c313131
    29cc:	2d2d2c2c 	.word	0x2d2d2c2c
    29d0:	31313131 	.word	0x31313131
    29d4:	31313131 	.word	0x31313131
    29d8:	31313131 	.word	0x31313131
    29dc:	2c313131 	.word	0x2c313131
    29e0:	31313131 	.word	0x31313131
    29e4:	31313131 	.word	0x31313131
    29e8:	42423131 	.word	0x42423131
    29ec:	312c3131 	.word	0x312c3131
    29f0:	29313131 	.word	0x29313131
    29f4:	31313131 	.word	0x31313131
    29f8:	312d2c31 	.word	0x312d2c31
    29fc:	31313131 	.word	0x31313131
    2a00:	31313131 	.word	0x31313131
    2a04:	31313131 	.word	0x31313131
    2a08:	312c2c31 	.word	0x312c2c31
    2a0c:	29292929 	.word	0x29292929
    2a10:	3131312c 	.word	0x3131312c
    2a14:	31313131 	.word	0x31313131
    2a18:	31          	.byte	0x31
    2a19:	00          	.byte	0x00
    2a1a:	68e4      	ldr	r4, [r4, #12]
    2a1c:	2c00      	cmp	r4, #0
    2a1e:	d1c2      	bne.n	29a6 <d_count_templates_scopes+0xa>
    2a20:	bd38      	pop	{r3, r4, r5, pc}
    2a22:	6924      	ldr	r4, [r4, #16]
    2a24:	2c00      	cmp	r4, #0
    2a26:	d1be      	bne.n	29a6 <d_count_templates_scopes+0xa>
    2a28:	e7fa      	b.n	2a20 <d_count_templates_scopes+0x84>
    2a2a:	68e1      	ldr	r1, [r4, #12]
    2a2c:	1c43      	adds	r3, r0, #1
    2a2e:	f8c5 311c 	str.w	r3, [r5, #284]	; 0x11c
    2a32:	4628      	mov	r0, r5
    2a34:	f7ff ffb2 	bl	299c <d_count_templates_scopes>
    2a38:	6921      	ldr	r1, [r4, #16]
    2a3a:	4628      	mov	r0, r5
    2a3c:	f7ff ffae 	bl	299c <d_count_templates_scopes>
    2a40:	f8d5 311c 	ldr.w	r3, [r5, #284]	; 0x11c
    2a44:	3b01      	subs	r3, #1
    2a46:	f8c5 311c 	str.w	r3, [r5, #284]	; 0x11c
    2a4a:	bd38      	pop	{r3, r4, r5, pc}
    2a4c:	68e1      	ldr	r1, [r4, #12]
    2a4e:	780b      	ldrb	r3, [r1, #0]
    2a50:	2b05      	cmp	r3, #5
    2a52:	d1eb      	bne.n	2a2c <d_count_templates_scopes+0x90>
    2a54:	f8d5 3138 	ldr.w	r3, [r5, #312]	; 0x138
    2a58:	3301      	adds	r3, #1
    2a5a:	f8c5 3138 	str.w	r3, [r5, #312]	; 0x138
    2a5e:	e7e5      	b.n	2a2c <d_count_templates_scopes+0x90>
    2a60:	f8d5 3144 	ldr.w	r3, [r5, #324]	; 0x144
    2a64:	68e1      	ldr	r1, [r4, #12]
    2a66:	3301      	adds	r3, #1
    2a68:	f8c5 3144 	str.w	r3, [r5, #324]	; 0x144
    2a6c:	e7de      	b.n	2a2c <d_count_templates_scopes+0x90>
    2a6e:	4770      	bx	lr

00002a70 <d_pack_length>:
    2a70:	4603      	mov	r3, r0
    2a72:	2000      	movs	r0, #0
    2a74:	b92b      	cbnz	r3, 2a82 <d_pack_length+0x12>
    2a76:	e009      	b.n	2a8c <d_pack_length+0x1c>
    2a78:	68da      	ldr	r2, [r3, #12]
    2a7a:	b12a      	cbz	r2, 2a88 <d_pack_length+0x18>
    2a7c:	691b      	ldr	r3, [r3, #16]
    2a7e:	3001      	adds	r0, #1
    2a80:	b11b      	cbz	r3, 2a8a <d_pack_length+0x1a>
    2a82:	781a      	ldrb	r2, [r3, #0]
    2a84:	2a2f      	cmp	r2, #47	; 0x2f
    2a86:	d0f7      	beq.n	2a78 <d_pack_length+0x8>
    2a88:	4770      	bx	lr
    2a8a:	4770      	bx	lr
    2a8c:	4618      	mov	r0, r3
    2a8e:	4770      	bx	lr

00002a90 <d_index_template_argument.part.0>:
    2a90:	b920      	cbnz	r0, 2a9c <d_index_template_argument.part.0+0xc>
    2a92:	e009      	b.n	2aa8 <d_index_template_argument.part.0+0x18>
    2a94:	b139      	cbz	r1, 2aa6 <d_index_template_argument.part.0+0x16>
    2a96:	6900      	ldr	r0, [r0, #16]
    2a98:	3901      	subs	r1, #1
    2a9a:	b130      	cbz	r0, 2aaa <d_index_template_argument.part.0+0x1a>
    2a9c:	7803      	ldrb	r3, [r0, #0]
    2a9e:	2b2f      	cmp	r3, #47	; 0x2f
    2aa0:	d0f8      	beq.n	2a94 <d_index_template_argument.part.0+0x4>
    2aa2:	2000      	movs	r0, #0
    2aa4:	4770      	bx	lr
    2aa6:	68c0      	ldr	r0, [r0, #12]
    2aa8:	4770      	bx	lr
    2aaa:	4770      	bx	lr

00002aac <d_growable_string_callback_adapter>:
    2aac:	b5f0      	push	{r4, r5, r6, r7, lr}
    2aae:	4614      	mov	r4, r2
    2ab0:	6852      	ldr	r2, [r2, #4]
    2ab2:	68a5      	ldr	r5, [r4, #8]
    2ab4:	1c4b      	adds	r3, r1, #1
    2ab6:	4413      	add	r3, r2
    2ab8:	42ab      	cmp	r3, r5
    2aba:	b083      	sub	sp, #12
    2abc:	460e      	mov	r6, r1
    2abe:	4607      	mov	r7, r0
    2ac0:	d811      	bhi.n	2ae6 <d_growable_string_callback_adapter+0x3a>
    2ac2:	68e5      	ldr	r5, [r4, #12]
    2ac4:	b96d      	cbnz	r5, 2ae2 <d_growable_string_callback_adapter+0x36>
    2ac6:	6863      	ldr	r3, [r4, #4]
    2ac8:	6820      	ldr	r0, [r4, #0]
    2aca:	4632      	mov	r2, r6
    2acc:	4418      	add	r0, r3
    2ace:	4639      	mov	r1, r7
    2ad0:	f010 fba6 	bl	13220 <memcpy>
    2ad4:	e9d4 3200 	ldrd	r3, r2, [r4]
    2ad8:	4433      	add	r3, r6
    2ada:	549d      	strb	r5, [r3, r2]
    2adc:	6863      	ldr	r3, [r4, #4]
    2ade:	4433      	add	r3, r6
    2ae0:	6063      	str	r3, [r4, #4]
    2ae2:	b003      	add	sp, #12
    2ae4:	bdf0      	pop	{r4, r5, r6, r7, pc}
    2ae6:	68e2      	ldr	r2, [r4, #12]
    2ae8:	2a00      	cmp	r2, #0
    2aea:	d1fa      	bne.n	2ae2 <d_growable_string_callback_adapter+0x36>
    2aec:	b155      	cbz	r5, 2b04 <d_growable_string_callback_adapter+0x58>
    2aee:	006d      	lsls	r5, r5, #1
    2af0:	42ab      	cmp	r3, r5
    2af2:	d8fc      	bhi.n	2aee <d_growable_string_callback_adapter+0x42>
    2af4:	6820      	ldr	r0, [r4, #0]
    2af6:	4629      	mov	r1, r5
    2af8:	f007 fce4 	bl	a4c4 <realloc>
    2afc:	b138      	cbz	r0, 2b0e <d_growable_string_callback_adapter+0x62>
    2afe:	6020      	str	r0, [r4, #0]
    2b00:	60a5      	str	r5, [r4, #8]
    2b02:	e7de      	b.n	2ac2 <d_growable_string_callback_adapter+0x16>
    2b04:	2b02      	cmp	r3, #2
    2b06:	f04f 0502 	mov.w	r5, #2
    2b0a:	d8f0      	bhi.n	2aee <d_growable_string_callback_adapter+0x42>
    2b0c:	e7f2      	b.n	2af4 <d_growable_string_callback_adapter+0x48>
    2b0e:	9001      	str	r0, [sp, #4]
    2b10:	6820      	ldr	r0, [r4, #0]
    2b12:	f007 fa15 	bl	9f40 <free>
    2b16:	9b01      	ldr	r3, [sp, #4]
    2b18:	6023      	str	r3, [r4, #0]
    2b1a:	2201      	movs	r2, #1
    2b1c:	6063      	str	r3, [r4, #4]
    2b1e:	60a3      	str	r3, [r4, #8]
    2b20:	60e2      	str	r2, [r4, #12]
    2b22:	e7de      	b.n	2ae2 <d_growable_string_callback_adapter+0x36>

00002b24 <next_is_type_qual.isra.0>:
    2b24:	7803      	ldrb	r3, [r0, #0]
    2b26:	2b72      	cmp	r3, #114	; 0x72
    2b28:	d007      	beq.n	2b3a <next_is_type_qual.isra.0+0x16>
    2b2a:	2b56      	cmp	r3, #86	; 0x56
    2b2c:	d005      	beq.n	2b3a <next_is_type_qual.isra.0+0x16>
    2b2e:	2b4b      	cmp	r3, #75	; 0x4b
    2b30:	d003      	beq.n	2b3a <next_is_type_qual.isra.0+0x16>
    2b32:	2b44      	cmp	r3, #68	; 0x44
    2b34:	d003      	beq.n	2b3e <next_is_type_qual.isra.0+0x1a>
    2b36:	2000      	movs	r0, #0
    2b38:	4770      	bx	lr
    2b3a:	2001      	movs	r0, #1
    2b3c:	4770      	bx	lr
    2b3e:	7840      	ldrb	r0, [r0, #1]
    2b40:	f1a0 0377 	sub.w	r3, r0, #119	; 0x77
    2b44:	2b01      	cmp	r3, #1
    2b46:	d9f8      	bls.n	2b3a <next_is_type_qual.isra.0+0x16>
    2b48:	f000 00df 	and.w	r0, r0, #223	; 0xdf
    2b4c:	f1a0 004f 	sub.w	r0, r0, #79	; 0x4f
    2b50:	fab0 f080 	clz	r0, r0
    2b54:	0940      	lsrs	r0, r0, #5
    2b56:	4770      	bx	lr

00002b58 <d_append_char>:
    2b58:	f8d0 3100 	ldr.w	r3, [r0, #256]	; 0x100
    2b5c:	2bff      	cmp	r3, #255	; 0xff
    2b5e:	b570      	push	{r4, r5, r6, lr}
    2b60:	4604      	mov	r4, r0
    2b62:	460d      	mov	r5, r1
    2b64:	d006      	beq.n	2b74 <d_append_char+0x1c>
    2b66:	1c5a      	adds	r2, r3, #1
    2b68:	f8c4 2100 	str.w	r2, [r4, #256]	; 0x100
    2b6c:	54e5      	strb	r5, [r4, r3]
    2b6e:	f884 5104 	strb.w	r5, [r4, #260]	; 0x104
    2b72:	bd70      	pop	{r4, r5, r6, pc}
    2b74:	2600      	movs	r6, #0
    2b76:	4619      	mov	r1, r3
    2b78:	f880 60ff 	strb.w	r6, [r0, #255]	; 0xff
    2b7c:	e9d0 3242 	ldrd	r3, r2, [r0, #264]	; 0x108
    2b80:	4798      	blx	r3
    2b82:	f8d4 3128 	ldr.w	r3, [r4, #296]	; 0x128
    2b86:	2201      	movs	r2, #1
    2b88:	4413      	add	r3, r2
    2b8a:	f8c4 3128 	str.w	r3, [r4, #296]	; 0x128
    2b8e:	4633      	mov	r3, r6
    2b90:	f8c4 2100 	str.w	r2, [r4, #256]	; 0x100
    2b94:	54e5      	strb	r5, [r4, r3]
    2b96:	f884 5104 	strb.w	r5, [r4, #260]	; 0x104
    2b9a:	bd70      	pop	{r4, r5, r6, pc}

00002b9c <d_lookup_template_argument>:
    2b9c:	f8d0 3110 	ldr.w	r3, [r0, #272]	; 0x110
    2ba0:	b18b      	cbz	r3, 2bc6 <d_lookup_template_argument+0x2a>
    2ba2:	685a      	ldr	r2, [r3, #4]
    2ba4:	68cb      	ldr	r3, [r1, #12]
    2ba6:	6910      	ldr	r0, [r2, #16]
    2ba8:	2b00      	cmp	r3, #0
    2baa:	db0b      	blt.n	2bc4 <d_lookup_template_argument+0x28>
    2bac:	b920      	cbnz	r0, 2bb8 <d_lookup_template_argument+0x1c>
    2bae:	e006      	b.n	2bbe <d_lookup_template_argument+0x22>
    2bb0:	b13b      	cbz	r3, 2bc2 <d_lookup_template_argument+0x26>
    2bb2:	6900      	ldr	r0, [r0, #16]
    2bb4:	3b01      	subs	r3, #1
    2bb6:	b110      	cbz	r0, 2bbe <d_lookup_template_argument+0x22>
    2bb8:	7802      	ldrb	r2, [r0, #0]
    2bba:	2a2f      	cmp	r2, #47	; 0x2f
    2bbc:	d0f8      	beq.n	2bb0 <d_lookup_template_argument+0x14>
    2bbe:	2000      	movs	r0, #0
    2bc0:	4770      	bx	lr
    2bc2:	68c0      	ldr	r0, [r0, #12]
    2bc4:	4770      	bx	lr
    2bc6:	2301      	movs	r3, #1
    2bc8:	f8c0 3118 	str.w	r3, [r0, #280]	; 0x118
    2bcc:	e7f7      	b.n	2bbe <d_lookup_template_argument+0x22>
    2bce:	bf00      	nop

00002bd0 <d_find_pack>:
    2bd0:	2900      	cmp	r1, #0
    2bd2:	d040      	beq.n	2c56 <d_find_pack+0x86>
    2bd4:	e92d 41f0 	stmdb	sp!, {r4, r5, r6, r7, r8, lr}
    2bd8:	f8df 8084 	ldr.w	r8, [pc, #132]	; 2c60 <d_find_pack+0x90>
    2bdc:	4f1f      	ldr	r7, [pc, #124]	; (2c5c <d_find_pack+0x8c>)
    2bde:	4605      	mov	r5, r0
    2be0:	460c      	mov	r4, r1
    2be2:	2601      	movs	r6, #1
    2be4:	7823      	ldrb	r3, [r4, #0]
    2be6:	2b08      	cmp	r3, #8
    2be8:	d808      	bhi.n	2bfc <d_find_pack+0x2c>
    2bea:	2b08      	cmp	r3, #8
    2bec:	d813      	bhi.n	2c16 <d_find_pack+0x46>
    2bee:	e8df f003 	tbb	[pc, r3]
    2bf2:	121a      	.short	0x121a
    2bf4:	27121212 	.word	0x27121212
    2bf8:	171a      	.short	0x171a
    2bfa:	17          	.byte	0x17
    2bfb:	00          	.byte	0x00
    2bfc:	2b2c      	cmp	r3, #44	; 0x2c
    2bfe:	d915      	bls.n	2c2c <d_find_pack+0x5c>
    2c00:	3b32      	subs	r3, #50	; 0x32
    2c02:	b2db      	uxtb	r3, r3
    2c04:	2b1b      	cmp	r3, #27
    2c06:	d806      	bhi.n	2c16 <d_find_pack+0x46>
    2c08:	fa06 f203 	lsl.w	r2, r6, r3
    2c0c:	ea12 0f08 	tst.w	r2, r8
    2c10:	d109      	bne.n	2c26 <d_find_pack+0x56>
    2c12:	2b01      	cmp	r3, #1
    2c14:	d004      	beq.n	2c20 <d_find_pack+0x50>
    2c16:	68e1      	ldr	r1, [r4, #12]
    2c18:	4628      	mov	r0, r5
    2c1a:	f7ff ffd9 	bl	2bd0 <d_find_pack>
    2c1e:	b918      	cbnz	r0, 2c28 <d_find_pack+0x58>
    2c20:	6924      	ldr	r4, [r4, #16]
    2c22:	2c00      	cmp	r4, #0
    2c24:	d1de      	bne.n	2be4 <d_find_pack+0x14>
    2c26:	2000      	movs	r0, #0
    2c28:	e8bd 81f0 	ldmia.w	sp!, {r4, r5, r6, r7, r8, pc}
    2c2c:	2b17      	cmp	r3, #23
    2c2e:	d9f2      	bls.n	2c16 <d_find_pack+0x46>
    2c30:	3b18      	subs	r3, #24
    2c32:	b2db      	uxtb	r3, r3
    2c34:	fa27 f303 	lsr.w	r3, r7, r3
    2c38:	07db      	lsls	r3, r3, #31
    2c3a:	d5ec      	bpl.n	2c16 <d_find_pack+0x46>
    2c3c:	2000      	movs	r0, #0
    2c3e:	e7f3      	b.n	2c28 <d_find_pack+0x58>
    2c40:	4621      	mov	r1, r4
    2c42:	4628      	mov	r0, r5
    2c44:	f7ff ffaa 	bl	2b9c <d_lookup_template_argument>
    2c48:	2800      	cmp	r0, #0
    2c4a:	d0ec      	beq.n	2c26 <d_find_pack+0x56>
    2c4c:	7803      	ldrb	r3, [r0, #0]
    2c4e:	2b2f      	cmp	r3, #47	; 0x2f
    2c50:	d0ea      	beq.n	2c28 <d_find_pack+0x58>
    2c52:	2000      	movs	r0, #0
    2c54:	e7e8      	b.n	2c28 <d_find_pack+0x58>
    2c56:	2000      	movs	r0, #0
    2c58:	4770      	bx	lr
    2c5a:	bf00      	nop
    2c5c:	00108001 	.word	0x00108001
    2c60:	0ce30001 	.word	0x0ce30001

00002c64 <d_append_string>:
    2c64:	e92d 41f0 	stmdb	sp!, {r4, r5, r6, r7, r8, lr}
    2c68:	4604      	mov	r4, r0
    2c6a:	4608      	mov	r0, r1
    2c6c:	460d      	mov	r5, r1
    2c6e:	f010 fb87 	bl	13380 <strlen>
    2c72:	b340      	cbz	r0, 2cc6 <d_append_string+0x62>
    2c74:	3d01      	subs	r5, #1
    2c76:	f8d4 1100 	ldr.w	r1, [r4, #256]	; 0x100
    2c7a:	182f      	adds	r7, r5, r0
    2c7c:	f04f 0800 	mov.w	r8, #0
    2c80:	e009      	b.n	2c96 <d_append_string+0x32>
    2c82:	460b      	mov	r3, r1
    2c84:	42bd      	cmp	r5, r7
    2c86:	f101 0101 	add.w	r1, r1, #1
    2c8a:	f8c4 1100 	str.w	r1, [r4, #256]	; 0x100
    2c8e:	54e6      	strb	r6, [r4, r3]
    2c90:	f884 6104 	strb.w	r6, [r4, #260]	; 0x104
    2c94:	d017      	beq.n	2cc6 <d_append_string+0x62>
    2c96:	29ff      	cmp	r1, #255	; 0xff
    2c98:	f815 6f01 	ldrb.w	r6, [r5, #1]!
    2c9c:	d1f1      	bne.n	2c82 <d_append_string+0x1e>
    2c9e:	e9d4 3242 	ldrd	r3, r2, [r4, #264]	; 0x108
    2ca2:	f884 80ff 	strb.w	r8, [r4, #255]	; 0xff
    2ca6:	4620      	mov	r0, r4
    2ca8:	4798      	blx	r3
    2caa:	f8d4 3128 	ldr.w	r3, [r4, #296]	; 0x128
    2cae:	2101      	movs	r1, #1
    2cb0:	440b      	add	r3, r1
    2cb2:	f8c4 3128 	str.w	r3, [r4, #296]	; 0x128
    2cb6:	2300      	movs	r3, #0
    2cb8:	42bd      	cmp	r5, r7
    2cba:	f8c4 1100 	str.w	r1, [r4, #256]	; 0x100
    2cbe:	54e6      	strb	r6, [r4, r3]
    2cc0:	f884 6104 	strb.w	r6, [r4, #260]	; 0x104
    2cc4:	d1e7      	bne.n	2c96 <d_append_string+0x32>
    2cc6:	e8bd 81f0 	ldmia.w	sp!, {r4, r5, r6, r7, r8, pc}
    2cca:	bf00      	nop

00002ccc <d_template_param>:
    2ccc:	68c2      	ldr	r2, [r0, #12]
    2cce:	7813      	ldrb	r3, [r2, #0]
    2cd0:	2b54      	cmp	r3, #84	; 0x54
    2cd2:	d12a      	bne.n	2d2a <d_template_param+0x5e>
    2cd4:	b510      	push	{r4, lr}
    2cd6:	1c53      	adds	r3, r2, #1
    2cd8:	60c3      	str	r3, [r0, #12]
    2cda:	7852      	ldrb	r2, [r2, #1]
    2cdc:	2a5f      	cmp	r2, #95	; 0x5f
    2cde:	4604      	mov	r4, r0
    2ce0:	d025      	beq.n	2d2e <d_template_param+0x62>
    2ce2:	2a6e      	cmp	r2, #110	; 0x6e
    2ce4:	d01f      	beq.n	2d26 <d_template_param+0x5a>
    2ce6:	f7ff fdd5 	bl	2894 <d_number>
    2cea:	1c41      	adds	r1, r0, #1
    2cec:	d41b      	bmi.n	2d26 <d_template_param+0x5a>
    2cee:	68e3      	ldr	r3, [r4, #12]
    2cf0:	781a      	ldrb	r2, [r3, #0]
    2cf2:	2a5f      	cmp	r2, #95	; 0x5f
    2cf4:	d117      	bne.n	2d26 <d_template_param+0x5a>
    2cf6:	e9d4 2005 	ldrd	r2, r0, [r4, #20]
    2cfa:	3301      	adds	r3, #1
    2cfc:	4282      	cmp	r2, r0
    2cfe:	60e3      	str	r3, [r4, #12]
    2d00:	da11      	bge.n	2d26 <d_template_param+0x5a>
    2d02:	6923      	ldr	r3, [r4, #16]
    2d04:	eb02 0c82 	add.w	ip, r2, r2, lsl #2
    2d08:	eb03 008c 	add.w	r0, r3, ip, lsl #2
    2d0c:	f04f 0e00 	mov.w	lr, #0
    2d10:	3201      	adds	r2, #1
    2d12:	f8c0 e004 	str.w	lr, [r0, #4]
    2d16:	f8c0 e008 	str.w	lr, [r0, #8]
    2d1a:	6162      	str	r2, [r4, #20]
    2d1c:	2205      	movs	r2, #5
    2d1e:	f803 202c 	strb.w	r2, [r3, ip, lsl #2]
    2d22:	60c1      	str	r1, [r0, #12]
    2d24:	bd10      	pop	{r4, pc}
    2d26:	2000      	movs	r0, #0
    2d28:	bd10      	pop	{r4, pc}
    2d2a:	2000      	movs	r0, #0
    2d2c:	4770      	bx	lr
    2d2e:	2100      	movs	r1, #0
    2d30:	e7e1      	b.n	2cf6 <d_template_param+0x2a>
    2d32:	bf00      	nop

00002d34 <d_append_num>:
    2d34:	e92d 41f0 	stmdb	sp!, {r4, r5, r6, r7, r8, lr}
    2d38:	b088      	sub	sp, #32
    2d3a:	460a      	mov	r2, r1
    2d3c:	4604      	mov	r4, r0
    2d3e:	491a      	ldr	r1, [pc, #104]	; (2da8 <d_append_num+0x74>)
    2d40:	a801      	add	r0, sp, #4
    2d42:	f008 fb2d 	bl	b3a0 <sprintf>
    2d46:	a801      	add	r0, sp, #4
    2d48:	f010 fb1a 	bl	13380 <strlen>
    2d4c:	b340      	cbz	r0, 2da0 <d_append_num+0x6c>
    2d4e:	ad01      	add	r5, sp, #4
    2d50:	f8d4 1100 	ldr.w	r1, [r4, #256]	; 0x100
    2d54:	182f      	adds	r7, r5, r0
    2d56:	f04f 0800 	mov.w	r8, #0
    2d5a:	e009      	b.n	2d70 <d_append_num+0x3c>
    2d5c:	460b      	mov	r3, r1
    2d5e:	42af      	cmp	r7, r5
    2d60:	f101 0101 	add.w	r1, r1, #1
    2d64:	f8c4 1100 	str.w	r1, [r4, #256]	; 0x100
    2d68:	54e6      	strb	r6, [r4, r3]
    2d6a:	f884 6104 	strb.w	r6, [r4, #260]	; 0x104
    2d6e:	d017      	beq.n	2da0 <d_append_num+0x6c>
    2d70:	29ff      	cmp	r1, #255	; 0xff
    2d72:	f815 6b01 	ldrb.w	r6, [r5], #1
    2d76:	d1f1      	bne.n	2d5c <d_append_num+0x28>
    2d78:	e9d4 3242 	ldrd	r3, r2, [r4, #264]	; 0x108
    2d7c:	f884 80ff 	strb.w	r8, [r4, #255]	; 0xff
    2d80:	4620      	mov	r0, r4
    2d82:	4798      	blx	r3
    2d84:	f8d4 3128 	ldr.w	r3, [r4, #296]	; 0x128
    2d88:	2101      	movs	r1, #1
    2d8a:	440b      	add	r3, r1
    2d8c:	f8c4 3128 	str.w	r3, [r4, #296]	; 0x128
    2d90:	2300      	movs	r3, #0
    2d92:	42af      	cmp	r7, r5
    2d94:	f8c4 1100 	str.w	r1, [r4, #256]	; 0x100
    2d98:	54e6      	strb	r6, [r4, r3]
    2d9a:	f884 6104 	strb.w	r6, [r4, #260]	; 0x104
    2d9e:	d1e7      	bne.n	2d70 <d_append_num+0x3c>
    2da0:	b008      	add	sp, #32
    2da2:	e8bd 81f0 	ldmia.w	sp!, {r4, r5, r6, r7, r8, pc}
    2da6:	bf00      	nop
    2da8:	00014214 	.word	0x00014214

00002dac <d_source_name>:
    2dac:	b570      	push	{r4, r5, r6, lr}
    2dae:	4604      	mov	r4, r0
    2db0:	f7ff fd70 	bl	2894 <d_number>
    2db4:	1e05      	subs	r5, r0, #0
    2db6:	dd46      	ble.n	2e46 <d_source_name+0x9a>
    2db8:	68e6      	ldr	r6, [r4, #12]
    2dba:	6863      	ldr	r3, [r4, #4]
    2dbc:	1b9b      	subs	r3, r3, r6
    2dbe:	429d      	cmp	r5, r3
    2dc0:	dc3e      	bgt.n	2e40 <d_source_name+0x94>
    2dc2:	68a2      	ldr	r2, [r4, #8]
    2dc4:	1973      	adds	r3, r6, r5
    2dc6:	0752      	lsls	r2, r2, #29
    2dc8:	60e3      	str	r3, [r4, #12]
    2dca:	d504      	bpl.n	2dd6 <d_source_name+0x2a>
    2dcc:	5d72      	ldrb	r2, [r6, r5]
    2dce:	2a24      	cmp	r2, #36	; 0x24
    2dd0:	bf04      	itt	eq
    2dd2:	3301      	addeq	r3, #1
    2dd4:	60e3      	streq	r3, [r4, #12]
    2dd6:	2d09      	cmp	r5, #9
    2dd8:	dd22      	ble.n	2e20 <d_source_name+0x74>
    2dda:	492a      	ldr	r1, [pc, #168]	; (2e84 <d_source_name+0xd8>)
    2ddc:	2208      	movs	r2, #8
    2dde:	4630      	mov	r0, r6
    2de0:	f008 fbfc 	bl	b5dc <memcmp>
    2de4:	b930      	cbnz	r0, 2df4 <d_source_name+0x48>
    2de6:	7a33      	ldrb	r3, [r6, #8]
    2de8:	2b2e      	cmp	r3, #46	; 0x2e
    2dea:	d02e      	beq.n	2e4a <d_source_name+0x9e>
    2dec:	2b5f      	cmp	r3, #95	; 0x5f
    2dee:	d02c      	beq.n	2e4a <d_source_name+0x9e>
    2df0:	2b24      	cmp	r3, #36	; 0x24
    2df2:	d02a      	beq.n	2e4a <d_source_name+0x9e>
    2df4:	e9d4 3205 	ldrd	r3, r2, [r4, #20]
    2df8:	429a      	cmp	r2, r3
    2dfa:	dd21      	ble.n	2e40 <d_source_name+0x94>
    2dfc:	6920      	ldr	r0, [r4, #16]
    2dfe:	eb03 0283 	add.w	r2, r3, r3, lsl #2
    2e02:	eb00 0082 	add.w	r0, r0, r2, lsl #2
    2e06:	3301      	adds	r3, #1
    2e08:	2200      	movs	r2, #0
    2e0a:	6042      	str	r2, [r0, #4]
    2e0c:	6082      	str	r2, [r0, #8]
    2e0e:	6163      	str	r3, [r4, #20]
    2e10:	2300      	movs	r3, #0
    2e12:	7003      	strb	r3, [r0, #0]
    2e14:	e9c0 6503 	strd	r6, r5, [r0, #12]
    2e18:	6043      	str	r3, [r0, #4]
    2e1a:	6083      	str	r3, [r0, #8]
    2e1c:	62a0      	str	r0, [r4, #40]	; 0x28
    2e1e:	bd70      	pop	{r4, r5, r6, pc}
    2e20:	e9d4 3205 	ldrd	r3, r2, [r4, #20]
    2e24:	4293      	cmp	r3, r2
    2e26:	da0b      	bge.n	2e40 <d_source_name+0x94>
    2e28:	6920      	ldr	r0, [r4, #16]
    2e2a:	eb03 0283 	add.w	r2, r3, r3, lsl #2
    2e2e:	eb00 0082 	add.w	r0, r0, r2, lsl #2
    2e32:	3301      	adds	r3, #1
    2e34:	2200      	movs	r2, #0
    2e36:	6042      	str	r2, [r0, #4]
    2e38:	6082      	str	r2, [r0, #8]
    2e3a:	6163      	str	r3, [r4, #20]
    2e3c:	2e00      	cmp	r6, #0
    2e3e:	d1e7      	bne.n	2e10 <d_source_name+0x64>
    2e40:	2000      	movs	r0, #0
    2e42:	62a0      	str	r0, [r4, #40]	; 0x28
    2e44:	bd70      	pop	{r4, r5, r6, pc}
    2e46:	2000      	movs	r0, #0
    2e48:	bd70      	pop	{r4, r5, r6, pc}
    2e4a:	7a73      	ldrb	r3, [r6, #9]
    2e4c:	2b4e      	cmp	r3, #78	; 0x4e
    2e4e:	d1d1      	bne.n	2df4 <d_source_name+0x48>
    2e50:	6ae2      	ldr	r2, [r4, #44]	; 0x2c
    2e52:	6963      	ldr	r3, [r4, #20]
    2e54:	69a1      	ldr	r1, [r4, #24]
    2e56:	3216      	adds	r2, #22
    2e58:	1b52      	subs	r2, r2, r5
    2e5a:	428b      	cmp	r3, r1
    2e5c:	62e2      	str	r2, [r4, #44]	; 0x2c
    2e5e:	daef      	bge.n	2e40 <d_source_name+0x94>
    2e60:	6922      	ldr	r2, [r4, #16]
    2e62:	eb03 0083 	add.w	r0, r3, r3, lsl #2
    2e66:	0081      	lsls	r1, r0, #2
    2e68:	3301      	adds	r3, #1
    2e6a:	eb02 0080 	add.w	r0, r2, r0, lsl #2
    2e6e:	6163      	str	r3, [r4, #20]
    2e70:	2300      	movs	r3, #0
    2e72:	6043      	str	r3, [r0, #4]
    2e74:	6083      	str	r3, [r0, #8]
    2e76:	5453      	strb	r3, [r2, r1]
    2e78:	4a03      	ldr	r2, [pc, #12]	; (2e88 <d_source_name+0xdc>)
    2e7a:	2315      	movs	r3, #21
    2e7c:	e9c0 2303 	strd	r2, r3, [r0, #12]
    2e80:	e7df      	b.n	2e42 <d_source_name+0x96>
    2e82:	bf00      	nop
    2e84:	00014218 	.word	0x00014218
    2e88:	00014224 	.word	0x00014224

00002e8c <d_substitution>:
    2e8c:	e92d 41f0 	stmdb	sp!, {r4, r5, r6, r7, r8, lr}
    2e90:	68c3      	ldr	r3, [r0, #12]
    2e92:	781a      	ldrb	r2, [r3, #0]
    2e94:	2a53      	cmp	r2, #83	; 0x53
    2e96:	d126      	bne.n	2ee6 <d_substitution+0x5a>
    2e98:	1c5a      	adds	r2, r3, #1
    2e9a:	60c2      	str	r2, [r0, #12]
    2e9c:	4604      	mov	r4, r0
    2e9e:	7858      	ldrb	r0, [r3, #1]
    2ea0:	b348      	cbz	r0, 2ef6 <d_substitution+0x6a>
    2ea2:	1c9a      	adds	r2, r3, #2
    2ea4:	60e2      	str	r2, [r4, #12]
    2ea6:	7858      	ldrb	r0, [r3, #1]
    2ea8:	285f      	cmp	r0, #95	; 0x5f
    2eaa:	d049      	beq.n	2f40 <d_substitution+0xb4>
    2eac:	f1a0 0330 	sub.w	r3, r0, #48	; 0x30
    2eb0:	b2da      	uxtb	r2, r3
    2eb2:	2a09      	cmp	r2, #9
    2eb4:	d81b      	bhi.n	2eee <d_substitution+0x62>
    2eb6:	2200      	movs	r2, #0
    2eb8:	e005      	b.n	2ec6 <d_substitution+0x3a>
    2eba:	60e5      	str	r5, [r4, #12]
    2ebc:	7808      	ldrb	r0, [r1, #0]
    2ebe:	285f      	cmp	r0, #95	; 0x5f
    2ec0:	d034      	beq.n	2f2c <d_substitution+0xa0>
    2ec2:	f1a0 0330 	sub.w	r3, r0, #48	; 0x30
    2ec6:	b2d9      	uxtb	r1, r3
    2ec8:	2909      	cmp	r1, #9
    2eca:	eb02 03c2 	add.w	r3, r2, r2, lsl #3
    2ece:	eb00 0383 	add.w	r3, r0, r3, lsl #2
    2ed2:	d821      	bhi.n	2f18 <d_substitution+0x8c>
    2ed4:	3b30      	subs	r3, #48	; 0x30
    2ed6:	429a      	cmp	r2, r3
    2ed8:	d805      	bhi.n	2ee6 <d_substitution+0x5a>
    2eda:	68e1      	ldr	r1, [r4, #12]
    2edc:	7808      	ldrb	r0, [r1, #0]
    2ede:	461a      	mov	r2, r3
    2ee0:	1c4d      	adds	r5, r1, #1
    2ee2:	2800      	cmp	r0, #0
    2ee4:	d1e9      	bne.n	2eba <d_substitution+0x2e>
    2ee6:	2500      	movs	r5, #0
    2ee8:	4628      	mov	r0, r5
    2eea:	e8bd 81f0 	ldmia.w	sp!, {r4, r5, r6, r7, r8, pc}
    2eee:	f1a0 0241 	sub.w	r2, r0, #65	; 0x41
    2ef2:	2a19      	cmp	r2, #25
    2ef4:	d9df      	bls.n	2eb6 <d_substitution+0x2a>
    2ef6:	68a3      	ldr	r3, [r4, #8]
    2ef8:	f013 0308 	ands.w	r3, r3, #8
    2efc:	d022      	beq.n	2f44 <d_substitution+0xb8>
    2efe:	1e19      	subs	r1, r3, #0
    2f00:	bf18      	it	ne
    2f02:	2101      	movne	r1, #1
    2f04:	4b45      	ldr	r3, [pc, #276]	; (301c <d_substitution+0x190>)
    2f06:	f103 05c4 	add.w	r5, r3, #196	; 0xc4
    2f0a:	781a      	ldrb	r2, [r3, #0]
    2f0c:	4282      	cmp	r2, r0
    2f0e:	d021      	beq.n	2f54 <d_substitution+0xc8>
    2f10:	331c      	adds	r3, #28
    2f12:	42ab      	cmp	r3, r5
    2f14:	d1f9      	bne.n	2f0a <d_substitution+0x7e>
    2f16:	e7e6      	b.n	2ee6 <d_substitution+0x5a>
    2f18:	f1a0 0341 	sub.w	r3, r0, #65	; 0x41
    2f1c:	2b19      	cmp	r3, #25
    2f1e:	d8e2      	bhi.n	2ee6 <d_substitution+0x5a>
    2f20:	eb02 03c2 	add.w	r3, r2, r2, lsl #3
    2f24:	eb00 0383 	add.w	r3, r0, r3, lsl #2
    2f28:	3b37      	subs	r3, #55	; 0x37
    2f2a:	e7d4      	b.n	2ed6 <d_substitution+0x4a>
    2f2c:	3301      	adds	r3, #1
    2f2e:	6a22      	ldr	r2, [r4, #32]
    2f30:	429a      	cmp	r2, r3
    2f32:	d9d8      	bls.n	2ee6 <d_substitution+0x5a>
    2f34:	69e2      	ldr	r2, [r4, #28]
    2f36:	f852 5023 	ldr.w	r5, [r2, r3, lsl #2]
    2f3a:	4628      	mov	r0, r5
    2f3c:	e8bd 81f0 	ldmia.w	sp!, {r4, r5, r6, r7, r8, pc}
    2f40:	2300      	movs	r3, #0
    2f42:	e7f4      	b.n	2f2e <d_substitution+0xa2>
    2f44:	2900      	cmp	r1, #0
    2f46:	d0da      	beq.n	2efe <d_substitution+0x72>
    2f48:	68e2      	ldr	r2, [r4, #12]
    2f4a:	7812      	ldrb	r2, [r2, #0]
    2f4c:	3a43      	subs	r2, #67	; 0x43
    2f4e:	2a01      	cmp	r2, #1
    2f50:	d8d5      	bhi.n	2efe <d_substitution+0x72>
    2f52:	e7d7      	b.n	2f04 <d_substitution+0x78>
    2f54:	695e      	ldr	r6, [r3, #20]
    2f56:	2e00      	cmp	r6, #0
    2f58:	d058      	beq.n	300c <d_substitution+0x180>
    2f5a:	e9d4 2505 	ldrd	r2, r5, [r4, #20]
    2f5e:	42aa      	cmp	r2, r5
    2f60:	f8d3 8018 	ldr.w	r8, [r3, #24]
    2f64:	da57      	bge.n	3016 <d_substitution+0x18a>
    2f66:	6927      	ldr	r7, [r4, #16]
    2f68:	eb02 0c82 	add.w	ip, r2, r2, lsl #2
    2f6c:	eb07 008c 	add.w	r0, r7, ip, lsl #2
    2f70:	f04f 0e00 	mov.w	lr, #0
    2f74:	f8c0 e004 	str.w	lr, [r0, #4]
    2f78:	f8c0 e008 	str.w	lr, [r0, #8]
    2f7c:	3201      	adds	r2, #1
    2f7e:	f04f 0e18 	mov.w	lr, #24
    2f82:	6162      	str	r2, [r4, #20]
    2f84:	f807 e02c 	strb.w	lr, [r7, ip, lsl #2]
    2f88:	e9c0 6803 	strd	r6, r8, [r0, #12]
    2f8c:	62a0      	str	r0, [r4, #40]	; 0x28
    2f8e:	2900      	cmp	r1, #0
    2f90:	d039      	beq.n	3006 <d_substitution+0x17a>
    2f92:	e9d3 7103 	ldrd	r7, r1, [r3, #12]
    2f96:	6ae3      	ldr	r3, [r4, #44]	; 0x2c
    2f98:	42aa      	cmp	r2, r5
    2f9a:	440b      	add	r3, r1
    2f9c:	62e3      	str	r3, [r4, #44]	; 0x2c
    2f9e:	da38      	bge.n	3012 <d_substitution+0x186>
    2fa0:	6923      	ldr	r3, [r4, #16]
    2fa2:	eb02 0082 	add.w	r0, r2, r2, lsl #2
    2fa6:	eb03 0580 	add.w	r5, r3, r0, lsl #2
    2faa:	3201      	adds	r2, #1
    2fac:	2600      	movs	r6, #0
    2fae:	606e      	str	r6, [r5, #4]
    2fb0:	60ae      	str	r6, [r5, #8]
    2fb2:	6162      	str	r2, [r4, #20]
    2fb4:	2218      	movs	r2, #24
    2fb6:	f803 2020 	strb.w	r2, [r3, r0, lsl #2]
    2fba:	e9c5 7103 	strd	r7, r1, [r5, #12]
    2fbe:	68e3      	ldr	r3, [r4, #12]
    2fc0:	781a      	ldrb	r2, [r3, #0]
    2fc2:	2a42      	cmp	r2, #66	; 0x42
    2fc4:	d190      	bne.n	2ee8 <d_substitution+0x5c>
    2fc6:	6aa6      	ldr	r6, [r4, #40]	; 0x28
    2fc8:	3301      	adds	r3, #1
    2fca:	60e3      	str	r3, [r4, #12]
    2fcc:	4620      	mov	r0, r4
    2fce:	f7ff feed 	bl	2dac <d_source_name>
    2fd2:	462a      	mov	r2, r5
    2fd4:	4603      	mov	r3, r0
    2fd6:	214d      	movs	r1, #77	; 0x4d
    2fd8:	4620      	mov	r0, r4
    2fda:	f7ff fbe3 	bl	27a4 <d_make_comp>
    2fde:	68e3      	ldr	r3, [r4, #12]
    2fe0:	781a      	ldrb	r2, [r3, #0]
    2fe2:	2a42      	cmp	r2, #66	; 0x42
    2fe4:	4605      	mov	r5, r0
    2fe6:	d0ef      	beq.n	2fc8 <d_substitution+0x13c>
    2fe8:	62a6      	str	r6, [r4, #40]	; 0x28
    2fea:	2800      	cmp	r0, #0
    2fec:	f43f af7b 	beq.w	2ee6 <d_substitution+0x5a>
    2ff0:	e9d4 3208 	ldrd	r3, r2, [r4, #32]
    2ff4:	4293      	cmp	r3, r2
    2ff6:	f6bf af76 	bge.w	2ee6 <d_substitution+0x5a>
    2ffa:	69e1      	ldr	r1, [r4, #28]
    2ffc:	1c5a      	adds	r2, r3, #1
    2ffe:	f841 0023 	str.w	r0, [r1, r3, lsl #2]
    3002:	6222      	str	r2, [r4, #32]
    3004:	e770      	b.n	2ee8 <d_substitution+0x5c>
    3006:	e9d3 7101 	ldrd	r7, r1, [r3, #4]
    300a:	e7c4      	b.n	2f96 <d_substitution+0x10a>
    300c:	e9d4 2505 	ldrd	r2, r5, [r4, #20]
    3010:	e7bd      	b.n	2f8e <d_substitution+0x102>
    3012:	2500      	movs	r5, #0
    3014:	e7d3      	b.n	2fbe <d_substitution+0x132>
    3016:	2000      	movs	r0, #0
    3018:	e7b8      	b.n	2f8c <d_substitution+0x100>
    301a:	bf00      	nop
    301c:	00014ac8 	.word	0x00014ac8

00003020 <d_type>:
    3020:	e92d 43f0 	stmdb	sp!, {r4, r5, r6, r7, r8, r9, lr}
    3024:	68c2      	ldr	r2, [r0, #12]
    3026:	b083      	sub	sp, #12
    3028:	4604      	mov	r4, r0
    302a:	4610      	mov	r0, r2
    302c:	f7ff fd7a 	bl	2b24 <next_is_type_qual.isra.0>
    3030:	2800      	cmp	r0, #0
    3032:	d161      	bne.n	30f8 <d_type+0xd8>
    3034:	7813      	ldrb	r3, [r2, #0]
    3036:	2b5a      	cmp	r3, #90	; 0x5a
    3038:	d833      	bhi.n	30a2 <d_type+0x82>
    303a:	2b2f      	cmp	r3, #47	; 0x2f
    303c:	f240 808c 	bls.w	3158 <d_type+0x138>
    3040:	3b30      	subs	r3, #48	; 0x30
    3042:	2b2a      	cmp	r3, #42	; 0x2a
    3044:	f200 8088 	bhi.w	3158 <d_type+0x138>
    3048:	e8df f013 	tbh	[pc, r3, lsl #1]
    304c:	00880088 	.word	0x00880088
    3050:	00880088 	.word	0x00880088
    3054:	00880088 	.word	0x00880088
    3058:	00880088 	.word	0x00880088
    305c:	00880088 	.word	0x00880088
    3060:	00860086 	.word	0x00860086
    3064:	00860086 	.word	0x00860086
    3068:	00860086 	.word	0x00860086
    306c:	01c20086 	.word	0x01c20086
    3070:	01490086 	.word	0x01490086
    3074:	008600b1 	.word	0x008600b1
    3078:	009d00ab 	.word	0x009d00ab
    307c:	00860086 	.word	0x00860086
    3080:	00860086 	.word	0x00860086
    3084:	02040086 	.word	0x02040086
    3088:	01970088 	.word	0x01970088
    308c:	00860189 	.word	0x00860189
    3090:	0157017b 	.word	0x0157017b
    3094:	01aa0122 	.word	0x01aa0122
    3098:	00860086 	.word	0x00860086
    309c:	00860086 	.word	0x00860086
    30a0:	0088      	.short	0x0088
    30a2:	3b61      	subs	r3, #97	; 0x61
    30a4:	fa5f fc83 	uxtb.w	ip, r3
    30a8:	f1bc 0f19 	cmp.w	ip, #25
    30ac:	d854      	bhi.n	3158 <d_type+0x138>
    30ae:	4dba      	ldr	r5, [pc, #744]	; (3398 <d_type+0x378>)
    30b0:	2101      	movs	r1, #1
    30b2:	fa01 f10c 	lsl.w	r1, r1, ip
    30b6:	400d      	ands	r5, r1
    30b8:	2d00      	cmp	r5, #0
    30ba:	d049      	beq.n	3150 <d_type+0x130>
    30bc:	49b7      	ldr	r1, [pc, #732]	; (339c <d_type+0x37c>)
    30be:	eb03 0383 	add.w	r3, r3, r3, lsl #2
    30c2:	eb01 0183 	add.w	r1, r1, r3, lsl #2
    30c6:	e9d4 3505 	ldrd	r3, r5, [r4, #20]
    30ca:	42ab      	cmp	r3, r5
    30cc:	f280 83d5 	bge.w	387a <d_type+0x85a>
    30d0:	6926      	ldr	r6, [r4, #16]
    30d2:	eb03 0c83 	add.w	ip, r3, r3, lsl #2
    30d6:	eb06 058c 	add.w	r5, r6, ip, lsl #2
    30da:	3301      	adds	r3, #1
    30dc:	6068      	str	r0, [r5, #4]
    30de:	60a8      	str	r0, [r5, #8]
    30e0:	6163      	str	r3, [r4, #20]
    30e2:	2327      	movs	r3, #39	; 0x27
    30e4:	f806 302c 	strb.w	r3, [r6, ip, lsl #2]
    30e8:	60e9      	str	r1, [r5, #12]
    30ea:	6ae3      	ldr	r3, [r4, #44]	; 0x2c
    30ec:	6849      	ldr	r1, [r1, #4]
    30ee:	3201      	adds	r2, #1
    30f0:	440b      	add	r3, r1
    30f2:	60e2      	str	r2, [r4, #12]
    30f4:	62e3      	str	r3, [r4, #44]	; 0x2c
    30f6:	e024      	b.n	3142 <d_type+0x122>
    30f8:	2200      	movs	r2, #0
    30fa:	a901      	add	r1, sp, #4
    30fc:	4620      	mov	r0, r4
    30fe:	f001 fadf 	bl	46c0 <d_cv_qualifiers>
    3102:	4605      	mov	r5, r0
    3104:	b340      	cbz	r0, 3158 <d_type+0x138>
    3106:	68e3      	ldr	r3, [r4, #12]
    3108:	781b      	ldrb	r3, [r3, #0]
    310a:	2b46      	cmp	r3, #70	; 0x46
    310c:	4620      	mov	r0, r4
    310e:	d01c      	beq.n	314a <d_type+0x12a>
    3110:	f7ff ff86 	bl	3020 <d_type>
    3114:	6028      	str	r0, [r5, #0]
    3116:	b1f8      	cbz	r0, 3158 <d_type+0x138>
    3118:	7803      	ldrb	r3, [r0, #0]
    311a:	3b1f      	subs	r3, #31
    311c:	2b01      	cmp	r3, #1
    311e:	d805      	bhi.n	312c <d_type+0x10c>
    3120:	9a01      	ldr	r2, [sp, #4]
    3122:	68c3      	ldr	r3, [r0, #12]
    3124:	60c2      	str	r2, [r0, #12]
    3126:	682a      	ldr	r2, [r5, #0]
    3128:	9201      	str	r2, [sp, #4]
    312a:	602b      	str	r3, [r5, #0]
    312c:	9d01      	ldr	r5, [sp, #4]
    312e:	b19d      	cbz	r5, 3158 <d_type+0x138>
    3130:	e9d4 3208 	ldrd	r3, r2, [r4, #32]
    3134:	4293      	cmp	r3, r2
    3136:	da0f      	bge.n	3158 <d_type+0x138>
    3138:	69e1      	ldr	r1, [r4, #28]
    313a:	1c5a      	adds	r2, r3, #1
    313c:	f841 5023 	str.w	r5, [r1, r3, lsl #2]
    3140:	6222      	str	r2, [r4, #32]
    3142:	4628      	mov	r0, r5
    3144:	b003      	add	sp, #12
    3146:	e8bd 83f0 	ldmia.w	sp!, {r4, r5, r6, r7, r8, r9, pc}
    314a:	f000 fbff 	bl	394c <d_function_type>
    314e:	e7e1      	b.n	3114 <d_type+0xf4>
    3150:	f1bc 0f14 	cmp.w	ip, #20
    3154:	f000 830f 	beq.w	3776 <d_type+0x756>
    3158:	2500      	movs	r5, #0
    315a:	e7f2      	b.n	3142 <d_type+0x122>
    315c:	4620      	mov	r0, r4
    315e:	f001 fdeb 	bl	4d38 <d_name>
    3162:	4605      	mov	r5, r0
    3164:	9001      	str	r0, [sp, #4]
    3166:	2d00      	cmp	r5, #0
    3168:	d0f6      	beq.n	3158 <d_type+0x138>
    316a:	e9d4 3208 	ldrd	r3, r2, [r4, #32]
    316e:	4293      	cmp	r3, r2
    3170:	daf2      	bge.n	3158 <d_type+0x138>
    3172:	69e1      	ldr	r1, [r4, #28]
    3174:	f841 5023 	str.w	r5, [r1, r3, lsl #2]
    3178:	9d01      	ldr	r5, [sp, #4]
    317a:	1c5a      	adds	r2, r3, #1
    317c:	4628      	mov	r0, r5
    317e:	6222      	str	r2, [r4, #32]
    3180:	b003      	add	sp, #12
    3182:	e8bd 83f0 	ldmia.w	sp!, {r4, r5, r6, r7, r8, r9, pc}
    3186:	3201      	adds	r2, #1
    3188:	60e2      	str	r2, [r4, #12]
    318a:	4620      	mov	r0, r4
    318c:	f7ff ff48 	bl	3020 <d_type>
    3190:	2300      	movs	r3, #0
    3192:	4602      	mov	r2, r0
    3194:	2126      	movs	r1, #38	; 0x26
    3196:	4620      	mov	r0, r4
    3198:	f7ff fb04 	bl	27a4 <d_make_comp>
    319c:	4605      	mov	r5, r0
    319e:	9001      	str	r0, [sp, #4]
    31a0:	e7e1      	b.n	3166 <d_type+0x146>
    31a2:	4620      	mov	r0, r4
    31a4:	f000 fbd2 	bl	394c <d_function_type>
    31a8:	4605      	mov	r5, r0
    31aa:	9001      	str	r0, [sp, #4]
    31ac:	e7db      	b.n	3166 <d_type+0x146>
    31ae:	1c53      	adds	r3, r2, #1
    31b0:	60e3      	str	r3, [r4, #12]
    31b2:	7853      	ldrb	r3, [r2, #1]
    31b4:	2b00      	cmp	r3, #0
    31b6:	d0cf      	beq.n	3158 <d_type+0x138>
    31b8:	1c93      	adds	r3, r2, #2
    31ba:	60e3      	str	r3, [r4, #12]
    31bc:	7853      	ldrb	r3, [r2, #1]
    31be:	3b46      	subs	r3, #70	; 0x46
    31c0:	2b30      	cmp	r3, #48	; 0x30
    31c2:	d8c9      	bhi.n	3158 <d_type+0x138>
    31c4:	a101      	add	r1, pc, #4	; (adr r1, 31cc <d_type+0x1ac>)
    31c6:	f851 f023 	ldr.w	pc, [r1, r3, lsl #2]
    31ca:	bf00      	nop
    31cc:	000034c1 	.word	0x000034c1
    31d0:	00003159 	.word	0x00003159
    31d4:	00003159 	.word	0x00003159
    31d8:	00003159 	.word	0x00003159
    31dc:	00003159 	.word	0x00003159
    31e0:	00003159 	.word	0x00003159
    31e4:	00003159 	.word	0x00003159
    31e8:	00003159 	.word	0x00003159
    31ec:	00003159 	.word	0x00003159
    31f0:	00003159 	.word	0x00003159
    31f4:	00003159 	.word	0x00003159
    31f8:	00003159 	.word	0x00003159
    31fc:	00003159 	.word	0x00003159
    3200:	00003159 	.word	0x00003159
    3204:	00003485 	.word	0x00003485
    3208:	00003159 	.word	0x00003159
    320c:	00003159 	.word	0x00003159
    3210:	00003159 	.word	0x00003159
    3214:	00003159 	.word	0x00003159
    3218:	00003159 	.word	0x00003159
    321c:	00003159 	.word	0x00003159
    3220:	00003159 	.word	0x00003159
    3224:	00003159 	.word	0x00003159
    3228:	00003159 	.word	0x00003159
    322c:	00003159 	.word	0x00003159
    3230:	00003159 	.word	0x00003159
    3234:	00003159 	.word	0x00003159
    3238:	00003559 	.word	0x00003559
    323c:	00003159 	.word	0x00003159
    3240:	0000352d 	.word	0x0000352d
    3244:	00003615 	.word	0x00003615
    3248:	000035e5 	.word	0x000035e5
    324c:	000035b5 	.word	0x000035b5
    3250:	00003159 	.word	0x00003159
    3254:	00003585 	.word	0x00003585
    3258:	00003747 	.word	0x00003747
    325c:	00003159 	.word	0x00003159
    3260:	00003159 	.word	0x00003159
    3264:	00003159 	.word	0x00003159
    3268:	00003159 	.word	0x00003159
    326c:	00003717 	.word	0x00003717
    3270:	00003159 	.word	0x00003159
    3274:	000036ff 	.word	0x000036ff
    3278:	00003159 	.word	0x00003159
    327c:	00003159 	.word	0x00003159
    3280:	000036cf 	.word	0x000036cf
    3284:	00003485 	.word	0x00003485
    3288:	0000369f 	.word	0x0000369f
    328c:	00003645 	.word	0x00003645
    3290:	4620      	mov	r0, r4
    3292:	f7ff fd1b 	bl	2ccc <d_template_param>
    3296:	68e6      	ldr	r6, [r4, #12]
    3298:	9001      	str	r0, [sp, #4]
    329a:	7833      	ldrb	r3, [r6, #0]
    329c:	2b49      	cmp	r3, #73	; 0x49
    329e:	4605      	mov	r5, r0
    32a0:	f47f af61 	bne.w	3166 <d_type+0x146>
    32a4:	6b63      	ldr	r3, [r4, #52]	; 0x34
    32a6:	2b00      	cmp	r3, #0
    32a8:	f040 829d 	bne.w	37e6 <d_type+0x7c6>
    32ac:	2800      	cmp	r0, #0
    32ae:	f43f af53 	beq.w	3158 <d_type+0x138>
    32b2:	e9d4 2108 	ldrd	r2, r1, [r4, #32]
    32b6:	428a      	cmp	r2, r1
    32b8:	f6bf af4e 	bge.w	3158 <d_type+0x138>
    32bc:	69e1      	ldr	r1, [r4, #28]
    32be:	f841 0022 	str.w	r0, [r1, r2, lsl #2]
    32c2:	3201      	adds	r2, #1
    32c4:	6222      	str	r2, [r4, #32]
    32c6:	7832      	ldrb	r2, [r6, #0]
    32c8:	3a49      	subs	r2, #73	; 0x49
    32ca:	2a01      	cmp	r2, #1
    32cc:	d805      	bhi.n	32da <d_type+0x2ba>
    32ce:	3601      	adds	r6, #1
    32d0:	60e6      	str	r6, [r4, #12]
    32d2:	4620      	mov	r0, r4
    32d4:	f000 fe66 	bl	3fa4 <d_template_args_1>
    32d8:	4603      	mov	r3, r0
    32da:	462a      	mov	r2, r5
    32dc:	e02a      	b.n	3334 <d_type+0x314>
    32de:	3201      	adds	r2, #1
    32e0:	60e2      	str	r2, [r4, #12]
    32e2:	4620      	mov	r0, r4
    32e4:	f7ff fe9c 	bl	3020 <d_type>
    32e8:	2300      	movs	r3, #0
    32ea:	4602      	mov	r2, r0
    32ec:	2125      	movs	r1, #37	; 0x25
    32ee:	4620      	mov	r0, r4
    32f0:	f7ff fa58 	bl	27a4 <d_make_comp>
    32f4:	4605      	mov	r5, r0
    32f6:	9001      	str	r0, [sp, #4]
    32f8:	e735      	b.n	3166 <d_type+0x146>
    32fa:	7853      	ldrb	r3, [r2, #1]
    32fc:	f1a3 0230 	sub.w	r2, r3, #48	; 0x30
    3300:	2a09      	cmp	r2, #9
    3302:	d905      	bls.n	3310 <d_type+0x2f0>
    3304:	2b5f      	cmp	r3, #95	; 0x5f
    3306:	d003      	beq.n	3310 <d_type+0x2f0>
    3308:	3b41      	subs	r3, #65	; 0x41
    330a:	2b19      	cmp	r3, #25
    330c:	f200 825e 	bhi.w	37cc <d_type+0x7ac>
    3310:	2100      	movs	r1, #0
    3312:	4620      	mov	r0, r4
    3314:	f7ff fdba 	bl	2e8c <d_substitution>
    3318:	68e3      	ldr	r3, [r4, #12]
    331a:	9001      	str	r0, [sp, #4]
    331c:	781a      	ldrb	r2, [r3, #0]
    331e:	2a49      	cmp	r2, #73	; 0x49
    3320:	4605      	mov	r5, r0
    3322:	f47f af0e 	bne.w	3142 <d_type+0x122>
    3326:	3301      	adds	r3, #1
    3328:	60e3      	str	r3, [r4, #12]
    332a:	4620      	mov	r0, r4
    332c:	f000 fe3a 	bl	3fa4 <d_template_args_1>
    3330:	462a      	mov	r2, r5
    3332:	4603      	mov	r3, r0
    3334:	2104      	movs	r1, #4
    3336:	4620      	mov	r0, r4
    3338:	f7ff fa34 	bl	27a4 <d_make_comp>
    333c:	4605      	mov	r5, r0
    333e:	9001      	str	r0, [sp, #4]
    3340:	e711      	b.n	3166 <d_type+0x146>
    3342:	3201      	adds	r2, #1
    3344:	60e2      	str	r2, [r4, #12]
    3346:	4620      	mov	r0, r4
    3348:	f7ff fe6a 	bl	3020 <d_type>
    334c:	2300      	movs	r3, #0
    334e:	4602      	mov	r2, r0
    3350:	2123      	movs	r1, #35	; 0x23
    3352:	4620      	mov	r0, r4
    3354:	f7ff fa26 	bl	27a4 <d_make_comp>
    3358:	4605      	mov	r5, r0
    335a:	9001      	str	r0, [sp, #4]
    335c:	e703      	b.n	3166 <d_type+0x146>
    335e:	3201      	adds	r2, #1
    3360:	60e2      	str	r2, [r4, #12]
    3362:	4620      	mov	r0, r4
    3364:	f7ff fe5c 	bl	3020 <d_type>
    3368:	2300      	movs	r3, #0
    336a:	4602      	mov	r2, r0
    336c:	2122      	movs	r1, #34	; 0x22
    336e:	4620      	mov	r0, r4
    3370:	f7ff fa18 	bl	27a4 <d_make_comp>
    3374:	4605      	mov	r5, r0
    3376:	9001      	str	r0, [sp, #4]
    3378:	e6f5      	b.n	3166 <d_type+0x146>
    337a:	3201      	adds	r2, #1
    337c:	60e2      	str	r2, [r4, #12]
    337e:	4620      	mov	r0, r4
    3380:	f7ff fe4e 	bl	3020 <d_type>
    3384:	2300      	movs	r3, #0
    3386:	4602      	mov	r2, r0
    3388:	2124      	movs	r1, #36	; 0x24
    338a:	4620      	mov	r0, r4
    338c:	f7ff fa0a 	bl	27a4 <d_make_comp>
    3390:	4605      	mov	r5, r0
    3392:	9001      	str	r0, [sp, #4]
    3394:	e6e7      	b.n	3166 <d_type+0x146>
    3396:	bf00      	nop
    3398:	03ec7bff 	.word	0x03ec7bff
    339c:	0001501c 	.word	0x0001501c
    33a0:	3201      	adds	r2, #1
    33a2:	60e2      	str	r2, [r4, #12]
    33a4:	4620      	mov	r0, r4
    33a6:	f7ff fd01 	bl	2dac <d_source_name>
    33aa:	68e3      	ldr	r3, [r4, #12]
    33ac:	9001      	str	r0, [sp, #4]
    33ae:	781a      	ldrb	r2, [r3, #0]
    33b0:	2a49      	cmp	r2, #73	; 0x49
    33b2:	4605      	mov	r5, r0
    33b4:	f000 81ef 	beq.w	3796 <d_type+0x776>
    33b8:	4620      	mov	r0, r4
    33ba:	f7ff fe31 	bl	3020 <d_type>
    33be:	462b      	mov	r3, r5
    33c0:	4602      	mov	r2, r0
    33c2:	2121      	movs	r1, #33	; 0x21
    33c4:	4620      	mov	r0, r4
    33c6:	f7ff f9ed 	bl	27a4 <d_make_comp>
    33ca:	4605      	mov	r5, r0
    33cc:	9001      	str	r0, [sp, #4]
    33ce:	e6ca      	b.n	3166 <d_type+0x146>
    33d0:	1c55      	adds	r5, r2, #1
    33d2:	60e5      	str	r5, [r4, #12]
    33d4:	7853      	ldrb	r3, [r2, #1]
    33d6:	2b5f      	cmp	r3, #95	; 0x5f
    33d8:	f000 81db 	beq.w	3792 <d_type+0x772>
    33dc:	3b30      	subs	r3, #48	; 0x30
    33de:	2b09      	cmp	r3, #9
    33e0:	f200 81e6 	bhi.w	37b0 <d_type+0x790>
    33e4:	462b      	mov	r3, r5
    33e6:	469c      	mov	ip, r3
    33e8:	3301      	adds	r3, #1
    33ea:	60e3      	str	r3, [r4, #12]
    33ec:	7819      	ldrb	r1, [r3, #0]
    33ee:	3930      	subs	r1, #48	; 0x30
    33f0:	2909      	cmp	r1, #9
    33f2:	d9f8      	bls.n	33e6 <d_type+0x3c6>
    33f4:	e9d4 1005 	ldrd	r1, r0, [r4, #20]
    33f8:	4281      	cmp	r1, r0
    33fa:	ebac 0202 	sub.w	r2, ip, r2
    33fe:	f6bf aeab 	bge.w	3158 <d_type+0x138>
    3402:	6927      	ldr	r7, [r4, #16]
    3404:	eb01 0081 	add.w	r0, r1, r1, lsl #2
    3408:	eb07 0680 	add.w	r6, r7, r0, lsl #2
    340c:	ea4f 0e80 	mov.w	lr, r0, lsl #2
    3410:	2000      	movs	r0, #0
    3412:	3101      	adds	r1, #1
    3414:	4282      	cmp	r2, r0
    3416:	6070      	str	r0, [r6, #4]
    3418:	60b0      	str	r0, [r6, #8]
    341a:	6161      	str	r1, [r4, #20]
    341c:	f77f ae9c 	ble.w	3158 <d_type+0x138>
    3420:	6070      	str	r0, [r6, #4]
    3422:	60b0      	str	r0, [r6, #8]
    3424:	f807 000e 	strb.w	r0, [r7, lr]
    3428:	e9c6 5203 	strd	r5, r2, [r6, #12]
    342c:	f89c 2001 	ldrb.w	r2, [ip, #1]
    3430:	461d      	mov	r5, r3
    3432:	2a5f      	cmp	r2, #95	; 0x5f
    3434:	f47f ae90 	bne.w	3158 <d_type+0x138>
    3438:	3501      	adds	r5, #1
    343a:	60e5      	str	r5, [r4, #12]
    343c:	4620      	mov	r0, r4
    343e:	f7ff fdef 	bl	3020 <d_type>
    3442:	4632      	mov	r2, r6
    3444:	4603      	mov	r3, r0
    3446:	212a      	movs	r1, #42	; 0x2a
    3448:	4620      	mov	r0, r4
    344a:	f7ff f9ab 	bl	27a4 <d_make_comp>
    344e:	4605      	mov	r5, r0
    3450:	9001      	str	r0, [sp, #4]
    3452:	e688      	b.n	3166 <d_type+0x146>
    3454:	3201      	adds	r2, #1
    3456:	60e2      	str	r2, [r4, #12]
    3458:	4620      	mov	r0, r4
    345a:	f7ff fde1 	bl	3020 <d_type>
    345e:	4605      	mov	r5, r0
    3460:	2800      	cmp	r0, #0
    3462:	f43f ae79 	beq.w	3158 <d_type+0x138>
    3466:	4620      	mov	r0, r4
    3468:	f7ff fdda 	bl	3020 <d_type>
    346c:	4603      	mov	r3, r0
    346e:	2800      	cmp	r0, #0
    3470:	f43f ae72 	beq.w	3158 <d_type+0x138>
    3474:	462a      	mov	r2, r5
    3476:	212b      	movs	r1, #43	; 0x2b
    3478:	4620      	mov	r0, r4
    347a:	f7ff f993 	bl	27a4 <d_make_comp>
    347e:	4605      	mov	r5, r0
    3480:	9001      	str	r0, [sp, #4]
    3482:	e670      	b.n	3166 <d_type+0x146>
    3484:	2301      	movs	r3, #1
    3486:	6b25      	ldr	r5, [r4, #48]	; 0x30
    3488:	6323      	str	r3, [r4, #48]	; 0x30
    348a:	4620      	mov	r0, r4
    348c:	f000 fe5a 	bl	4144 <d_expression_1>
    3490:	6325      	str	r5, [r4, #48]	; 0x30
    3492:	4602      	mov	r2, r0
    3494:	2300      	movs	r3, #0
    3496:	2144      	movs	r1, #68	; 0x44
    3498:	4620      	mov	r0, r4
    349a:	f7ff f983 	bl	27a4 <d_make_comp>
    349e:	4605      	mov	r5, r0
    34a0:	9001      	str	r0, [sp, #4]
    34a2:	2800      	cmp	r0, #0
    34a4:	f43f ae58 	beq.w	3158 <d_type+0x138>
    34a8:	68e3      	ldr	r3, [r4, #12]
    34aa:	781a      	ldrb	r2, [r3, #0]
    34ac:	2a00      	cmp	r2, #0
    34ae:	f43f ae53 	beq.w	3158 <d_type+0x138>
    34b2:	1c5a      	adds	r2, r3, #1
    34b4:	60e2      	str	r2, [r4, #12]
    34b6:	781b      	ldrb	r3, [r3, #0]
    34b8:	2b45      	cmp	r3, #69	; 0x45
    34ba:	f47f ae4d 	bne.w	3158 <d_type+0x138>
    34be:	e654      	b.n	316a <d_type+0x14a>
    34c0:	e9d4 3105 	ldrd	r3, r1, [r4, #20]
    34c4:	428b      	cmp	r3, r1
    34c6:	f280 81da 	bge.w	387e <d_type+0x85e>
    34ca:	6921      	ldr	r1, [r4, #16]
    34cc:	eb03 0083 	add.w	r0, r3, r3, lsl #2
    34d0:	eb01 0580 	add.w	r5, r1, r0, lsl #2
    34d4:	2600      	movs	r6, #0
    34d6:	3301      	adds	r3, #1
    34d8:	606e      	str	r6, [r5, #4]
    34da:	60ae      	str	r6, [r5, #8]
    34dc:	6163      	str	r3, [r4, #20]
    34de:	232c      	movs	r3, #44	; 0x2c
    34e0:	f801 3020 	strb.w	r3, [r1, r0, lsl #2]
    34e4:	7893      	ldrb	r3, [r2, #2]
    34e6:	9501      	str	r5, [sp, #4]
    34e8:	3b30      	subs	r3, #48	; 0x30
    34ea:	b2db      	uxtb	r3, r3
    34ec:	2b09      	cmp	r3, #9
    34ee:	bf94      	ite	ls
    34f0:	2301      	movls	r3, #1
    34f2:	4633      	movhi	r3, r6
    34f4:	822b      	strh	r3, [r5, #16]
    34f6:	d802      	bhi.n	34fe <d_type+0x4de>
    34f8:	4620      	mov	r0, r4
    34fa:	f7ff f9cb 	bl	2894 <d_number>
    34fe:	4620      	mov	r0, r4
    3500:	f7ff fd8e 	bl	3020 <d_type>
    3504:	60e8      	str	r0, [r5, #12]
    3506:	2800      	cmp	r0, #0
    3508:	f43f ae26 	beq.w	3158 <d_type+0x138>
    350c:	4620      	mov	r0, r4
    350e:	f7ff f9c1 	bl	2894 <d_number>
    3512:	68e2      	ldr	r2, [r4, #12]
    3514:	7813      	ldrb	r3, [r2, #0]
    3516:	b113      	cbz	r3, 351e <d_type+0x4fe>
    3518:	1c53      	adds	r3, r2, #1
    351a:	60e3      	str	r3, [r4, #12]
    351c:	7813      	ldrb	r3, [r2, #0]
    351e:	f1a3 0373 	sub.w	r3, r3, #115	; 0x73
    3522:	fab3 f383 	clz	r3, r3
    3526:	095b      	lsrs	r3, r3, #5
    3528:	826b      	strh	r3, [r5, #18]
    352a:	e60a      	b.n	3142 <d_type+0x122>
    352c:	e9d4 3205 	ldrd	r3, r2, [r4, #20]
    3530:	4293      	cmp	r3, r2
    3532:	f6bf ae11 	bge.w	3158 <d_type+0x138>
    3536:	6922      	ldr	r2, [r4, #16]
    3538:	49bd      	ldr	r1, [pc, #756]	; (3830 <d_type+0x810>)
    353a:	eb03 0583 	add.w	r5, r3, r3, lsl #2
